

Microchip MPLAB XC8 Assembler V2.41 build 20230208172133 
                                                                                               Sun Jun 18 10:07:50 2023

Microchip MPLAB XC8 C Compiler v2.41 (Free license) build 20230208172133 Og1 
     1                           	processor	16F877A
     2                           	pagewidth 120
     3                           	opt	flic
     4                           	psect	idataBANK0,global,class=CODE,delta=2,noexec
     5                           	psect	strings,global,class=STRING,delta=2,noexec
     6                           	psect	cinit,global,class=CODE,merge=1,delta=2
     7                           	psect	bssBANK0,global,class=BANK0,space=1,delta=1,noexec
     8                           	psect	dataBANK0,global,class=BANK0,space=1,delta=1,noexec
     9                           	psect	bssBANK1,global,class=BANK1,space=1,delta=1,noexec
    10                           	psect	bssBANK3,global,class=BANK3,space=1,delta=1,noexec
    11                           	psect	clrtext,global,class=CODE,delta=2
    12                           	psect	cstackBANK3,global,class=BANK3,space=1,delta=1,noexec
    13                           	psect	cstackBANK1,global,class=BANK1,space=1,delta=1,noexec
    14                           	psect	cstackCOMMON,global,class=COMMON,space=1,delta=1,noexec
    15                           	psect	cstackBANK0,global,class=BANK0,space=1,delta=1,noexec
    16                           	psect	maintext,global,class=CODE,split=1,delta=2
    17                           	psect	text1,local,class=CODE,merge=1,delta=2
    18                           	psect	text2,local,class=CODE,merge=1,delta=2
    19                           	psect	text3,local,class=CODE,merge=1,delta=2
    20                           	psect	text4,local,class=CODE,merge=1,delta=2
    21                           	psect	text5,local,class=CODE,merge=1,delta=2
    22                           	psect	text6,local,class=CODE,merge=1,delta=2
    23                           	psect	text7,local,class=CODE,merge=1,delta=2
    24                           	psect	text8,local,class=CODE,merge=1,delta=2,group=2
    25                           	psect	text9,local,class=CODE,merge=1,delta=2,group=2
    26                           	psect	text10,local,class=CODE,merge=1,delta=2
    27                           	psect	text11,local,class=CODE,merge=1,delta=2,group=2
    28                           	psect	text12,local,class=CODE,merge=1,delta=2,group=2
    29                           	psect	text13,local,class=CODE,merge=1,delta=2,group=2
    30                           	psect	text14,local,class=CODE,merge=1,delta=2,group=2
    31                           	psect	text15,local,class=CODE,merge=1,delta=2,group=2
    32                           	psect	text16,local,class=CODE,merge=1,delta=2
    33                           	psect	text17,local,class=CODE,merge=1,delta=2
    34                           	psect	text18,local,class=CODE,merge=1,delta=2
    35                           	psect	intentry,global,class=CODE,delta=2
    36                           	psect	text19,local,class=CODE,merge=1,delta=2,group=1
    37                           	psect	text20,local,class=CODE,merge=1,delta=2
    38                           	psect	text21,local,class=CODE,merge=1,delta=2
    39                           	psect	text22,local,class=CODE,merge=1,delta=2
    40                           	psect	text23,local,class=CODE,merge=1,delta=2
    41                           	psect	text24,local,class=CODE,merge=1,delta=2
    42                           	psect	text25,local,class=CODE,merge=1,delta=2
    43                           	psect	text26,local,class=CODE,merge=1,delta=2
    44                           	psect	text27,local,class=CODE,merge=1,delta=2
    45                           	psect	text28,local,class=CODE,merge=1,delta=2
    46                           	psect	idloc,global,abs,ovrld,class=IDLOC,space=5,delta=2,noexec
    47                           	psect	config,global,abs,ovrld,class=CONFIG,space=4,delta=2,noexec
    48                           	dabs	1,0x7E,2
    49     0000                     
    50                           ; Version 2.40
    51                           ; Generated 17/11/2021 GMT
    52                           ; 
    53                           ; Copyright © 2021, Microchip Technology Inc. and its subsidiaries ("Microchip")
    54                           ; All rights reserved.
    55                           ; 
    56                           ; This software is developed by Microchip Technology Inc. and its subsidiaries ("Microch
      +                          ip").
    57                           ; 
    58                           ; Redistribution and use in source and binary forms, with or without modification, are
    59                           ; permitted provided that the following conditions are met:
    60                           ; 
    61                           ;     1. Redistributions of source code must retain the above copyright notice, this lis
      +                          t of
    62                           ;        conditions and the following disclaimer.
    63                           ; 
    64                           ;     2. Redistributions in binary form must reproduce the above copyright notice, this 
      +                          list
    65                           ;        of conditions and the following disclaimer in the documentation and/or other
    66                           ;        materials provided with the distribution. Publication is not required when
    67                           ;        this file is used in an embedded application.
    68                           ; 
    69                           ;     3. Microchip's name may not be used to endorse or promote products derived from th
      +                          is
    70                           ;        software without specific prior written permission.
    71                           ; 
    72                           ; THIS SOFTWARE IS PROVIDED BY MICROCHIP "AS IS" AND ANY EXPRESS OR IMPLIED WARRANTIES,
    73                           ; INCLUDING, BUT NOT LIMITED TO, THE IMPLIED WARRANTIES OF MERCHANTABILITY AND FITNESS F
      +                          OR
    74                           ; PURPOSE ARE DISCLAIMED.  IN NO EVENT SHALL MICROCHIP BE LIABLE FOR ANY DIRECT, INDIREC
      +                          T,
    75                           ; INCIDENTAL, SPECIAL, EXEMPLARY, OR CONSEQUENTIAL DAMAGES (INCLUDING BUT NOT LIMITED TO
    76                           ; PROCUREMENT OF SUBSTITUTE GOODS OR SERVICES; LOSS OF USE, DATA OR PROFITS; OR BUSINESS
    77                           ; INTERRUPTION) HOWSOEVER CAUSED AND ON ANY THEORY OF LIABILITY, WHETHER IN CONTRACT, ST
      +                          RICT
    78                           ; LIABILITY, OR TORT (INCLUDING NEGLIGENCE OR OTHERWISE) ARISING IN ANY WAY OUT OF THE U
      +                          SE OF
    79                           ; THIS SOFTWARE, EVEN IF ADVISED OF THE POSSIBILITY OF SUCH DAMAGE.
    80                           ; 
    81                           ; 
    82                           ; Code-generator required, PIC16F877A Definitions
    83                           ; 
    84                           ; SFR Addresses
    85     0000                     	;# 
    86     0001                     	;# 
    87     0002                     	;# 
    88     0003                     	;# 
    89     0004                     	;# 
    90     0005                     	;# 
    91     0006                     	;# 
    92     0007                     	;# 
    93     0008                     	;# 
    94     0009                     	;# 
    95     000A                     	;# 
    96     000B                     	;# 
    97     000C                     	;# 
    98     000D                     	;# 
    99     000E                     	;# 
   100     000E                     	;# 
   101     000F                     	;# 
   102     0010                     	;# 
   103     0011                     	;# 
   104     0012                     	;# 
   105     0013                     	;# 
   106     0014                     	;# 
   107     0015                     	;# 
   108     0015                     	;# 
   109     0016                     	;# 
   110     0017                     	;# 
   111     0018                     	;# 
   112     0019                     	;# 
   113     001A                     	;# 
   114     001B                     	;# 
   115     001B                     	;# 
   116     001C                     	;# 
   117     001D                     	;# 
   118     001E                     	;# 
   119     001F                     	;# 
   120     0081                     	;# 
   121     0085                     	;# 
   122     0086                     	;# 
   123     0087                     	;# 
   124     0088                     	;# 
   125     0089                     	;# 
   126     008C                     	;# 
   127     008D                     	;# 
   128     008E                     	;# 
   129     0091                     	;# 
   130     0092                     	;# 
   131     0093                     	;# 
   132     0094                     	;# 
   133     0098                     	;# 
   134     0099                     	;# 
   135     009C                     	;# 
   136     009D                     	;# 
   137     009E                     	;# 
   138     009F                     	;# 
   139     010C                     	;# 
   140     010D                     	;# 
   141     010E                     	;# 
   142     010F                     	;# 
   143     018C                     	;# 
   144     018D                     	;# 
   145     0000                     	;# 
   146     0001                     	;# 
   147     0002                     	;# 
   148     0003                     	;# 
   149     0004                     	;# 
   150     0005                     	;# 
   151     0006                     	;# 
   152     0007                     	;# 
   153     0008                     	;# 
   154     0009                     	;# 
   155     000A                     	;# 
   156     000B                     	;# 
   157     000C                     	;# 
   158     000D                     	;# 
   159     000E                     	;# 
   160     000E                     	;# 
   161     000F                     	;# 
   162     0010                     	;# 
   163     0011                     	;# 
   164     0012                     	;# 
   165     0013                     	;# 
   166     0014                     	;# 
   167     0015                     	;# 
   168     0015                     	;# 
   169     0016                     	;# 
   170     0017                     	;# 
   171     0018                     	;# 
   172     0019                     	;# 
   173     001A                     	;# 
   174     001B                     	;# 
   175     001B                     	;# 
   176     001C                     	;# 
   177     001D                     	;# 
   178     001E                     	;# 
   179     001F                     	;# 
   180     0081                     	;# 
   181     0085                     	;# 
   182     0086                     	;# 
   183     0087                     	;# 
   184     0088                     	;# 
   185     0089                     	;# 
   186     008C                     	;# 
   187     008D                     	;# 
   188     008E                     	;# 
   189     0091                     	;# 
   190     0092                     	;# 
   191     0093                     	;# 
   192     0094                     	;# 
   193     0098                     	;# 
   194     0099                     	;# 
   195     009C                     	;# 
   196     009D                     	;# 
   197     009E                     	;# 
   198     009F                     	;# 
   199     010C                     	;# 
   200     010D                     	;# 
   201     010E                     	;# 
   202     010F                     	;# 
   203     018C                     	;# 
   204     018D                     	;# 
   205     0000                     	;# 
   206     0001                     	;# 
   207     0002                     	;# 
   208     0003                     	;# 
   209     0004                     	;# 
   210     0005                     	;# 
   211     0006                     	;# 
   212     0007                     	;# 
   213     0008                     	;# 
   214     0009                     	;# 
   215     000A                     	;# 
   216     000B                     	;# 
   217     000C                     	;# 
   218     000D                     	;# 
   219     000E                     	;# 
   220     000E                     	;# 
   221     000F                     	;# 
   222     0010                     	;# 
   223     0011                     	;# 
   224     0012                     	;# 
   225     0013                     	;# 
   226     0014                     	;# 
   227     0015                     	;# 
   228     0015                     	;# 
   229     0016                     	;# 
   230     0017                     	;# 
   231     0018                     	;# 
   232     0019                     	;# 
   233     001A                     	;# 
   234     001B                     	;# 
   235     001B                     	;# 
   236     001C                     	;# 
   237     001D                     	;# 
   238     001E                     	;# 
   239     001F                     	;# 
   240     0081                     	;# 
   241     0085                     	;# 
   242     0086                     	;# 
   243     0087                     	;# 
   244     0088                     	;# 
   245     0089                     	;# 
   246     008C                     	;# 
   247     008D                     	;# 
   248     008E                     	;# 
   249     0091                     	;# 
   250     0092                     	;# 
   251     0093                     	;# 
   252     0094                     	;# 
   253     0098                     	;# 
   254     0099                     	;# 
   255     009C                     	;# 
   256     009D                     	;# 
   257     009E                     	;# 
   258     009F                     	;# 
   259     010C                     	;# 
   260     010D                     	;# 
   261     010E                     	;# 
   262     010F                     	;# 
   263     018C                     	;# 
   264     018D                     	;# 
   265     0000                     	;# 
   266     0001                     	;# 
   267     0002                     	;# 
   268     0003                     	;# 
   269     0004                     	;# 
   270     0005                     	;# 
   271     0006                     	;# 
   272     0007                     	;# 
   273     0008                     	;# 
   274     0009                     	;# 
   275     000A                     	;# 
   276     000B                     	;# 
   277     000C                     	;# 
   278     000D                     	;# 
   279     000E                     	;# 
   280     000E                     	;# 
   281     000F                     	;# 
   282     0010                     	;# 
   283     0011                     	;# 
   284     0012                     	;# 
   285     0013                     	;# 
   286     0014                     	;# 
   287     0015                     	;# 
   288     0015                     	;# 
   289     0016                     	;# 
   290     0017                     	;# 
   291     0018                     	;# 
   292     0019                     	;# 
   293     001A                     	;# 
   294     001B                     	;# 
   295     001B                     	;# 
   296     001C                     	;# 
   297     001D                     	;# 
   298     001E                     	;# 
   299     001F                     	;# 
   300     0081                     	;# 
   301     0085                     	;# 
   302     0086                     	;# 
   303     0087                     	;# 
   304     0088                     	;# 
   305     0089                     	;# 
   306     008C                     	;# 
   307     008D                     	;# 
   308     008E                     	;# 
   309     0091                     	;# 
   310     0092                     	;# 
   311     0093                     	;# 
   312     0094                     	;# 
   313     0098                     	;# 
   314     0099                     	;# 
   315     009C                     	;# 
   316     009D                     	;# 
   317     009E                     	;# 
   318     009F                     	;# 
   319     010C                     	;# 
   320     010D                     	;# 
   321     010E                     	;# 
   322     010F                     	;# 
   323     018C                     	;# 
   324     018D                     	;# 
   325     0000                     	;# 
   326     0001                     	;# 
   327     0002                     	;# 
   328     0003                     	;# 
   329     0004                     	;# 
   330     0005                     	;# 
   331     0006                     	;# 
   332     0007                     	;# 
   333     0008                     	;# 
   334     0009                     	;# 
   335     000A                     	;# 
   336     000B                     	;# 
   337     000C                     	;# 
   338     000D                     	;# 
   339     000E                     	;# 
   340     000E                     	;# 
   341     000F                     	;# 
   342     0010                     	;# 
   343     0011                     	;# 
   344     0012                     	;# 
   345     0013                     	;# 
   346     0014                     	;# 
   347     0015                     	;# 
   348     0015                     	;# 
   349     0016                     	;# 
   350     0017                     	;# 
   351     0018                     	;# 
   352     0019                     	;# 
   353     001A                     	;# 
   354     001B                     	;# 
   355     001B                     	;# 
   356     001C                     	;# 
   357     001D                     	;# 
   358     001E                     	;# 
   359     001F                     	;# 
   360     0081                     	;# 
   361     0085                     	;# 
   362     0086                     	;# 
   363     0087                     	;# 
   364     0088                     	;# 
   365     0089                     	;# 
   366     008C                     	;# 
   367     008D                     	;# 
   368     008E                     	;# 
   369     0091                     	;# 
   370     0092                     	;# 
   371     0093                     	;# 
   372     0094                     	;# 
   373     0098                     	;# 
   374     0099                     	;# 
   375     009C                     	;# 
   376     009D                     	;# 
   377     009E                     	;# 
   378     009F                     	;# 
   379     010C                     	;# 
   380     010D                     	;# 
   381     010E                     	;# 
   382     010F                     	;# 
   383     018C                     	;# 
   384     018D                     	;# 
   385                           
   386                           	psect	idataBANK0
   387     0935                     __pidataBANK0:
   388                           
   389                           ;initializer for _DC_RANGE
   390     0935  3410               	retlw	16
   391     0936  3427               	retlw	39
   392                           
   393                           ;initializer for _TIME1
   394     0937  34F0               	retlw	240
   395     0938  34D8               	retlw	216
   396     0015                     _CCPR1	set	21
   397     000E                     _TMR1	set	14
   398     001E                     _ADRESH	set	30
   399     001F                     _ADCON0bits	set	31
   400     001F                     _ADCON0	set	31
   401     0019                     _TXREG	set	25
   402     001A                     _RCREG	set	26
   403     0017                     _CCP1CON	set	23
   404     00FA                     _GO_DONE	set	250
   405     00B8                     _CCP1M0	set	184
   406     00B9                     _CCP1M1	set	185
   407     00BA                     _CCP1M2	set	186
   408     00BB                     _CCP1M3	set	187
   409     0080                     _TMR1ON	set	128
   410     0081                     _TMR1CS	set	129
   411     0084                     _T1CKPS0	set	132
   412     0085                     _T1CKPS1	set	133
   413     0064                     _TXIF	set	100
   414     00C6                     _RX9	set	198
   415     005F                     _GIE	set	95
   416     005E                     _PEIE	set	94
   417     00C7                     _SPEN	set	199
   418     00C4                     _CREN	set	196
   419     00C1                     _OERR	set	193
   420     0065                     _RCIF	set	101
   421     003A                     _RC2	set	58
   422     0060                     _TMR1IF	set	96
   423     009E                     _ADRESL	set	158
   424     009F                     _ADCON1	set	159
   425     0099                     _SPBRG	set	153
   426     0087                     _TRISCbits	set	135
   427     043A                     _TRISC2	set	1082
   428     0460                     _TMR1IE	set	1120
   429     04C6                     _TX9	set	1222
   430     04C5                     _TXEN	set	1221
   431     0465                     _RCIE	set	1125
   432     04C4                     _SYNC	set	1220
   433     04C2                     _BRGH	set	1218
   434                           
   435                           	psect	strings
   436     0800                     __pstrings:
   437     0800                     stringtab:
   438     0800                     __stringtab:
   439                           
   440                           ;	String table - string pointers are 1 byte each
   441     0800  1BFF               	btfsc	btemp+1,7
   442     0801  280A               	ljmp	stringcode
   443     0802  1383               	bcf	3,7
   444     0803  187F               	btfsc	btemp+1,0
   445     0804  1783               	bsf	3,7
   446     0805  0800               	movf	0,w
   447     0806  0A84               	incf	4,f
   448     0807  1903               	skipnz
   449     0808  0AFF               	incf	btemp+1,f
   450     0809  0008               	return
   451     080A                     stringcode:
   452     080A                     stringdir:
   453     080A  3008               	movlw	high stringdir
   454     080B  008A               	movwf	10
   455     080C  0804               	movf	4,w
   456     080D  0A84               	incf	4,f
   457     080E  0782               	addwf	2,f
   458     080F                     __stringbase:
   459     080F  3400               	retlw	0
   460     0810                     __end_of__stringtab:
   461     0810                     STR_4:
   462     0810  3453               	retlw	83	;'S'
   463     0811  3479               	retlw	121	;'y'
   464     0812  3473               	retlw	115	;'s'
   465     0813  3474               	retlw	116	;'t'
   466     0814  3465               	retlw	101	;'e'
   467     0815  346D               	retlw	109	;'m'
   468     0816  3420               	retlw	32	;' '
   469     0817  3469               	retlw	105	;'i'
   470     0818  3473               	retlw	115	;'s'
   471     0819  3420               	retlw	32	;' '
   472     081A  3472               	retlw	114	;'r'
   473     081B  3465               	retlw	101	;'e'
   474     081C  3461               	retlw	97	;'a'
   475     081D  3464               	retlw	100	;'d'
   476     081E  3479               	retlw	121	;'y'
   477     081F  340D               	retlw	13
   478     0820  340A               	retlw	10
   479     0821  3400               	retlw	0
   480     0822                     STR_1:
   481     0822  3449               	retlw	73	;'I'
   482     0823  346E               	retlw	110	;'n'
   483     0824  3476               	retlw	118	;'v'
   484     0825  3461               	retlw	97	;'a'
   485     0826  346C               	retlw	108	;'l'
   486     0827  3469               	retlw	105	;'i'
   487     0828  3464               	retlw	100	;'d'
   488     0829  3420               	retlw	32	;' '
   489     082A  3469               	retlw	105	;'i'
   490     082B  346E               	retlw	110	;'n'
   491     082C  3470               	retlw	112	;'p'
   492     082D  3475               	retlw	117	;'u'
   493     082E  3474               	retlw	116	;'t'
   494     082F  3421               	retlw	33	;'!'
   495     0830  340D               	retlw	13
   496     0831  340A               	retlw	10
   497     0832  3400               	retlw	0
   498     0833                     STR_3:
   499     0833  3452               	retlw	82	;'R'
   500     0834  3465               	retlw	101	;'e'
   501     0835  3463               	retlw	99	;'c'
   502     0836  3465               	retlw	101	;'e'
   503     0837  3469               	retlw	105	;'i'
   504     0838  3476               	retlw	118	;'v'
   505     0839  3465               	retlw	101	;'e'
   506     083A  3464               	retlw	100	;'d'
   507     083B  343A               	retlw	58	;':'
   508     083C  3420               	retlw	32	;' '
   509     083D  3425               	retlw	37	;'%'
   510     083E  3463               	retlw	99	;'c'
   511     083F  340D               	retlw	13
   512     0840  340A               	retlw	10
   513     0841  3400               	retlw	0
   514     0842                     STR_2:
   515     0842  3443               	retlw	67	;'C'
   516     0843  346F               	retlw	111	;'o'
   517     0844  346D               	retlw	109	;'m'
   518     0845  3470               	retlw	112	;'p'
   519     0846  346C               	retlw	108	;'l'
   520     0847  3465               	retlw	101	;'e'
   521     0848  3474               	retlw	116	;'t'
   522     0849  3465               	retlw	101	;'e'
   523     084A  3464               	retlw	100	;'d'
   524     084B  3421               	retlw	33	;'!'
   525     084C  340D               	retlw	13
   526     084D  340A               	retlw	10
   527     084E  3400               	retlw	0
   528                           
   529                           	psect	cinit
   530     0015                     start_initialization:	
   531                           ; #config settings
   532                           
   533     0015                     __initialization:
   534                           
   535                           ; Initialize objects allocated to BANK0
   536     0015  120A  158A  2135  120A  118A  	fcall	__pidataBANK0	;fetch initializer
   537     001A  00DC               	movwf	__pdataBANK0& (0+127)
   538     001B  120A  158A  2136  120A  118A  	fcall	__pidataBANK0+1	;fetch initializer
   539     0020  00DD               	movwf	(__pdataBANK0+1)& (0+127)
   540     0021  120A  158A  2137  120A  118A  	fcall	__pidataBANK0+2	;fetch initializer
   541     0026  00DE               	movwf	(__pdataBANK0+2)& (0+127)
   542     0027  120A  158A  2138  120A  118A  	fcall	__pidataBANK0+3	;fetch initializer
   543     002C  00DF               	movwf	(__pdataBANK0+3)& (0+127)
   544                           
   545                           ; Clear objects allocated to BANK3
   546     002D  1783               	bsf	3,7	;select IRP bank2
   547     002E  3090               	movlw	low __pbssBANK3
   548     002F  0084               	movwf	4
   549     0030  30A1               	movlw	low (__pbssBANK3+17)
   550     0031  120A  118A  27F8  120A  118A  	fcall	clear_ram0
   551                           
   552                           ; Clear objects allocated to BANK1
   553     0036  1683               	bsf	3,5	;RP0=1, select bank1
   554     0037  1303               	bcf	3,6	;RP1=0, select bank1
   555     0038  01EE               	clrf	__pbssBANK1& (0+127)
   556                           
   557                           ; Clear objects allocated to BANK0
   558     0039  1283               	bcf	3,5	;RP0=0, select bank0
   559     003A  1303               	bcf	3,6	;RP1=0, select bank0
   560     003B  01E0               	clrf	__pbssBANK0& (0+127)
   561     003C                     end_of_initialization:	
   562                           ;End of C runtime variable initialization code
   563                           
   564     003C                     __end_of__initialization:
   565     003C  0183               	clrf	3
   566     003D  120A  158A  2ABD   	ljmp	_main	;jump to C main() function
   567                           
   568                           	psect	bssBANK0
   569     0060                     __pbssBANK0:
   570     0060                     _command:
   571     0060                     	ds	1
   572                           
   573                           	psect	dataBANK0
   574     005C                     __pdataBANK0:
   575     005C                     _DC_RANGE:
   576     005C                     	ds	2
   577     005E                     _TIME1:
   578     005E                     	ds	2
   579                           
   580                           	psect	bssBANK1
   581     00EE                     __pbssBANK1:
   582     00EE                     _mode:
   583     00EE                     	ds	1
   584                           
   585                           	psect	bssBANK3
   586     0190                     __pbssBANK3:
   587     0190                     _rcvStr:
   588     0190                     	ds	17
   589                           
   590                           	psect	clrtext
   591     07F8                     clear_ram0:	
   592                           ;	Called with FSR containing the base address, and
   593                           ;	W with the last address+1
   594                           
   595     07F8  0064               	clrwdt	;clear the watchdog before getting into this loop
   596     07F9                     clrloop0:
   597     07F9  0180               	clrf	0	;clear RAM location pointed to by FSR
   598     07FA  0A84               	incf	4,f	;increment pointer
   599     07FB  0604               	xorwf	4,w	;XOR with final address
   600     07FC  1903               	btfsc	3,2	;have we reached the end yet?
   601     07FD  3400               	retlw	0	;all done for this memory range, return
   602     07FE  0604               	xorwf	4,w	;XOR again to restore value
   603     07FF  2FF9               	goto	clrloop0	;do the next byte
   604                           
   605                           	psect	cstackBANK3
   606     01A1                     __pcstackBANK3:
   607     01A1                     PosControl_Pot@adc_val:
   608                           
   609                           ; 4 bytes @ 0x0
   610     01A1                     	ds	4
   611     01A5                     PosControl_Pot@adc:
   612                           
   613                           ; 2 bytes @ 0x4
   614     01A5                     	ds	2
   615     01A7                     PosControl_Pot@adc_angle:
   616                           
   617                           ; 1 bytes @ 0x6
   618     01A7                     	ds	1
   619                           
   620                           	psect	cstackBANK1
   621     00A0                     __pcstackBANK1:
   622     00A0                     ??_UART_Init:
   623     00A0                     ??_ADC_Init:	
   624                           ; 1 bytes @ 0x0
   625                           
   626     00A0                     ??_UART_sendChar:	
   627                           ; 1 bytes @ 0x0
   628                           
   629     00A0                     ??_Timer1_Init:	
   630                           ; 1 bytes @ 0x0
   631                           
   632     00A0                     ?_ADC_Read:	
   633                           ; 1 bytes @ 0x0
   634                           
   635     00A0                     ?__Umul8_16:	
   636                           ; 2 bytes @ 0x0
   637                           
   638     00A0                     ?___wmul:	
   639                           ; 2 bytes @ 0x0
   640                           
   641     00A0                     ?___lwdiv:	
   642                           ; 2 bytes @ 0x0
   643                           
   644     00A0                     UART_sendChar@data:	
   645                           ; 2 bytes @ 0x0
   646                           
   647     00A0                     __Umul8_16@multiplicand:	
   648                           ; 1 bytes @ 0x0
   649                           
   650     00A0                     ___wmul@multiplier:	
   651                           ; 1 bytes @ 0x0
   652                           
   653     00A0                     ___lwdiv@divisor:	
   654                           ; 2 bytes @ 0x0
   655                           
   656                           
   657                           ; 2 bytes @ 0x0
   658     00A0                     	ds	1
   659     00A1                     ?_UART_sendString:
   660     00A1                     UART_sendString@str:	
   661                           ; 1 bytes @ 0x1
   662                           
   663                           
   664                           ; 2 bytes @ 0x1
   665     00A1                     	ds	1
   666     00A2                     ??_ADC_Read:
   667     00A2                     ??__Umul8_16:	
   668                           ; 1 bytes @ 0x2
   669                           
   670     00A2                     ___wmul@multiplicand:	
   671                           ; 1 bytes @ 0x2
   672                           
   673     00A2                     ___lwdiv@dividend:	
   674                           ; 2 bytes @ 0x2
   675                           
   676                           
   677                           ; 2 bytes @ 0x2
   678     00A2                     	ds	1
   679     00A3                     ??_UART_sendString:
   680     00A3                     ADC_Read@ANC:	
   681                           ; 1 bytes @ 0x3
   682                           
   683                           
   684                           ; 1 bytes @ 0x3
   685     00A3                     	ds	1
   686     00A4                     ??___wmul:
   687     00A4                     ??___lwdiv:	
   688                           ; 1 bytes @ 0x4
   689                           
   690     00A4                     ___wmul@product:	
   691                           ; 1 bytes @ 0x4
   692                           
   693     00A4                     ___lwdiv@quotient:	
   694                           ; 2 bytes @ 0x4
   695                           
   696     00A4                     __Umul8_16@product:	
   697                           ; 2 bytes @ 0x4
   698                           
   699                           
   700                           ; 2 bytes @ 0x4
   701     00A4                     	ds	2
   702     00A6                     ?___xxtofl:
   703     00A6                     ___lwdiv@counter:	
   704                           ; 4 bytes @ 0x6
   705                           
   706     00A6                     __Umul8_16@word_mpld:	
   707                           ; 1 bytes @ 0x6
   708                           
   709     00A6                     ___xxtofl@val:	
   710                           ; 2 bytes @ 0x6
   711                           
   712                           
   713                           ; 4 bytes @ 0x6
   714     00A6                     	ds	1
   715     00A7                     ??_Compare_Init:
   716                           
   717                           ; 1 bytes @ 0x7
   718     00A7                     	ds	1
   719     00A8                     __Umul8_16@multiplier:
   720                           
   721                           ; 1 bytes @ 0x8
   722     00A8                     	ds	1
   723     00A9                     ??_Servo_Init:
   724                           
   725                           ; 1 bytes @ 0x9
   726     00A9                     	ds	1
   727     00AA                     ??___xxtofl:
   728                           
   729                           ; 1 bytes @ 0xA
   730     00AA                     	ds	4
   731     00AE                     ___xxtofl@sign:
   732                           
   733                           ; 1 bytes @ 0xE
   734     00AE                     	ds	1
   735     00AF                     ___xxtofl@exp:
   736                           
   737                           ; 1 bytes @ 0xF
   738     00AF                     	ds	1
   739     00B0                     ___xxtofl@arg:
   740                           
   741                           ; 4 bytes @ 0x10
   742     00B0                     	ds	4
   743     00B4                     ?___fldiv:
   744     00B4                     ___fldiv@a:	
   745                           ; 4 bytes @ 0x14
   746                           
   747                           
   748                           ; 4 bytes @ 0x14
   749     00B4                     	ds	4
   750     00B8                     ___fldiv@b:
   751                           
   752                           ; 4 bytes @ 0x18
   753     00B8                     	ds	4
   754     00BC                     ??___fldiv:
   755                           
   756                           ; 1 bytes @ 0x1C
   757     00BC                     	ds	5
   758     00C1                     ___fldiv@rem:
   759                           
   760                           ; 4 bytes @ 0x21
   761     00C1                     	ds	4
   762     00C5                     ___fldiv@sign:
   763                           
   764                           ; 1 bytes @ 0x25
   765     00C5                     	ds	1
   766     00C6                     ___fldiv@new_exp:
   767                           
   768                           ; 2 bytes @ 0x26
   769     00C6                     	ds	2
   770     00C8                     ___fldiv@grs:
   771                           
   772                           ; 4 bytes @ 0x28
   773     00C8                     	ds	4
   774     00CC                     ___fldiv@bexp:
   775                           
   776                           ; 1 bytes @ 0x2C
   777     00CC                     	ds	1
   778     00CD                     ___fldiv@aexp:
   779                           
   780                           ; 1 bytes @ 0x2D
   781     00CD                     	ds	1
   782     00CE                     ?___fltol:
   783     00CE                     ?___flmul:	
   784                           ; 4 bytes @ 0x2E
   785                           
   786     00CE                     ___fltol@f1:	
   787                           ; 4 bytes @ 0x2E
   788                           
   789     00CE                     ___flmul@b:	
   790                           ; 4 bytes @ 0x2E
   791                           
   792                           
   793                           ; 4 bytes @ 0x2E
   794     00CE                     	ds	4
   795     00D2                     ??___fltol:
   796     00D2                     ___flmul@a:	
   797                           ; 1 bytes @ 0x32
   798                           
   799                           
   800                           ; 4 bytes @ 0x32
   801     00D2                     	ds	4
   802     00D6                     ??___flmul:
   803     00D6                     ___fltol@sign1:	
   804                           ; 1 bytes @ 0x36
   805                           
   806                           
   807                           ; 1 bytes @ 0x36
   808     00D6                     	ds	1
   809     00D7                     ___fltol@exp1:
   810                           
   811                           ; 1 bytes @ 0x37
   812     00D7                     	ds	1
   813     00D8                     ??_ServoAngle:
   814                           
   815                           ; 1 bytes @ 0x38
   816     00D8                     	ds	3
   817     00DB                     ___flmul@sign:
   818                           
   819                           ; 1 bytes @ 0x3B
   820     00DB                     	ds	1
   821     00DC                     ___flmul@grs:
   822                           
   823                           ; 4 bytes @ 0x3C
   824     00DC                     	ds	4
   825     00E0                     ___flmul@aexp:
   826     00E0                     ServoAngle@dc:	
   827                           ; 1 bytes @ 0x40
   828                           
   829                           
   830                           ; 2 bytes @ 0x40
   831     00E0                     	ds	1
   832     00E1                     ___flmul@bexp:
   833                           
   834                           ; 1 bytes @ 0x41
   835     00E1                     	ds	1
   836     00E2                     ServoAngle@angle:
   837     00E2                     ___flmul@prod:	
   838                           ; 1 bytes @ 0x42
   839                           
   840                           
   841                           ; 4 bytes @ 0x42
   842     00E2                     	ds	4
   843     00E6                     ___flmul@temp:
   844                           
   845                           ; 2 bytes @ 0x46
   846     00E6                     	ds	2
   847     00E8                     ??_PosControl_Pot:
   848                           
   849                           ; 1 bytes @ 0x48
   850     00E8                     	ds	3
   851     00EB                     ??_main:
   852                           
   853                           ; 1 bytes @ 0x4B
   854     00EB                     	ds	3
   855                           
   856                           	psect	cstackCOMMON
   857     0070                     __pcstackCOMMON:
   858     0070                     ?_ServoAngle:
   859     0070                     ?_UART_Init:	
   860                           ; 1 bytes @ 0x0
   861                           
   862     0070                     ?_ADC_Init:	
   863                           ; 1 bytes @ 0x0
   864                           
   865     0070                     ?_Servo_Init:	
   866                           ; 1 bytes @ 0x0
   867                           
   868     0070                     ?_UART_Pos:	
   869                           ; 1 bytes @ 0x0
   870                           
   871     0070                     ?_PosControl_Pot:	
   872                           ; 1 bytes @ 0x0
   873                           
   874     0070                     ?_ISR:	
   875                           ; 1 bytes @ 0x0
   876                           
   877     0070                     ?_main:	
   878                           ; 1 bytes @ 0x0
   879                           
   880     0070                     ?_UART_sendChar:	
   881                           ; 1 bytes @ 0x0
   882                           
   883     0070                     ?_Timer1_Init:	
   884                           ; 1 bytes @ 0x0
   885                           
   886     0070                     ?_Compare_Init:	
   887                           ; 1 bytes @ 0x0
   888                           
   889     0070                     ?i1_UART_sendChar:	
   890                           ; 1 bytes @ 0x0
   891                           
   892     0070                     ??i1_UART_sendChar:	
   893                           ; 1 bytes @ 0x0
   894                           
   895     0070                     ?i1_ServoAngle:	
   896                           ; 1 bytes @ 0x0
   897                           
   898     0070                     ?_sprintf:	
   899                           ; 1 bytes @ 0x0
   900                           
   901     0070                     ?i1___wmul:	
   902                           ; 2 bytes @ 0x0
   903                           
   904     0070                     ?i1___lwdiv:	
   905                           ; 2 bytes @ 0x0
   906                           
   907     0070                     sprintf@f:	
   908                           ; 2 bytes @ 0x0
   909                           
   910     0070                     i1UART_sendChar@data:	
   911                           ; 1 bytes @ 0x0
   912                           
   913     0070                     i1___wmul@multiplier:	
   914                           ; 1 bytes @ 0x0
   915                           
   916     0070                     i1___lwdiv@divisor:	
   917                           ; 2 bytes @ 0x0
   918                           
   919                           
   920                           ; 2 bytes @ 0x0
   921     0070                     	ds	1
   922     0071                     ?i1_UART_sendString:
   923     0071                     i1UART_sendString@str:	
   924                           ; 1 bytes @ 0x1
   925                           
   926                           
   927                           ; 2 bytes @ 0x1
   928     0071                     	ds	1
   929     0072                     i1___wmul@multiplicand:
   930     0072                     i1___lwdiv@dividend:	
   931                           ; 2 bytes @ 0x2
   932                           
   933                           
   934                           ; 2 bytes @ 0x2
   935     0072                     	ds	1
   936     0073                     ??_sprintf:
   937     0073                     ??i1_UART_sendString:	
   938                           ; 1 bytes @ 0x3
   939                           
   940                           
   941                           ; 1 bytes @ 0x3
   942     0073                     	ds	1
   943     0074                     ??i1___wmul:
   944     0074                     ??i1___lwdiv:	
   945                           ; 1 bytes @ 0x4
   946                           
   947     0074                     i1___wmul@product:	
   948                           ; 1 bytes @ 0x4
   949                           
   950     0074                     i1___lwdiv@quotient:	
   951                           ; 2 bytes @ 0x4
   952                           
   953                           
   954                           ; 2 bytes @ 0x4
   955     0074                     	ds	1
   956     0075                     sprintf@ap:
   957                           
   958                           ; 1 bytes @ 0x5
   959     0075                     	ds	1
   960     0076                     ?i1___xxtofl:
   961     0076                     sprintf@c:	
   962                           ; 4 bytes @ 0x6
   963                           
   964     0076                     i1___lwdiv@counter:	
   965                           ; 1 bytes @ 0x6
   966                           
   967     0076                     i1___xxtofl@val:	
   968                           ; 1 bytes @ 0x6
   969                           
   970                           
   971                           ; 4 bytes @ 0x6
   972     0076                     	ds	1
   973     0077                     sprintf@sp:
   974                           
   975                           ; 1 bytes @ 0x7
   976     0077                     	ds	3
   977     007A                     ??i1___xxtofl:
   978                           
   979                           ; 1 bytes @ 0xA
   980     007A                     	ds	4
   981     007E                     ??_UART_Pos:
   982                           
   983                           	psect	cstackBANK0
   984     0020                     __pcstackBANK0:	
   985                           ; 1 bytes @ 0xE
   986                           
   987     0020                     i1___xxtofl@sign:
   988                           
   989                           ; 1 bytes @ 0x0
   990     0020                     	ds	1
   991     0021                     i1___xxtofl@exp:
   992                           
   993                           ; 1 bytes @ 0x1
   994     0021                     	ds	1
   995     0022                     i1___xxtofl@arg:
   996                           
   997                           ; 4 bytes @ 0x2
   998     0022                     	ds	4
   999     0026                     ?i1___fldiv:
  1000     0026                     i1___fldiv@a:	
  1001                           ; 4 bytes @ 0x6
  1002                           
  1003                           
  1004                           ; 4 bytes @ 0x6
  1005     0026                     	ds	4
  1006     002A                     i1___fldiv@b:
  1007                           
  1008                           ; 4 bytes @ 0xA
  1009     002A                     	ds	4
  1010     002E                     ??i1___fldiv:
  1011                           
  1012                           ; 1 bytes @ 0xE
  1013     002E                     	ds	5
  1014     0033                     i1___fldiv@rem:
  1015                           
  1016                           ; 4 bytes @ 0x13
  1017     0033                     	ds	4
  1018     0037                     i1___fldiv@sign:
  1019                           
  1020                           ; 1 bytes @ 0x17
  1021     0037                     	ds	1
  1022     0038                     i1___fldiv@new_exp:
  1023                           
  1024                           ; 2 bytes @ 0x18
  1025     0038                     	ds	2
  1026     003A                     i1___fldiv@grs:
  1027                           
  1028                           ; 4 bytes @ 0x1A
  1029     003A                     	ds	4
  1030     003E                     i1___fldiv@bexp:
  1031                           
  1032                           ; 1 bytes @ 0x1E
  1033     003E                     	ds	1
  1034     003F                     i1___fldiv@aexp:
  1035                           
  1036                           ; 1 bytes @ 0x1F
  1037     003F                     	ds	1
  1038     0040                     ?i1___fltol:
  1039     0040                     i1___fltol@f1:	
  1040                           ; 4 bytes @ 0x20
  1041                           
  1042                           
  1043                           ; 4 bytes @ 0x20
  1044     0040                     	ds	4
  1045     0044                     ??i1___fltol:
  1046                           
  1047                           ; 1 bytes @ 0x24
  1048     0044                     	ds	4
  1049     0048                     i1___fltol@sign1:
  1050                           
  1051                           ; 1 bytes @ 0x28
  1052     0048                     	ds	1
  1053     0049                     i1___fltol@exp1:
  1054                           
  1055                           ; 1 bytes @ 0x29
  1056     0049                     	ds	1
  1057     004A                     ??i1_ServoAngle:
  1058                           
  1059                           ; 1 bytes @ 0x2A
  1060     004A                     	ds	8
  1061     0052                     i1ServoAngle@dc:
  1062                           
  1063                           ; 2 bytes @ 0x32
  1064     0052                     	ds	2
  1065     0054                     i1ServoAngle@angle:
  1066                           
  1067                           ; 1 bytes @ 0x34
  1068     0054                     	ds	1
  1069     0055                     UART_Pos@com:
  1070                           
  1071                           ; 1 bytes @ 0x35
  1072     0055                     	ds	1
  1073     0056                     ??_ISR:
  1074                           
  1075                           ; 1 bytes @ 0x36
  1076     0056                     	ds	6
  1077                           
  1078                           	psect	maintext
  1079     0ABD                     __pmaintext:	
  1080 ;;
  1081 ;;Main: autosize = 0, tempsize = 3, incstack = 0, save=0
  1082 ;;
  1083 ;; *************** function _main *****************
  1084 ;; Defined at:
  1085 ;;		line 97 in file "ServoMotor_Compare.c"
  1086 ;; Parameters:    Size  Location     Type
  1087 ;;		None
  1088 ;; Auto vars:     Size  Location     Type
  1089 ;;		None
  1090 ;; Return value:  Size  Location     Type
  1091 ;;                  1    wreg      void 
  1092 ;; Registers used:
  1093 ;;		wreg, fsr0l, fsr0h, status,2, status,0, btemp+1, pclath, cstack
  1094 ;; Tracked objects:
  1095 ;;		On entry : B00/0
  1096 ;;		On exit  : 0/0
  1097 ;;		Unchanged: 0/0
  1098 ;; Data sizes:     COMMON   BANK0   BANK1   BANK3   BANK2
  1099 ;;      Params:         0       0       0       0       0
  1100 ;;      Locals:         0       0       0       0       0
  1101 ;;      Temps:          0       0       3       0       0
  1102 ;;      Totals:         0       0       3       0       0
  1103 ;;Total ram usage:        3 bytes
  1104 ;; Hardware stack levels required when called: 7
  1105 ;; This function calls:
  1106 ;;		_ADC_Init
  1107 ;;		_PosControl_Pot
  1108 ;;		_Servo_Init
  1109 ;;		_UART_Init
  1110 ;;		_UART_sendString
  1111 ;; This function is called by:
  1112 ;;		Startup code after reset
  1113 ;; This function uses a non-reentrant model
  1114 ;;
  1115                           
  1116     0ABD                     _main:	
  1117                           ;psect for function _main
  1118                           
  1119     0ABD                     l2686:	
  1120                           ;incstack = 0
  1121                           ; Regs used in _main: [wreg-fsr0h+status,2+status,0+btemp+1+pclath+cstack]
  1122                           
  1123                           
  1124                           ;ServoMotor_Compare.c: 99:     UART_Init();
  1125     0ABD  120A  118A  27DD  120A  158A  	fcall	_UART_Init
  1126                           
  1127                           ;ServoMotor_Compare.c: 100:     ADC_Init();
  1128     0AC2  120A  158A  2139  120A  158A  	fcall	_ADC_Init
  1129     0AC7                     l2688:
  1130                           
  1131                           ;ServoMotor_Compare.c: 101:     Servo_Init();
  1132     0AC7  120A  158A  216C  120A  158A  	fcall	_Servo_Init
  1133     0ACC                     l2690:
  1134                           
  1135                           ;ServoMotor_Compare.c: 102:     _delay((unsigned long)((50)*(16000000/4000.0)));
  1136     0ACC  3002               	movlw	2
  1137     0ACD  1683               	bsf	3,5	;RP0=1, select bank1
  1138     0ACE  1303               	bcf	3,6	;RP1=0, select bank1
  1139     0ACF  00ED               	movwf	(??_main^(0+128)+2)
  1140     0AD0  3004               	movlw	4
  1141     0AD1  00EC               	movwf	(??_main^(0+128)+1)
  1142     0AD2  30B9               	movlw	185
  1143     0AD3  00EB               	movwf	??_main^(0+128)
  1144     0AD4                     u3857:
  1145     0AD4  0BEB               	decfsz	??_main^(0+128),f
  1146     0AD5  2AD4               	goto	u3857
  1147     0AD6  0BEC               	decfsz	(??_main^(0+128)+1),f
  1148     0AD7  2AD4               	goto	u3857
  1149     0AD8  0BED               	decfsz	(??_main^(0+128)+2),f
  1150     0AD9  2AD4               	goto	u3857
  1151     0ADA  2ADB               	nop2
  1152     0ADB                     l2692:
  1153                           
  1154                           ;ServoMotor_Compare.c: 103:     UART_sendString("System is ready\r\n");
  1155     0ADB  3001               	movlw	(low ((STR_4-__stringbase)| (0+32768)))& (0+255)
  1156     0ADC  1683               	bsf	3,5	;RP0=1, select bank1
  1157     0ADD  1303               	bcf	3,6	;RP1=0, select bank1
  1158     0ADE  00A1               	movwf	UART_sendString@str^(0+128)
  1159     0ADF  3080               	movlw	128
  1160     0AE0  00A2               	movwf	(UART_sendString@str+1)^(0+128)
  1161     0AE1  120A  158A  2218  120A  158A  	fcall	_UART_sendString
  1162     0AE6                     l2694:
  1163                           
  1164                           ;ServoMotor_Compare.c: 106:     {;ServoMotor_Compare.c: 107:         if(mode == 0){
  1165     0AE6  1683               	bsf	3,5	;RP0=1, select bank1
  1166     0AE7  1303               	bcf	3,6	;RP1=0, select bank1
  1167     0AE8  086E               	movf	_mode^(0+128),w
  1168     0AE9  1D03               	btfss	3,2
  1169     0AEA  2AEC               	goto	u3841
  1170     0AEB  2AED               	goto	u3840
  1171     0AEC                     u3841:
  1172     0AEC  2AE6               	goto	l2694
  1173     0AED                     u3840:
  1174     0AED                     l2696:
  1175                           
  1176                           ;ServoMotor_Compare.c: 108:             PosControl_Pot();
  1177     0AED  120A  158A  269E  120A  158A  	fcall	_PosControl_Pot
  1178     0AF2  2AE6               	goto	l2694
  1179     0AF3  120A  118A  2812   	ljmp	start
  1180     0AF6                     __end_of_main:
  1181                           
  1182                           	psect	text1
  1183     0A18                     __ptext1:	
  1184 ;; *************** function _UART_sendString *****************
  1185 ;; Defined at:
  1186 ;;		line 42 in file "UART.c"
  1187 ;; Parameters:    Size  Location     Type
  1188 ;;  str             2    1[BANK1 ] PTR unsigned char 
  1189 ;;		 -> STR_4(18), rcvStr(17), STR_2(13), STR_1(17), 
  1190 ;; Auto vars:     Size  Location     Type
  1191 ;;		None
  1192 ;; Return value:  Size  Location     Type
  1193 ;;                  1    wreg      void 
  1194 ;; Registers used:
  1195 ;;		wreg, fsr0l, fsr0h, status,2, status,0, btemp+1, pclath, cstack
  1196 ;; Tracked objects:
  1197 ;;		On entry : 0/0
  1198 ;;		On exit  : 0/0
  1199 ;;		Unchanged: 0/0
  1200 ;; Data sizes:     COMMON   BANK0   BANK1   BANK3   BANK2
  1201 ;;      Params:         0       0       2       0       0
  1202 ;;      Locals:         0       0       0       0       0
  1203 ;;      Temps:          0       0       0       0       0
  1204 ;;      Totals:         0       0       2       0       0
  1205 ;;Total ram usage:        2 bytes
  1206 ;; Hardware stack levels used: 1
  1207 ;; Hardware stack levels required when called: 5
  1208 ;; This function calls:
  1209 ;;		_UART_sendChar
  1210 ;; This function is called by:
  1211 ;;		_main
  1212 ;; This function uses a non-reentrant model
  1213 ;;
  1214                           
  1215     0A18                     _UART_sendString:	
  1216                           ;psect for function _UART_sendString
  1217                           
  1218     0A18                     l2574:	
  1219                           ;incstack = 0
  1220                           ; Regs used in _UART_sendString: [wreg-fsr0h+status,2+status,0+btemp+1+pclath+cstack]
  1221                           
  1222                           
  1223                           ;UART.c: 42: void UART_sendString(char* str);UART.c: 43: {;UART.c: 44:    while (*str)
  1224     0A18  2A37               	goto	l2580
  1225     0A19                     l2576:
  1226                           
  1227                           ;UART.c: 45:    {;UART.c: 46:        UART_sendChar(*str++);
  1228     0A19  1683               	bsf	3,5	;RP0=1, select bank1
  1229     0A1A  1303               	bcf	3,6	;RP1=0, select bank1
  1230     0A1B  0822               	movf	(UART_sendString@str+1)^(0+128),w
  1231     0A1C  1283               	bcf	3,5	;RP0=0, select bank0
  1232     0A1D  1303               	bcf	3,6	;RP1=0, select bank0
  1233     0A1E  00FF               	movwf	btemp+1
  1234     0A1F  1683               	bsf	3,5	;RP0=1, select bank1
  1235     0A20  1303               	bcf	3,6	;RP1=0, select bank1
  1236     0A21  0821               	movf	UART_sendString@str^(0+128),w
  1237     0A22  0084               	movwf	4
  1238     0A23  1283               	bcf	3,5	;RP0=0, select bank0
  1239     0A24  1303               	bcf	3,6	;RP1=0, select bank0
  1240     0A25  120A  158A  2000  120A  158A  	fcall	stringtab
  1241     0A2A  120A  158A  214C  120A  158A  	fcall	_UART_sendChar
  1242     0A2F                     l2578:
  1243     0A2F  3001               	movlw	1
  1244     0A30  1683               	bsf	3,5	;RP0=1, select bank1
  1245     0A31  1303               	bcf	3,6	;RP1=0, select bank1
  1246     0A32  07A1               	addwf	UART_sendString@str^(0+128),f
  1247     0A33  1803               	skipnc
  1248     0A34  0AA2               	incf	(UART_sendString@str+1)^(0+128),f
  1249     0A35  3000               	movlw	0
  1250     0A36  07A2               	addwf	(UART_sendString@str+1)^(0+128),f
  1251     0A37                     l2580:
  1252                           
  1253                           ;UART.c: 44:    while (*str)
  1254     0A37  1683               	bsf	3,5	;RP0=1, select bank1
  1255     0A38  1303               	bcf	3,6	;RP1=0, select bank1
  1256     0A39  0822               	movf	(UART_sendString@str+1)^(0+128),w
  1257     0A3A  1283               	bcf	3,5	;RP0=0, select bank0
  1258     0A3B  1303               	bcf	3,6	;RP1=0, select bank0
  1259     0A3C  00FF               	movwf	btemp+1
  1260     0A3D  1683               	bsf	3,5	;RP0=1, select bank1
  1261     0A3E  1303               	bcf	3,6	;RP1=0, select bank1
  1262     0A3F  0821               	movf	UART_sendString@str^(0+128),w
  1263     0A40  0084               	movwf	4
  1264     0A41  1283               	bcf	3,5	;RP0=0, select bank0
  1265     0A42  1303               	bcf	3,6	;RP1=0, select bank0
  1266     0A43  120A  158A  2000  120A  158A  	fcall	stringtab
  1267     0A48  3A00               	xorlw	0
  1268     0A49  1D03               	skipz
  1269     0A4A  2A4C               	goto	u3771
  1270     0A4B  2A4D               	goto	u3770
  1271     0A4C                     u3771:
  1272     0A4C  2A19               	goto	l2576
  1273     0A4D                     u3770:
  1274     0A4D                     l130:
  1275     0A4D  0008               	return
  1276     0A4E                     __end_of_UART_sendString:
  1277                           
  1278                           	psect	text2
  1279     094C                     __ptext2:	
  1280 ;; *************** function _UART_sendChar *****************
  1281 ;; Defined at:
  1282 ;;		line 28 in file "UART.c"
  1283 ;; Parameters:    Size  Location     Type
  1284 ;;  data            1    wreg     unsigned char 
  1285 ;; Auto vars:     Size  Location     Type
  1286 ;;  data            1    0[BANK1 ] unsigned char 
  1287 ;; Return value:  Size  Location     Type
  1288 ;;                  1    wreg      void 
  1289 ;; Registers used:
  1290 ;;		wreg
  1291 ;; Tracked objects:
  1292 ;;		On entry : 0/0
  1293 ;;		On exit  : 0/0
  1294 ;;		Unchanged: 0/0
  1295 ;; Data sizes:     COMMON   BANK0   BANK1   BANK3   BANK2
  1296 ;;      Params:         0       0       0       0       0
  1297 ;;      Locals:         0       0       1       0       0
  1298 ;;      Temps:          0       0       0       0       0
  1299 ;;      Totals:         0       0       1       0       0
  1300 ;;Total ram usage:        1 bytes
  1301 ;; Hardware stack levels used: 1
  1302 ;; Hardware stack levels required when called: 4
  1303 ;; This function calls:
  1304 ;;		Nothing
  1305 ;; This function is called by:
  1306 ;;		_UART_sendString
  1307 ;; This function uses a non-reentrant model
  1308 ;;
  1309                           
  1310     094C                     _UART_sendChar:	
  1311                           ;psect for function _UART_sendChar
  1312                           
  1313                           
  1314                           ;incstack = 0
  1315                           ; Regs used in _UART_sendChar: [wreg]
  1316                           ;UART_sendChar@data stored from wreg
  1317     094C  1683               	bsf	3,5	;RP0=1, select bank1
  1318     094D  1303               	bcf	3,6	;RP1=0, select bank1
  1319     094E  00A0               	movwf	UART_sendChar@data^(0+128)
  1320     094F                     l2358:
  1321     094F                     l115:	
  1322                           ;UART.c: 28: void UART_sendChar(char data);UART.c: 29: {;UART.c: 30:    while (!TXIF);
  1323                           
  1324     094F  1283               	bcf	3,5	;RP0=0, select bank0
  1325     0950  1E0C               	btfss	12,4	;volatile
  1326     0951  2953               	goto	u3301
  1327     0952  2954               	goto	u3300
  1328     0953                     u3301:
  1329     0953  294F               	goto	l115
  1330     0954                     u3300:
  1331     0954                     l2360:
  1332                           
  1333                           ;UART.c: 31:    TXREG = data;
  1334     0954  1683               	bsf	3,5	;RP0=1, select bank1
  1335     0955  1303               	bcf	3,6	;RP1=0, select bank1
  1336     0956  0820               	movf	UART_sendChar@data^(0+128),w
  1337     0957  1283               	bcf	3,5	;RP0=0, select bank0
  1338     0958  1303               	bcf	3,6	;RP1=0, select bank0
  1339     0959  0099               	movwf	25	;volatile
  1340     095A                     l118:
  1341     095A  0008               	return
  1342     095B                     __end_of_UART_sendChar:
  1343                           
  1344                           	psect	text3
  1345     07DD                     __ptext3:	
  1346 ;; *************** function _UART_Init *****************
  1347 ;; Defined at:
  1348 ;;		line 4 in file "UART.c"
  1349 ;; Parameters:    Size  Location     Type
  1350 ;;		None
  1351 ;; Auto vars:     Size  Location     Type
  1352 ;;		None
  1353 ;; Return value:  Size  Location     Type
  1354 ;;                  1    wreg      void 
  1355 ;; Registers used:
  1356 ;;		wreg
  1357 ;; Tracked objects:
  1358 ;;		On entry : 0/0
  1359 ;;		On exit  : 0/0
  1360 ;;		Unchanged: 0/0
  1361 ;; Data sizes:     COMMON   BANK0   BANK1   BANK3   BANK2
  1362 ;;      Params:         0       0       0       0       0
  1363 ;;      Locals:         0       0       0       0       0
  1364 ;;      Temps:          0       0       0       0       0
  1365 ;;      Totals:         0       0       0       0       0
  1366 ;;Total ram usage:        0 bytes
  1367 ;; Hardware stack levels used: 1
  1368 ;; Hardware stack levels required when called: 4
  1369 ;; This function calls:
  1370 ;;		Nothing
  1371 ;; This function is called by:
  1372 ;;		_main
  1373 ;; This function uses a non-reentrant model
  1374 ;;
  1375                           
  1376     07DD                     _UART_Init:	
  1377                           ;psect for function _UART_Init
  1378                           
  1379     07DD                     l2624:	
  1380                           ;incstack = 0
  1381                           ; Regs used in _UART_Init: [wreg]
  1382                           
  1383                           
  1384                           ;UART.c: 7:     TRISCbits.TRISC6 = 1;
  1385     07DD  1683               	bsf	3,5	;RP0=1, select bank1
  1386     07DE  1303               	bcf	3,6	;RP1=0, select bank1
  1387     07DF  1707               	bsf	7,6	;volatile
  1388                           
  1389                           ;UART.c: 8:     TRISCbits.TRISC7 = 1;
  1390     07E0  1787               	bsf	7,7	;volatile
  1391     07E1                     l2626:
  1392                           
  1393                           ;UART.c: 10:     SPBRG = ((16000000 / 16) / 9600) - 1;
  1394     07E1  3067               	movlw	103
  1395     07E2  0099               	movwf	25	;volatile
  1396     07E3                     l2628:
  1397                           
  1398                           ;UART.c: 11:     BRGH = 1;
  1399     07E3  1518               	bsf	24,2	;volatile
  1400     07E4                     l2630:
  1401                           
  1402                           ;UART.c: 13:     SYNC = 0;
  1403     07E4  1218               	bcf	24,4	;volatile
  1404     07E5                     l2632:
  1405                           
  1406                           ;UART.c: 14:     SPEN = 1;
  1407     07E5  1283               	bcf	3,5	;RP0=0, select bank0
  1408     07E6  1303               	bcf	3,6	;RP1=0, select bank0
  1409     07E7  1798               	bsf	24,7	;volatile
  1410     07E8                     l2634:
  1411                           
  1412                           ;UART.c: 16:     RCIE = 1;
  1413     07E8  1683               	bsf	3,5	;RP0=1, select bank1
  1414     07E9  1303               	bcf	3,6	;RP1=0, select bank1
  1415     07EA  168C               	bsf	12,5	;volatile
  1416     07EB                     l2636:
  1417                           
  1418                           ;UART.c: 17:     PEIE = 1;
  1419     07EB  170B               	bsf	11,6	;volatile
  1420     07EC                     l2638:
  1421                           
  1422                           ;UART.c: 18:     GIE = 1;
  1423     07EC  178B               	bsf	11,7	;volatile
  1424     07ED                     l2640:
  1425                           
  1426                           ;UART.c: 20:     TXEN = 1;
  1427     07ED  1698               	bsf	24,5	;volatile
  1428     07EE                     l2642:
  1429                           
  1430                           ;UART.c: 21:     CREN = 1;
  1431     07EE  1283               	bcf	3,5	;RP0=0, select bank0
  1432     07EF  1303               	bcf	3,6	;RP1=0, select bank0
  1433     07F0  1618               	bsf	24,4	;volatile
  1434     07F1                     l2644:
  1435                           
  1436                           ;UART.c: 23:     TX9 = 0;
  1437     07F1  1683               	bsf	3,5	;RP0=1, select bank1
  1438     07F2  1303               	bcf	3,6	;RP1=0, select bank1
  1439     07F3  1318               	bcf	24,6	;volatile
  1440     07F4                     l2646:
  1441                           
  1442                           ;UART.c: 24:     RX9 = 0;
  1443     07F4  1283               	bcf	3,5	;RP0=0, select bank0
  1444     07F5  1303               	bcf	3,6	;RP1=0, select bank0
  1445     07F6  1318               	bcf	24,6	;volatile
  1446     07F7                     l112:
  1447     07F7  0008               	return
  1448     07F8                     __end_of_UART_Init:
  1449                           
  1450                           	psect	text4
  1451     096C                     __ptext4:	
  1452 ;; *************** function _Servo_Init *****************
  1453 ;; Defined at:
  1454 ;;		line 34 in file "XC8_Servo_Compare.c"
  1455 ;; Parameters:    Size  Location     Type
  1456 ;;		None
  1457 ;; Auto vars:     Size  Location     Type
  1458 ;;		None
  1459 ;; Return value:  Size  Location     Type
  1460 ;;                  1    wreg      void 
  1461 ;; Registers used:
  1462 ;;		wreg, status,2, status,0, btemp+1, pclath, cstack
  1463 ;; Tracked objects:
  1464 ;;		On entry : 0/0
  1465 ;;		On exit  : 0/0
  1466 ;;		Unchanged: 0/0
  1467 ;; Data sizes:     COMMON   BANK0   BANK1   BANK3   BANK2
  1468 ;;      Params:         0       0       0       0       0
  1469 ;;      Locals:         0       0       0       0       0
  1470 ;;      Temps:          0       0       0       0       0
  1471 ;;      Totals:         0       0       0       0       0
  1472 ;;Total ram usage:        0 bytes
  1473 ;; Hardware stack levels used: 1
  1474 ;; Hardware stack levels required when called: 6
  1475 ;; This function calls:
  1476 ;;		_Compare_Init
  1477 ;;		_Timer1_Init
  1478 ;; This function is called by:
  1479 ;;		_main
  1480 ;; This function uses a non-reentrant model
  1481 ;;
  1482                           
  1483     096C                     _Servo_Init:	
  1484                           ;psect for function _Servo_Init
  1485                           
  1486     096C                     l2650:	
  1487                           ;incstack = 0
  1488                           ; Regs used in _Servo_Init: [wreg+status,2+status,0+btemp+1+pclath+cstack]
  1489                           
  1490                           
  1491                           ;XC8_Servo_Compare.c: 37:     TRISC2 = 0;
  1492     096C  1683               	bsf	3,5	;RP0=1, select bank1
  1493     096D  1303               	bcf	3,6	;RP1=0, select bank1
  1494     096E  1107               	bcf	7,2	;volatile
  1495                           
  1496                           ;XC8_Servo_Compare.c: 38:     RC2 = 1;
  1497     096F  1283               	bcf	3,5	;RP0=0, select bank0
  1498     0970  1303               	bcf	3,6	;RP1=0, select bank0
  1499     0971  1507               	bsf	7,2	;volatile
  1500     0972                     l2652:
  1501                           
  1502                           ;XC8_Servo_Compare.c: 39:     Timer1_Init();
  1503     0972  120A  158A  215B  120A  158A  	fcall	_Timer1_Init
  1504     0977                     l2654:
  1505                           
  1506                           ;XC8_Servo_Compare.c: 40:     Compare_Init();
  1507     0977  120A  158A  2285  120A  158A  	fcall	_Compare_Init
  1508     097C                     l181:
  1509     097C  0008               	return
  1510     097D                     __end_of_Servo_Init:
  1511                           
  1512                           	psect	text5
  1513     095B                     __ptext5:	
  1514 ;; *************** function _Timer1_Init *****************
  1515 ;; Defined at:
  1516 ;;		line 4 in file "XC8_Servo_Compare.c"
  1517 ;; Parameters:    Size  Location     Type
  1518 ;;		None
  1519 ;; Auto vars:     Size  Location     Type
  1520 ;;		None
  1521 ;; Return value:  Size  Location     Type
  1522 ;;                  1    wreg      void 
  1523 ;; Registers used:
  1524 ;;		wreg
  1525 ;; Tracked objects:
  1526 ;;		On entry : 0/0
  1527 ;;		On exit  : 0/0
  1528 ;;		Unchanged: 0/0
  1529 ;; Data sizes:     COMMON   BANK0   BANK1   BANK3   BANK2
  1530 ;;      Params:         0       0       0       0       0
  1531 ;;      Locals:         0       0       0       0       0
  1532 ;;      Temps:          0       0       0       0       0
  1533 ;;      Totals:         0       0       0       0       0
  1534 ;;Total ram usage:        0 bytes
  1535 ;; Hardware stack levels used: 1
  1536 ;; Hardware stack levels required when called: 4
  1537 ;; This function calls:
  1538 ;;		Nothing
  1539 ;; This function is called by:
  1540 ;;		_Servo_Init
  1541 ;; This function uses a non-reentrant model
  1542 ;;
  1543                           
  1544     095B                     _Timer1_Init:	
  1545                           ;psect for function _Timer1_Init
  1546                           
  1547     095B                     l2362:	
  1548                           ;incstack = 0
  1549                           ; Regs used in _Timer1_Init: [wreg]
  1550                           
  1551                           
  1552                           ;XC8_Servo_Compare.c: 7:     TMR1 = TIME1;
  1553     095B  1283               	bcf	3,5	;RP0=0, select bank0
  1554     095C  1303               	bcf	3,6	;RP1=0, select bank0
  1555     095D  085F               	movf	_TIME1+1,w
  1556     095E  008F               	movwf	15	;volatile
  1557     095F  085E               	movf	_TIME1,w
  1558     0960  008E               	movwf	14	;volatile
  1559     0961                     l2364:
  1560                           
  1561                           ;XC8_Servo_Compare.c: 9:     T1CKPS1 = 1;
  1562     0961  1690               	bsf	16,5	;volatile
  1563     0962                     l2366:
  1564                           
  1565                           ;XC8_Servo_Compare.c: 10:     T1CKPS0 = 1;
  1566     0962  1610               	bsf	16,4	;volatile
  1567     0963                     l2368:
  1568                           
  1569                           ;XC8_Servo_Compare.c: 12:     TMR1CS = 0;
  1570     0963  1090               	bcf	16,1	;volatile
  1571     0964                     l2370:
  1572                           
  1573                           ;XC8_Servo_Compare.c: 13:     TMR1ON = 1;
  1574     0964  1410               	bsf	16,0	;volatile
  1575     0965                     l2372:
  1576                           
  1577                           ;XC8_Servo_Compare.c: 15:     TMR1IF = 0;
  1578     0965  100C               	bcf	12,0	;volatile
  1579     0966                     l2374:
  1580                           
  1581                           ;XC8_Servo_Compare.c: 16:     TMR1IE = 1;
  1582     0966  1683               	bsf	3,5	;RP0=1, select bank1
  1583     0967  1303               	bcf	3,6	;RP1=0, select bank1
  1584     0968  140C               	bsf	12,0	;volatile
  1585     0969                     l2376:
  1586                           
  1587                           ;XC8_Servo_Compare.c: 17:     PEIE = 1;
  1588     0969  170B               	bsf	11,6	;volatile
  1589     096A                     l2378:
  1590                           
  1591                           ;XC8_Servo_Compare.c: 18:     GIE = 1;
  1592     096A  178B               	bsf	11,7	;volatile
  1593     096B                     l175:
  1594     096B  0008               	return
  1595     096C                     __end_of_Timer1_Init:
  1596                           
  1597                           	psect	text6
  1598     0A85                     __ptext6:	
  1599 ;; *************** function _Compare_Init *****************
  1600 ;; Defined at:
  1601 ;;		line 22 in file "XC8_Servo_Compare.c"
  1602 ;; Parameters:    Size  Location     Type
  1603 ;;		None
  1604 ;; Auto vars:     Size  Location     Type
  1605 ;;		None
  1606 ;; Return value:  Size  Location     Type
  1607 ;;                  1    wreg      void 
  1608 ;; Registers used:
  1609 ;;		wreg, status,2, status,0, btemp+1, pclath, cstack
  1610 ;; Tracked objects:
  1611 ;;		On entry : 0/0
  1612 ;;		On exit  : 0/0
  1613 ;;		Unchanged: 0/0
  1614 ;; Data sizes:     COMMON   BANK0   BANK1   BANK3   BANK2
  1615 ;;      Params:         0       0       0       0       0
  1616 ;;      Locals:         0       0       0       0       0
  1617 ;;      Temps:          0       0       2       0       0
  1618 ;;      Totals:         0       0       2       0       0
  1619 ;;Total ram usage:        2 bytes
  1620 ;; Hardware stack levels used: 1
  1621 ;; Hardware stack levels required when called: 5
  1622 ;; This function calls:
  1623 ;;		___lwdiv
  1624 ;; This function is called by:
  1625 ;;		_Servo_Init
  1626 ;; This function uses a non-reentrant model
  1627 ;;
  1628                           
  1629     0A85                     _Compare_Init:	
  1630                           ;psect for function _Compare_Init
  1631                           
  1632     0A85                     l2380:	
  1633                           ;incstack = 0
  1634                           ; Regs used in _Compare_Init: [wreg+status,2+status,0+btemp+1+pclath+cstack]
  1635                           
  1636                           
  1637                           ;XC8_Servo_Compare.c: 25:     CCP1M3 = 1;
  1638     0A85  1283               	bcf	3,5	;RP0=0, select bank0
  1639     0A86  1303               	bcf	3,6	;RP1=0, select bank0
  1640     0A87  1597               	bsf	23,3	;volatile
  1641                           
  1642                           ;XC8_Servo_Compare.c: 26:     CCP1M2 = 0;
  1643     0A88  1117               	bcf	23,2	;volatile
  1644                           
  1645                           ;XC8_Servo_Compare.c: 27:     CCP1M1 = 0;
  1646     0A89  1097               	bcf	23,1	;volatile
  1647                           
  1648                           ;XC8_Servo_Compare.c: 28:     CCP1M0 = 1;
  1649     0A8A  1417               	bsf	23,0	;volatile
  1650     0A8B                     l2382:
  1651                           
  1652                           ;XC8_Servo_Compare.c: 30:     CCPR1 = TIME1 + (DC_RANGE / 20);
  1653     0A8B  3014               	movlw	20
  1654     0A8C  1683               	bsf	3,5	;RP0=1, select bank1
  1655     0A8D  1303               	bcf	3,6	;RP1=0, select bank1
  1656     0A8E  00A0               	movwf	___lwdiv@divisor^(0+128)
  1657     0A8F  3000               	movlw	0
  1658     0A90  00A1               	movwf	(___lwdiv@divisor^(0+128)+1)
  1659     0A91  1283               	bcf	3,5	;RP0=0, select bank0
  1660     0A92  1303               	bcf	3,6	;RP1=0, select bank0
  1661     0A93  085D               	movf	_DC_RANGE+1,w
  1662     0A94  1683               	bsf	3,5	;RP0=1, select bank1
  1663     0A95  1303               	bcf	3,6	;RP1=0, select bank1
  1664     0A96  00A3               	movwf	(___lwdiv@dividend+1)^(0+128)
  1665     0A97  1283               	bcf	3,5	;RP0=0, select bank0
  1666     0A98  1303               	bcf	3,6	;RP1=0, select bank0
  1667     0A99  085C               	movf	_DC_RANGE,w
  1668     0A9A  1683               	bsf	3,5	;RP0=1, select bank1
  1669     0A9B  1303               	bcf	3,6	;RP1=0, select bank1
  1670     0A9C  00A2               	movwf	___lwdiv@dividend^(0+128)
  1671     0A9D  120A  158A  233A  120A  158A  	fcall	___lwdiv
  1672     0AA2  1283               	bcf	3,5	;RP0=0, select bank0
  1673     0AA3  1303               	bcf	3,6	;RP1=0, select bank0
  1674     0AA4  085E               	movf	_TIME1,w
  1675     0AA5  1683               	bsf	3,5	;RP0=1, select bank1
  1676     0AA6  1303               	bcf	3,6	;RP1=0, select bank1
  1677     0AA7  0720               	addwf	?___lwdiv^(0+128),w
  1678     0AA8  00A7               	movwf	??_Compare_Init^(0+128)
  1679     0AA9  1283               	bcf	3,5	;RP0=0, select bank0
  1680     0AAA  1303               	bcf	3,6	;RP1=0, select bank0
  1681     0AAB  085F               	movf	_TIME1+1,w
  1682     0AAC  1803               	skipnc
  1683     0AAD  0A5F               	incf	_TIME1+1,w
  1684     0AAE  1683               	bsf	3,5	;RP0=1, select bank1
  1685     0AAF  1303               	bcf	3,6	;RP1=0, select bank1
  1686     0AB0  0721               	addwf	(?___lwdiv+1)^(0+128),w
  1687     0AB1  00A8               	movwf	(??_Compare_Init+1)^(0+128)
  1688     0AB2  0827               	movf	??_Compare_Init^(0+128),w
  1689     0AB3  1283               	bcf	3,5	;RP0=0, select bank0
  1690     0AB4  1303               	bcf	3,6	;RP1=0, select bank0
  1691     0AB5  0095               	movwf	21	;volatile
  1692     0AB6  1683               	bsf	3,5	;RP0=1, select bank1
  1693     0AB7  1303               	bcf	3,6	;RP1=0, select bank1
  1694     0AB8  0828               	movf	(??_Compare_Init+1)^(0+128),w
  1695     0AB9  1283               	bcf	3,5	;RP0=0, select bank0
  1696     0ABA  1303               	bcf	3,6	;RP1=0, select bank0
  1697     0ABB  0096               	movwf	22	;volatile
  1698     0ABC                     l178:
  1699     0ABC  0008               	return
  1700     0ABD                     __end_of_Compare_Init:
  1701                           
  1702                           	psect	text7
  1703     0E9E                     __ptext7:	
  1704 ;; *************** function _PosControl_Pot *****************
  1705 ;; Defined at:
  1706 ;;		line 48 in file "ServoMotor_Compare.c"
  1707 ;; Parameters:    Size  Location     Type
  1708 ;;		None
  1709 ;; Auto vars:     Size  Location     Type
  1710 ;;  adc_val         4    0[BANK3 ] float 
  1711 ;;  adc             2    4[BANK3 ] unsigned int 
  1712 ;;  adc_angle       1    6[BANK3 ] unsigned char 
  1713 ;; Return value:  Size  Location     Type
  1714 ;;                  1    wreg      void 
  1715 ;; Registers used:
  1716 ;;		wreg, status,2, status,0, btemp+1, pclath, cstack
  1717 ;; Tracked objects:
  1718 ;;		On entry : 0/0
  1719 ;;		On exit  : 0/0
  1720 ;;		Unchanged: 0/0
  1721 ;; Data sizes:     COMMON   BANK0   BANK1   BANK3   BANK2
  1722 ;;      Params:         0       0       0       0       0
  1723 ;;      Locals:         0       0       0       7       0
  1724 ;;      Temps:          0       0       3       0       0
  1725 ;;      Totals:         0       0       3       7       0
  1726 ;;Total ram usage:       10 bytes
  1727 ;; Hardware stack levels used: 1
  1728 ;; Hardware stack levels required when called: 6
  1729 ;; This function calls:
  1730 ;;		_ADC_Read
  1731 ;;		_ServoAngle
  1732 ;;		___fldiv
  1733 ;;		___flmul
  1734 ;;		___fltol
  1735 ;;		___xxtofl
  1736 ;; This function is called by:
  1737 ;;		_main
  1738 ;; This function uses a non-reentrant model
  1739 ;;
  1740                           
  1741     0E9E                     _PosControl_Pot:	
  1742                           ;psect for function _PosControl_Pot
  1743                           
  1744     0E9E                     l2582:	
  1745                           ;incstack = 0
  1746                           ; Regs used in _PosControl_Pot: [wreg+status,2+status,0+btemp+1+pclath+cstack]
  1747                           
  1748                           
  1749                           ;ServoMotor_Compare.c: 52:     uint8_t adc_angle = 0;
  1750     0E9E  1683               	bsf	3,5	;RP0=1, select bank3
  1751     0E9F  1703               	bsf	3,6	;RP1=1, select bank3
  1752     0EA0  01A7               	clrf	PosControl_Pot@adc_angle^(0+384)
  1753     0EA1                     l2584:
  1754                           
  1755                           ;ServoMotor_Compare.c: 54:     adc = ADC_Read(0);
  1756     0EA1  3000               	movlw	0
  1757     0EA2  120A  158A  224E  120A  158A  	fcall	_ADC_Read
  1758     0EA7  1683               	bsf	3,5	;RP0=1, select bank1
  1759     0EA8  1303               	bcf	3,6	;RP1=0, select bank1
  1760     0EA9  0821               	movf	(?_ADC_Read+1)^(0+128),w
  1761     0EAA  1683               	bsf	3,5	;RP0=1, select bank3
  1762     0EAB  1703               	bsf	3,6	;RP1=1, select bank3
  1763     0EAC  00A6               	movwf	(PosControl_Pot@adc+1)^(0+384)
  1764     0EAD  1683               	bsf	3,5	;RP0=1, select bank1
  1765     0EAE  1303               	bcf	3,6	;RP1=0, select bank1
  1766     0EAF  0820               	movf	?_ADC_Read^(0+128),w
  1767     0EB0  1683               	bsf	3,5	;RP0=1, select bank3
  1768     0EB1  1703               	bsf	3,6	;RP1=1, select bank3
  1769     0EB2  00A5               	movwf	PosControl_Pot@adc^(0+384)
  1770     0EB3                     l2586:
  1771                           
  1772                           ;ServoMotor_Compare.c: 56:     float adc_val = (adc / 1023.0f) * 180;
  1773     0EB3  3043               	movlw	67
  1774     0EB4  1683               	bsf	3,5	;RP0=1, select bank1
  1775     0EB5  1303               	bcf	3,6	;RP1=0, select bank1
  1776     0EB6  00D1               	movwf	(___flmul@b+3)^(0+128)
  1777     0EB7  3034               	movlw	52
  1778     0EB8  00D0               	movwf	(___flmul@b+2)^(0+128)
  1779     0EB9  3000               	movlw	0
  1780     0EBA  00CF               	movwf	(___flmul@b+1)^(0+128)
  1781     0EBB  3000               	movlw	0
  1782     0EBC  00CE               	movwf	___flmul@b^(0+128)
  1783     0EBD  3044               	movlw	68
  1784     0EBE  00B7               	movwf	(___fldiv@a+3)^(0+128)
  1785     0EBF  307F               	movlw	127
  1786     0EC0  00B6               	movwf	(___fldiv@a+2)^(0+128)
  1787     0EC1  30C0               	movlw	192
  1788     0EC2  00B5               	movwf	(___fldiv@a+1)^(0+128)
  1789     0EC3  3000               	movlw	0
  1790     0EC4  00B4               	movwf	___fldiv@a^(0+128)
  1791     0EC5  1683               	bsf	3,5	;RP0=1, select bank3
  1792     0EC6  1703               	bsf	3,6	;RP1=1, select bank3
  1793     0EC7  0825               	movf	PosControl_Pot@adc^(0+384),w
  1794     0EC8  1683               	bsf	3,5	;RP0=1, select bank1
  1795     0EC9  1303               	bcf	3,6	;RP1=0, select bank1
  1796     0ECA  00A6               	movwf	___xxtofl@val^(0+128)
  1797     0ECB  1683               	bsf	3,5	;RP0=1, select bank3
  1798     0ECC  1703               	bsf	3,6	;RP1=1, select bank3
  1799     0ECD  0826               	movf	(PosControl_Pot@adc+1)^(0+384),w
  1800     0ECE  1683               	bsf	3,5	;RP0=1, select bank1
  1801     0ECF  1303               	bcf	3,6	;RP1=0, select bank1
  1802     0ED0  00A7               	movwf	(___xxtofl@val^(0+128)+1)
  1803     0ED1  01A8               	clrf	(___xxtofl@val^(0+128)+2)
  1804     0ED2  01A9               	clrf	(___xxtofl@val^(0+128)+3)
  1805     0ED3  3000               	movlw	0
  1806     0ED4  120A  118A  2723  120A  158A  	fcall	___xxtofl
  1807     0ED9  1683               	bsf	3,5	;RP0=1, select bank1
  1808     0EDA  1303               	bcf	3,6	;RP1=0, select bank1
  1809     0EDB  0829               	movf	(?___xxtofl+3)^(0+128),w
  1810     0EDC  00BB               	movwf	(___fldiv@b+3)^(0+128)
  1811     0EDD  0828               	movf	(?___xxtofl+2)^(0+128),w
  1812     0EDE  00BA               	movwf	(___fldiv@b+2)^(0+128)
  1813     0EDF  0827               	movf	(?___xxtofl+1)^(0+128),w
  1814     0EE0  00B9               	movwf	(___fldiv@b+1)^(0+128)
  1815     0EE1  0826               	movf	?___xxtofl^(0+128),w
  1816     0EE2  00B8               	movwf	___fldiv@b^(0+128)
  1817     0EE3  120A  118A  2385  120A  158A  	fcall	___fldiv
  1818     0EE8  1683               	bsf	3,5	;RP0=1, select bank1
  1819     0EE9  1303               	bcf	3,6	;RP1=0, select bank1
  1820     0EEA  0837               	movf	(?___fldiv+3)^(0+128),w
  1821     0EEB  00D5               	movwf	(___flmul@a+3)^(0+128)
  1822     0EEC  0836               	movf	(?___fldiv+2)^(0+128),w
  1823     0EED  00D4               	movwf	(___flmul@a+2)^(0+128)
  1824     0EEE  0835               	movf	(?___fldiv+1)^(0+128),w
  1825     0EEF  00D3               	movwf	(___flmul@a+1)^(0+128)
  1826     0EF0  0834               	movf	?___fldiv^(0+128),w
  1827     0EF1  00D2               	movwf	___flmul@a^(0+128)
  1828     0EF2  120A  118A  2040  120A  158A  	fcall	___flmul
  1829     0EF7  1683               	bsf	3,5	;RP0=1, select bank1
  1830     0EF8  1303               	bcf	3,6	;RP1=0, select bank1
  1831     0EF9  0851               	movf	(?___flmul+3)^(0+128),w
  1832     0EFA  1683               	bsf	3,5	;RP0=1, select bank3
  1833     0EFB  1703               	bsf	3,6	;RP1=1, select bank3
  1834     0EFC  00A4               	movwf	(PosControl_Pot@adc_val+3)^(0+384)
  1835     0EFD  1683               	bsf	3,5	;RP0=1, select bank1
  1836     0EFE  1303               	bcf	3,6	;RP1=0, select bank1
  1837     0EFF  0850               	movf	(?___flmul+2)^(0+128),w
  1838     0F00  1683               	bsf	3,5	;RP0=1, select bank3
  1839     0F01  1703               	bsf	3,6	;RP1=1, select bank3
  1840     0F02  00A3               	movwf	(PosControl_Pot@adc_val+2)^(0+384)
  1841     0F03  1683               	bsf	3,5	;RP0=1, select bank1
  1842     0F04  1303               	bcf	3,6	;RP1=0, select bank1
  1843     0F05  084F               	movf	(?___flmul+1)^(0+128),w
  1844     0F06  1683               	bsf	3,5	;RP0=1, select bank3
  1845     0F07  1703               	bsf	3,6	;RP1=1, select bank3
  1846     0F08  00A2               	movwf	(PosControl_Pot@adc_val+1)^(0+384)
  1847     0F09  1683               	bsf	3,5	;RP0=1, select bank1
  1848     0F0A  1303               	bcf	3,6	;RP1=0, select bank1
  1849     0F0B  084E               	movf	?___flmul^(0+128),w
  1850     0F0C  1683               	bsf	3,5	;RP0=1, select bank3
  1851     0F0D  1703               	bsf	3,6	;RP1=1, select bank3
  1852     0F0E  00A1               	movwf	PosControl_Pot@adc_val^(0+384)
  1853     0F0F                     l2588:
  1854                           
  1855                           ;ServoMotor_Compare.c: 57:     adc_angle = (uint8_t)adc_val;
  1856     0F0F  0824               	movf	(PosControl_Pot@adc_val+3)^(0+384),w
  1857     0F10  1683               	bsf	3,5	;RP0=1, select bank1
  1858     0F11  1303               	bcf	3,6	;RP1=0, select bank1
  1859     0F12  00D1               	movwf	(___fltol@f1+3)^(0+128)
  1860     0F13  1683               	bsf	3,5	;RP0=1, select bank3
  1861     0F14  1703               	bsf	3,6	;RP1=1, select bank3
  1862     0F15  0823               	movf	(PosControl_Pot@adc_val+2)^(0+384),w
  1863     0F16  1683               	bsf	3,5	;RP0=1, select bank1
  1864     0F17  1303               	bcf	3,6	;RP1=0, select bank1
  1865     0F18  00D0               	movwf	(___fltol@f1+2)^(0+128)
  1866     0F19  1683               	bsf	3,5	;RP0=1, select bank3
  1867     0F1A  1703               	bsf	3,6	;RP1=1, select bank3
  1868     0F1B  0822               	movf	(PosControl_Pot@adc_val+1)^(0+384),w
  1869     0F1C  1683               	bsf	3,5	;RP0=1, select bank1
  1870     0F1D  1303               	bcf	3,6	;RP1=0, select bank1
  1871     0F1E  00CF               	movwf	(___fltol@f1+1)^(0+128)
  1872     0F1F  1683               	bsf	3,5	;RP0=1, select bank3
  1873     0F20  1703               	bsf	3,6	;RP1=1, select bank3
  1874     0F21  0821               	movf	PosControl_Pot@adc_val^(0+384),w
  1875     0F22  1683               	bsf	3,5	;RP0=1, select bank1
  1876     0F23  1303               	bcf	3,6	;RP1=0, select bank1
  1877     0F24  00CE               	movwf	___fltol@f1^(0+128)
  1878     0F25  120A  158A  2516  120A  158A  	fcall	___fltol
  1879     0F2A  1683               	bsf	3,5	;RP0=1, select bank1
  1880     0F2B  1303               	bcf	3,6	;RP1=0, select bank1
  1881     0F2C  084E               	movf	?___fltol^(0+128),w
  1882     0F2D  1683               	bsf	3,5	;RP0=1, select bank3
  1883     0F2E  1703               	bsf	3,6	;RP1=1, select bank3
  1884     0F2F  00A7               	movwf	PosControl_Pot@adc_angle^(0+384)
  1885     0F30                     l2590:
  1886                           
  1887                           ;ServoMotor_Compare.c: 58:     ServoAngle(adc_angle);
  1888     0F30  0827               	movf	PosControl_Pot@adc_angle^(0+384),w
  1889     0F31  120A  158A  260A  120A  158A  	fcall	_ServoAngle
  1890     0F36                     l2592:
  1891                           
  1892                           ;ServoMotor_Compare.c: 59:     _delay((unsigned long)((1000)*(16000000/4000.0)));
  1893     0F36  3015               	movlw	21
  1894     0F37  1683               	bsf	3,5	;RP0=1, select bank1
  1895     0F38  1303               	bcf	3,6	;RP1=0, select bank1
  1896     0F39  00EA               	movwf	(??_PosControl_Pot^(0+128)+2)
  1897     0F3A  304B               	movlw	75
  1898     0F3B  00E9               	movwf	(??_PosControl_Pot^(0+128)+1)
  1899     0F3C  30BD               	movlw	189
  1900     0F3D  00E8               	movwf	??_PosControl_Pot^(0+128)
  1901     0F3E                     u3867:
  1902     0F3E  0BE8               	decfsz	??_PosControl_Pot^(0+128),f
  1903     0F3F  2F3E               	goto	u3867
  1904     0F40  0BE9               	decfsz	(??_PosControl_Pot^(0+128)+1),f
  1905     0F41  2F3E               	goto	u3867
  1906     0F42  0BEA               	decfsz	(??_PosControl_Pot^(0+128)+2),f
  1907     0F43  2F3E               	goto	u3867
  1908     0F44  2F45               	nop2
  1909     0F45                     l62:
  1910     0F45  0008               	return
  1911     0F46                     __end_of_PosControl_Pot:
  1912                           
  1913                           	psect	text8
  1914     0040                     __ptext8:	
  1915 ;; *************** function ___flmul *****************
  1916 ;; Defined at:
  1917 ;;		line 8 in file "C:\Program Files\Microchip\xc8\v2.41\pic\sources\c90\common\sprcmul.c"
  1918 ;; Parameters:    Size  Location     Type
  1919 ;;  b               4   46[BANK1 ] void 
  1920 ;;  a               4   50[BANK1 ] void 
  1921 ;; Auto vars:     Size  Location     Type
  1922 ;;  prod            4   66[BANK1 ] struct .
  1923 ;;  grs             4   60[BANK1 ] unsigned long 
  1924 ;;  temp            2   70[BANK1 ] struct .
  1925 ;;  bexp            1   65[BANK1 ] unsigned char 
  1926 ;;  aexp            1   64[BANK1 ] unsigned char 
  1927 ;;  sign            1   59[BANK1 ] unsigned char 
  1928 ;; Return value:  Size  Location     Type
  1929 ;;                  4   46[BANK1 ] unsigned char 
  1930 ;; Registers used:
  1931 ;;		wreg, status,2, status,0, btemp+1, pclath, cstack
  1932 ;; Tracked objects:
  1933 ;;		On entry : 0/0
  1934 ;;		On exit  : 0/0
  1935 ;;		Unchanged: 0/0
  1936 ;; Data sizes:     COMMON   BANK0   BANK1   BANK3   BANK2
  1937 ;;      Params:         0       0       8       0       0
  1938 ;;      Locals:         0       0      13       0       0
  1939 ;;      Temps:          0       0       5       0       0
  1940 ;;      Totals:         0       0      26       0       0
  1941 ;;Total ram usage:       26 bytes
  1942 ;; Hardware stack levels used: 1
  1943 ;; Hardware stack levels required when called: 5
  1944 ;; This function calls:
  1945 ;;		__Umul8_16
  1946 ;; This function is called by:
  1947 ;;		_PosControl_Pot
  1948 ;; This function uses a non-reentrant model
  1949 ;;
  1950                           
  1951     0040                     ___flmul:	
  1952                           ;psect for function ___flmul
  1953                           
  1954     0040                     l2384:	
  1955                           ;incstack = 0
  1956                           ; Regs used in ___flmul: [wreg+status,2+status,0+btemp+1+pclath+cstack]
  1957                           
  1958     0040  1683               	bsf	3,5	;RP0=1, select bank1
  1959     0041  1303               	bcf	3,6	;RP1=0, select bank1
  1960     0042  0851               	movf	(___flmul@b^(0+128)+3),w
  1961     0043  3980               	andlw	128
  1962     0044  00DB               	movwf	___flmul@sign^(0+128)
  1963     0045                     l2386:
  1964     0045  0851               	movf	(___flmul@b^(0+128)+3),w
  1965     0046  00D6               	movwf	??___flmul^(0+128)
  1966     0047  0756               	addwf	??___flmul^(0+128),w
  1967     0048  00E1               	movwf	___flmul@bexp^(0+128)
  1968     0049                     l2388:
  1969     0049  1FD0               	btfss	(___flmul@b^(0+128)+2),7
  1970     004A  284C               	goto	u3311
  1971     004B  284D               	goto	u3310
  1972     004C                     u3311:
  1973     004C  284E               	goto	l2392
  1974     004D                     u3310:
  1975     004D                     l2390:
  1976     004D  1461               	bsf	___flmul@bexp^(0+128),0
  1977     004E                     l2392:
  1978     004E  0861               	movf	___flmul@bexp^(0+128),w
  1979     004F  1903               	btfsc	3,2
  1980     0050  2852               	goto	u3321
  1981     0051  2853               	goto	u3320
  1982     0052                     u3321:
  1983     0052  2862               	goto	l2400
  1984     0053                     u3320:
  1985     0053                     l2394:
  1986     0053  0A61               	incf	___flmul@bexp^(0+128),w
  1987     0054  1D03               	btfss	3,2
  1988     0055  2857               	goto	u3331
  1989     0056  2858               	goto	u3330
  1990     0057                     u3331:
  1991     0057  2860               	goto	l2398
  1992     0058                     u3330:
  1993     0058                     l2396:
  1994     0058  3000               	movlw	0
  1995     0059  00D1               	movwf	(___flmul@b+3)^(0+128)
  1996     005A  3000               	movlw	0
  1997     005B  00D0               	movwf	(___flmul@b+2)^(0+128)
  1998     005C  3000               	movlw	0
  1999     005D  00CF               	movwf	(___flmul@b+1)^(0+128)
  2000     005E  3000               	movlw	0
  2001     005F  00CE               	movwf	___flmul@b^(0+128)
  2002     0060                     l2398:
  2003     0060  17D0               	bsf	(___flmul@b^(0+128)+2),7
  2004     0061  286A               	goto	l2402
  2005     0062                     l2400:
  2006     0062  3000               	movlw	0
  2007     0063  00D1               	movwf	(___flmul@b+3)^(0+128)
  2008     0064  3000               	movlw	0
  2009     0065  00D0               	movwf	(___flmul@b+2)^(0+128)
  2010     0066  3000               	movlw	0
  2011     0067  00CF               	movwf	(___flmul@b+1)^(0+128)
  2012     0068  3000               	movlw	0
  2013     0069  00CE               	movwf	___flmul@b^(0+128)
  2014     006A                     l2402:
  2015     006A  0855               	movf	(___flmul@a^(0+128)+3),w
  2016     006B  3980               	andlw	128
  2017     006C  00FF               	movwf	btemp+1
  2018     006D  087F               	movf	btemp+1,w
  2019     006E  06DB               	xorwf	___flmul@sign^(0+128),f
  2020     006F                     l2404:
  2021     006F  0855               	movf	(___flmul@a^(0+128)+3),w
  2022     0070  00D6               	movwf	??___flmul^(0+128)
  2023     0071  0756               	addwf	??___flmul^(0+128),w
  2024     0072  00E0               	movwf	___flmul@aexp^(0+128)
  2025     0073                     l2406:
  2026     0073  1FD4               	btfss	(___flmul@a^(0+128)+2),7
  2027     0074  2876               	goto	u3341
  2028     0075  2877               	goto	u3340
  2029     0076                     u3341:
  2030     0076  2878               	goto	l2410
  2031     0077                     u3340:
  2032     0077                     l2408:
  2033     0077  1460               	bsf	___flmul@aexp^(0+128),0
  2034     0078                     l2410:
  2035     0078  0860               	movf	___flmul@aexp^(0+128),w
  2036     0079  1903               	btfsc	3,2
  2037     007A  287C               	goto	u3351
  2038     007B  287D               	goto	u3350
  2039     007C                     u3351:
  2040     007C  288C               	goto	l2418
  2041     007D                     u3350:
  2042     007D                     l2412:
  2043     007D  0A60               	incf	___flmul@aexp^(0+128),w
  2044     007E  1D03               	btfss	3,2
  2045     007F  2881               	goto	u3361
  2046     0080  2882               	goto	u3360
  2047     0081                     u3361:
  2048     0081  288A               	goto	l2416
  2049     0082                     u3360:
  2050     0082                     l2414:
  2051     0082  3000               	movlw	0
  2052     0083  00D5               	movwf	(___flmul@a+3)^(0+128)
  2053     0084  3000               	movlw	0
  2054     0085  00D4               	movwf	(___flmul@a+2)^(0+128)
  2055     0086  3000               	movlw	0
  2056     0087  00D3               	movwf	(___flmul@a+1)^(0+128)
  2057     0088  3000               	movlw	0
  2058     0089  00D2               	movwf	___flmul@a^(0+128)
  2059     008A                     l2416:
  2060     008A  17D4               	bsf	(___flmul@a^(0+128)+2),7
  2061     008B  2894               	goto	l2420
  2062     008C                     l2418:
  2063     008C  3000               	movlw	0
  2064     008D  00D5               	movwf	(___flmul@a+3)^(0+128)
  2065     008E  3000               	movlw	0
  2066     008F  00D4               	movwf	(___flmul@a+2)^(0+128)
  2067     0090  3000               	movlw	0
  2068     0091  00D3               	movwf	(___flmul@a+1)^(0+128)
  2069     0092  3000               	movlw	0
  2070     0093  00D2               	movwf	___flmul@a^(0+128)
  2071     0094                     l2420:
  2072     0094  0860               	movf	___flmul@aexp^(0+128),w
  2073     0095  1903               	btfsc	3,2
  2074     0096  2898               	goto	u3371
  2075     0097  2899               	goto	u3370
  2076     0098                     u3371:
  2077     0098  289E               	goto	l2424
  2078     0099                     u3370:
  2079     0099                     l2422:
  2080     0099  0861               	movf	___flmul@bexp^(0+128),w
  2081     009A  1D03               	btfss	3,2
  2082     009B  289D               	goto	u3381
  2083     009C  289E               	goto	u3380
  2084     009D                     u3381:
  2085     009D  28A7               	goto	l2428
  2086     009E                     u3380:
  2087     009E                     l2424:
  2088     009E  3000               	movlw	0
  2089     009F  00D1               	movwf	(?___flmul+3)^(0+128)
  2090     00A0  3000               	movlw	0
  2091     00A1  00D0               	movwf	(?___flmul+2)^(0+128)
  2092     00A2  3000               	movlw	0
  2093     00A3  00CF               	movwf	(?___flmul+1)^(0+128)
  2094     00A4  3000               	movlw	0
  2095     00A5  00CE               	movwf	?___flmul^(0+128)
  2096     00A6  2B84               	goto	l701
  2097     00A7                     l2428:
  2098     00A7  084E               	movf	___flmul@b^(0+128),w
  2099     00A8  00A0               	movwf	__Umul8_16@multiplicand^(0+128)
  2100     00A9  0854               	movf	(___flmul@a^(0+128)+2),w
  2101     00AA  120A  158A  21EF  120A  118A  	fcall	__Umul8_16
  2102     00AF  1683               	bsf	3,5	;RP0=1, select bank1
  2103     00B0  1303               	bcf	3,6	;RP1=0, select bank1
  2104     00B1  0821               	movf	(?__Umul8_16+1)^(0+128),w
  2105     00B2  00E7               	movwf	(___flmul@temp+1)^(0+128)
  2106     00B3  0820               	movf	?__Umul8_16^(0+128),w
  2107     00B4  00E6               	movwf	___flmul@temp^(0+128)
  2108     00B5                     l2430:
  2109     00B5  0866               	movf	___flmul@temp^(0+128),w
  2110     00B6  00D6               	movwf	??___flmul^(0+128)
  2111     00B7  01D7               	clrf	(??___flmul^(0+128)+1)
  2112     00B8  01D8               	clrf	(??___flmul^(0+128)+2)
  2113     00B9  01D9               	clrf	(??___flmul^(0+128)+3)
  2114     00BA  0859               	movf	(??___flmul+3)^(0+128),w
  2115     00BB  00DF               	movwf	(___flmul@grs+3)^(0+128)
  2116     00BC  0858               	movf	(??___flmul+2)^(0+128),w
  2117     00BD  00DE               	movwf	(___flmul@grs+2)^(0+128)
  2118     00BE  0857               	movf	(??___flmul+1)^(0+128),w
  2119     00BF  00DD               	movwf	(___flmul@grs+1)^(0+128)
  2120     00C0  0856               	movf	??___flmul^(0+128),w
  2121     00C1  00DC               	movwf	___flmul@grs^(0+128)
  2122     00C2                     l2432:
  2123     00C2  0867               	movf	(___flmul@temp^(0+128)+1),w
  2124     00C3  00D6               	movwf	??___flmul^(0+128)
  2125     00C4  01D7               	clrf	(??___flmul^(0+128)+1)
  2126     00C5  01D8               	clrf	(??___flmul^(0+128)+2)
  2127     00C6  01D9               	clrf	(??___flmul^(0+128)+3)
  2128     00C7  0859               	movf	(??___flmul+3)^(0+128),w
  2129     00C8  00E5               	movwf	(___flmul@prod+3)^(0+128)
  2130     00C9  0858               	movf	(??___flmul+2)^(0+128),w
  2131     00CA  00E4               	movwf	(___flmul@prod+2)^(0+128)
  2132     00CB  0857               	movf	(??___flmul+1)^(0+128),w
  2133     00CC  00E3               	movwf	(___flmul@prod+1)^(0+128)
  2134     00CD  0856               	movf	??___flmul^(0+128),w
  2135     00CE  00E2               	movwf	___flmul@prod^(0+128)
  2136     00CF  084F               	movf	(___flmul@b^(0+128)+1),w
  2137     00D0  00A0               	movwf	__Umul8_16@multiplicand^(0+128)
  2138     00D1  0853               	movf	(___flmul@a^(0+128)+1),w
  2139     00D2  120A  158A  21EF  120A  118A  	fcall	__Umul8_16
  2140     00D7  1683               	bsf	3,5	;RP0=1, select bank1
  2141     00D8  1303               	bcf	3,6	;RP1=0, select bank1
  2142     00D9  0821               	movf	(?__Umul8_16+1)^(0+128),w
  2143     00DA  00E7               	movwf	(___flmul@temp+1)^(0+128)
  2144     00DB  0820               	movf	?__Umul8_16^(0+128),w
  2145     00DC  00E6               	movwf	___flmul@temp^(0+128)
  2146     00DD                     l2434:
  2147     00DD  0866               	movf	___flmul@temp^(0+128),w
  2148     00DE  00D6               	movwf	??___flmul^(0+128)
  2149     00DF  01D7               	clrf	(??___flmul^(0+128)+1)
  2150     00E0  01D8               	clrf	(??___flmul^(0+128)+2)
  2151     00E1  01D9               	clrf	(??___flmul^(0+128)+3)
  2152     00E2  0856               	movf	??___flmul^(0+128),w
  2153     00E3  07DC               	addwf	___flmul@grs^(0+128),f
  2154     00E4  0857               	movf	(??___flmul+1)^(0+128),w
  2155     00E5  1103               	clrz
  2156     00E6  1803               	skipnc
  2157     00E7  3E01               	addlw	1
  2158     00E8  1903               	skipnz
  2159     00E9  28EB               	goto	u3391
  2160     00EA  07DD               	addwf	(___flmul@grs+1)^(0+128),f
  2161     00EB                     u3391:
  2162     00EB  0858               	movf	(??___flmul+2)^(0+128),w
  2163     00EC  1103               	clrz
  2164     00ED  1803               	skipnc
  2165     00EE  3E01               	addlw	1
  2166     00EF  1903               	skipnz
  2167     00F0  28F2               	goto	u3392
  2168     00F1  07DE               	addwf	(___flmul@grs+2)^(0+128),f
  2169     00F2                     u3392:
  2170     00F2  0859               	movf	(??___flmul+3)^(0+128),w
  2171     00F3  1103               	clrz
  2172     00F4  1803               	skipnc
  2173     00F5  3E01               	addlw	1
  2174     00F6  1903               	skipnz
  2175     00F7  28F9               	goto	u3393
  2176     00F8  07DF               	addwf	(___flmul@grs+3)^(0+128),f
  2177     00F9                     u3393:
  2178     00F9                     l2436:
  2179     00F9  0867               	movf	(___flmul@temp^(0+128)+1),w
  2180     00FA  00D6               	movwf	??___flmul^(0+128)
  2181     00FB  01D7               	clrf	(??___flmul^(0+128)+1)
  2182     00FC  01D8               	clrf	(??___flmul^(0+128)+2)
  2183     00FD  01D9               	clrf	(??___flmul^(0+128)+3)
  2184     00FE  0856               	movf	??___flmul^(0+128),w
  2185     00FF  07E2               	addwf	___flmul@prod^(0+128),f
  2186     0100  0857               	movf	(??___flmul+1)^(0+128),w
  2187     0101  1103               	clrz
  2188     0102  1803               	skipnc
  2189     0103  3E01               	addlw	1
  2190     0104  1903               	skipnz
  2191     0105  2907               	goto	u3401
  2192     0106  07E3               	addwf	(___flmul@prod+1)^(0+128),f
  2193     0107                     u3401:
  2194     0107  0858               	movf	(??___flmul+2)^(0+128),w
  2195     0108  1103               	clrz
  2196     0109  1803               	skipnc
  2197     010A  3E01               	addlw	1
  2198     010B  1903               	skipnz
  2199     010C  290E               	goto	u3402
  2200     010D  07E4               	addwf	(___flmul@prod+2)^(0+128),f
  2201     010E                     u3402:
  2202     010E  0859               	movf	(??___flmul+3)^(0+128),w
  2203     010F  1103               	clrz
  2204     0110  1803               	skipnc
  2205     0111  3E01               	addlw	1
  2206     0112  1903               	skipnz
  2207     0113  2915               	goto	u3403
  2208     0114  07E5               	addwf	(___flmul@prod+3)^(0+128),f
  2209     0115                     u3403:
  2210     0115  0850               	movf	(___flmul@b^(0+128)+2),w
  2211     0116  00A0               	movwf	__Umul8_16@multiplicand^(0+128)
  2212     0117  0852               	movf	___flmul@a^(0+128),w
  2213     0118  120A  158A  21EF  120A  118A  	fcall	__Umul8_16
  2214     011D  1683               	bsf	3,5	;RP0=1, select bank1
  2215     011E  1303               	bcf	3,6	;RP1=0, select bank1
  2216     011F  0821               	movf	(?__Umul8_16+1)^(0+128),w
  2217     0120  00E7               	movwf	(___flmul@temp+1)^(0+128)
  2218     0121  0820               	movf	?__Umul8_16^(0+128),w
  2219     0122  00E6               	movwf	___flmul@temp^(0+128)
  2220     0123                     l2438:
  2221     0123  0866               	movf	___flmul@temp^(0+128),w
  2222     0124  00D6               	movwf	??___flmul^(0+128)
  2223     0125  01D7               	clrf	(??___flmul^(0+128)+1)
  2224     0126  01D8               	clrf	(??___flmul^(0+128)+2)
  2225     0127  01D9               	clrf	(??___flmul^(0+128)+3)
  2226     0128  0856               	movf	??___flmul^(0+128),w
  2227     0129  07DC               	addwf	___flmul@grs^(0+128),f
  2228     012A  0857               	movf	(??___flmul+1)^(0+128),w
  2229     012B  1103               	clrz
  2230     012C  1803               	skipnc
  2231     012D  3E01               	addlw	1
  2232     012E  1903               	skipnz
  2233     012F  2931               	goto	u3411
  2234     0130  07DD               	addwf	(___flmul@grs+1)^(0+128),f
  2235     0131                     u3411:
  2236     0131  0858               	movf	(??___flmul+2)^(0+128),w
  2237     0132  1103               	clrz
  2238     0133  1803               	skipnc
  2239     0134  3E01               	addlw	1
  2240     0135  1903               	skipnz
  2241     0136  2938               	goto	u3412
  2242     0137  07DE               	addwf	(___flmul@grs+2)^(0+128),f
  2243     0138                     u3412:
  2244     0138  0859               	movf	(??___flmul+3)^(0+128),w
  2245     0139  1103               	clrz
  2246     013A  1803               	skipnc
  2247     013B  3E01               	addlw	1
  2248     013C  1903               	skipnz
  2249     013D  293F               	goto	u3413
  2250     013E  07DF               	addwf	(___flmul@grs+3)^(0+128),f
  2251     013F                     u3413:
  2252     013F                     l2440:
  2253     013F  0867               	movf	(___flmul@temp^(0+128)+1),w
  2254     0140  00D6               	movwf	??___flmul^(0+128)
  2255     0141  01D7               	clrf	(??___flmul^(0+128)+1)
  2256     0142  01D8               	clrf	(??___flmul^(0+128)+2)
  2257     0143  01D9               	clrf	(??___flmul^(0+128)+3)
  2258     0144  0856               	movf	??___flmul^(0+128),w
  2259     0145  07E2               	addwf	___flmul@prod^(0+128),f
  2260     0146  0857               	movf	(??___flmul+1)^(0+128),w
  2261     0147  1103               	clrz
  2262     0148  1803               	skipnc
  2263     0149  3E01               	addlw	1
  2264     014A  1903               	skipnz
  2265     014B  294D               	goto	u3421
  2266     014C  07E3               	addwf	(___flmul@prod+1)^(0+128),f
  2267     014D                     u3421:
  2268     014D  0858               	movf	(??___flmul+2)^(0+128),w
  2269     014E  1103               	clrz
  2270     014F  1803               	skipnc
  2271     0150  3E01               	addlw	1
  2272     0151  1903               	skipnz
  2273     0152  2954               	goto	u3422
  2274     0153  07E4               	addwf	(___flmul@prod+2)^(0+128),f
  2275     0154                     u3422:
  2276     0154  0859               	movf	(??___flmul+3)^(0+128),w
  2277     0155  1103               	clrz
  2278     0156  1803               	skipnc
  2279     0157  3E01               	addlw	1
  2280     0158  1903               	skipnz
  2281     0159  295B               	goto	u3423
  2282     015A  07E5               	addwf	(___flmul@prod+3)^(0+128),f
  2283     015B                     u3423:
  2284     015B                     l2442:
  2285     015B  3008               	movlw	8
  2286     015C  00D6               	movwf	??___flmul^(0+128)
  2287     015D                     u3435:
  2288     015D  1003               	clrc
  2289     015E  0DDC               	rlf	___flmul@grs^(0+128),f
  2290     015F  0DDD               	rlf	(___flmul@grs+1)^(0+128),f
  2291     0160  0DDE               	rlf	(___flmul@grs+2)^(0+128),f
  2292     0161  0DDF               	rlf	(___flmul@grs+3)^(0+128),f
  2293     0162  0BD6               	decfsz	??___flmul^(0+128),f
  2294     0163  295D               	goto	u3435
  2295     0164                     l2444:
  2296     0164  084F               	movf	(___flmul@b^(0+128)+1),w
  2297     0165  00A0               	movwf	__Umul8_16@multiplicand^(0+128)
  2298     0166  0852               	movf	___flmul@a^(0+128),w
  2299     0167  120A  158A  21EF  120A  118A  	fcall	__Umul8_16
  2300     016C  1683               	bsf	3,5	;RP0=1, select bank1
  2301     016D  1303               	bcf	3,6	;RP1=0, select bank1
  2302     016E  0821               	movf	(?__Umul8_16+1)^(0+128),w
  2303     016F  00E7               	movwf	(___flmul@temp+1)^(0+128)
  2304     0170  0820               	movf	?__Umul8_16^(0+128),w
  2305     0171  00E6               	movwf	___flmul@temp^(0+128)
  2306     0172                     l2446:
  2307     0172  0866               	movf	___flmul@temp^(0+128),w
  2308     0173  00D6               	movwf	??___flmul^(0+128)
  2309     0174  0867               	movf	(___flmul@temp+1)^(0+128),w
  2310     0175  00D7               	movwf	(??___flmul^(0+128)+1)
  2311     0176  01D8               	clrf	(??___flmul^(0+128)+2)
  2312     0177  01D9               	clrf	(??___flmul^(0+128)+3)
  2313     0178  0856               	movf	??___flmul^(0+128),w
  2314     0179  07DC               	addwf	___flmul@grs^(0+128),f
  2315     017A  0857               	movf	(??___flmul+1)^(0+128),w
  2316     017B  1103               	clrz
  2317     017C  1803               	skipnc
  2318     017D  3E01               	addlw	1
  2319     017E  1903               	skipnz
  2320     017F  2981               	goto	u3441
  2321     0180  07DD               	addwf	(___flmul@grs+1)^(0+128),f
  2322     0181                     u3441:
  2323     0181  0858               	movf	(??___flmul+2)^(0+128),w
  2324     0182  1103               	clrz
  2325     0183  1803               	skipnc
  2326     0184  3E01               	addlw	1
  2327     0185  1903               	skipnz
  2328     0186  2988               	goto	u3442
  2329     0187  07DE               	addwf	(___flmul@grs+2)^(0+128),f
  2330     0188                     u3442:
  2331     0188  0859               	movf	(??___flmul+3)^(0+128),w
  2332     0189  1103               	clrz
  2333     018A  1803               	skipnc
  2334     018B  3E01               	addlw	1
  2335     018C  1903               	skipnz
  2336     018D  298F               	goto	u3443
  2337     018E  07DF               	addwf	(___flmul@grs+3)^(0+128),f
  2338     018F                     u3443:
  2339     018F                     l2448:
  2340     018F  084E               	movf	___flmul@b^(0+128),w
  2341     0190  00A0               	movwf	__Umul8_16@multiplicand^(0+128)
  2342     0191  0853               	movf	(___flmul@a^(0+128)+1),w
  2343     0192  120A  158A  21EF  120A  118A  	fcall	__Umul8_16
  2344     0197  1683               	bsf	3,5	;RP0=1, select bank1
  2345     0198  1303               	bcf	3,6	;RP1=0, select bank1
  2346     0199  0821               	movf	(?__Umul8_16+1)^(0+128),w
  2347     019A  00E7               	movwf	(___flmul@temp+1)^(0+128)
  2348     019B  0820               	movf	?__Umul8_16^(0+128),w
  2349     019C  00E6               	movwf	___flmul@temp^(0+128)
  2350     019D                     l2450:
  2351     019D  0866               	movf	___flmul@temp^(0+128),w
  2352     019E  00D6               	movwf	??___flmul^(0+128)
  2353     019F  0867               	movf	(___flmul@temp+1)^(0+128),w
  2354     01A0  00D7               	movwf	(??___flmul^(0+128)+1)
  2355     01A1  01D8               	clrf	(??___flmul^(0+128)+2)
  2356     01A2  01D9               	clrf	(??___flmul^(0+128)+3)
  2357     01A3  0856               	movf	??___flmul^(0+128),w
  2358     01A4  07DC               	addwf	___flmul@grs^(0+128),f
  2359     01A5  0857               	movf	(??___flmul+1)^(0+128),w
  2360     01A6  1103               	clrz
  2361     01A7  1803               	skipnc
  2362     01A8  3E01               	addlw	1
  2363     01A9  1903               	skipnz
  2364     01AA  29AC               	goto	u3451
  2365     01AB  07DD               	addwf	(___flmul@grs+1)^(0+128),f
  2366     01AC                     u3451:
  2367     01AC  0858               	movf	(??___flmul+2)^(0+128),w
  2368     01AD  1103               	clrz
  2369     01AE  1803               	skipnc
  2370     01AF  3E01               	addlw	1
  2371     01B0  1903               	skipnz
  2372     01B1  29B3               	goto	u3452
  2373     01B2  07DE               	addwf	(___flmul@grs+2)^(0+128),f
  2374     01B3                     u3452:
  2375     01B3  0859               	movf	(??___flmul+3)^(0+128),w
  2376     01B4  1103               	clrz
  2377     01B5  1803               	skipnc
  2378     01B6  3E01               	addlw	1
  2379     01B7  1903               	skipnz
  2380     01B8  29BA               	goto	u3453
  2381     01B9  07DF               	addwf	(___flmul@grs+3)^(0+128),f
  2382     01BA                     u3453:
  2383     01BA                     l2452:
  2384     01BA  3008               	movlw	8
  2385     01BB  00D6               	movwf	??___flmul^(0+128)
  2386     01BC                     u3465:
  2387     01BC  1003               	clrc
  2388     01BD  0DDC               	rlf	___flmul@grs^(0+128),f
  2389     01BE  0DDD               	rlf	(___flmul@grs+1)^(0+128),f
  2390     01BF  0DDE               	rlf	(___flmul@grs+2)^(0+128),f
  2391     01C0  0DDF               	rlf	(___flmul@grs+3)^(0+128),f
  2392     01C1  0BD6               	decfsz	??___flmul^(0+128),f
  2393     01C2  29BC               	goto	u3465
  2394     01C3  084E               	movf	___flmul@b^(0+128),w
  2395     01C4  00A0               	movwf	__Umul8_16@multiplicand^(0+128)
  2396     01C5  0852               	movf	___flmul@a^(0+128),w
  2397     01C6  120A  158A  21EF  120A  118A  	fcall	__Umul8_16
  2398     01CB  1683               	bsf	3,5	;RP0=1, select bank1
  2399     01CC  1303               	bcf	3,6	;RP1=0, select bank1
  2400     01CD  0821               	movf	(?__Umul8_16+1)^(0+128),w
  2401     01CE  00E7               	movwf	(___flmul@temp+1)^(0+128)
  2402     01CF  0820               	movf	?__Umul8_16^(0+128),w
  2403     01D0  00E6               	movwf	___flmul@temp^(0+128)
  2404     01D1                     l2454:
  2405     01D1  0866               	movf	___flmul@temp^(0+128),w
  2406     01D2  00D6               	movwf	??___flmul^(0+128)
  2407     01D3  0867               	movf	(___flmul@temp+1)^(0+128),w
  2408     01D4  00D7               	movwf	(??___flmul^(0+128)+1)
  2409     01D5  01D8               	clrf	(??___flmul^(0+128)+2)
  2410     01D6  01D9               	clrf	(??___flmul^(0+128)+3)
  2411     01D7  0856               	movf	??___flmul^(0+128),w
  2412     01D8  07DC               	addwf	___flmul@grs^(0+128),f
  2413     01D9  0857               	movf	(??___flmul+1)^(0+128),w
  2414     01DA  1103               	clrz
  2415     01DB  1803               	skipnc
  2416     01DC  3E01               	addlw	1
  2417     01DD  1903               	skipnz
  2418     01DE  29E0               	goto	u3471
  2419     01DF  07DD               	addwf	(___flmul@grs+1)^(0+128),f
  2420     01E0                     u3471:
  2421     01E0  0858               	movf	(??___flmul+2)^(0+128),w
  2422     01E1  1103               	clrz
  2423     01E2  1803               	skipnc
  2424     01E3  3E01               	addlw	1
  2425     01E4  1903               	skipnz
  2426     01E5  29E7               	goto	u3472
  2427     01E6  07DE               	addwf	(___flmul@grs+2)^(0+128),f
  2428     01E7                     u3472:
  2429     01E7  0859               	movf	(??___flmul+3)^(0+128),w
  2430     01E8  1103               	clrz
  2431     01E9  1803               	skipnc
  2432     01EA  3E01               	addlw	1
  2433     01EB  1903               	skipnz
  2434     01EC  29EE               	goto	u3473
  2435     01ED  07DF               	addwf	(___flmul@grs+3)^(0+128),f
  2436     01EE                     u3473:
  2437     01EE                     l2456:
  2438     01EE  084F               	movf	(___flmul@b^(0+128)+1),w
  2439     01EF  00A0               	movwf	__Umul8_16@multiplicand^(0+128)
  2440     01F0  0854               	movf	(___flmul@a^(0+128)+2),w
  2441     01F1  120A  158A  21EF  120A  118A  	fcall	__Umul8_16
  2442     01F6  1683               	bsf	3,5	;RP0=1, select bank1
  2443     01F7  1303               	bcf	3,6	;RP1=0, select bank1
  2444     01F8  0821               	movf	(?__Umul8_16+1)^(0+128),w
  2445     01F9  00E7               	movwf	(___flmul@temp+1)^(0+128)
  2446     01FA  0820               	movf	?__Umul8_16^(0+128),w
  2447     01FB  00E6               	movwf	___flmul@temp^(0+128)
  2448     01FC  0866               	movf	___flmul@temp^(0+128),w
  2449     01FD  00D6               	movwf	??___flmul^(0+128)
  2450     01FE  0867               	movf	(___flmul@temp+1)^(0+128),w
  2451     01FF  00D7               	movwf	(??___flmul^(0+128)+1)
  2452     0200  01D8               	clrf	(??___flmul^(0+128)+2)
  2453     0201  01D9               	clrf	(??___flmul^(0+128)+3)
  2454     0202  0856               	movf	??___flmul^(0+128),w
  2455     0203  07E2               	addwf	___flmul@prod^(0+128),f
  2456     0204  0857               	movf	(??___flmul+1)^(0+128),w
  2457     0205  1103               	clrz
  2458     0206  1803               	skipnc
  2459     0207  3E01               	addlw	1
  2460     0208  1903               	skipnz
  2461     0209  2A0B               	goto	u3481
  2462     020A  07E3               	addwf	(___flmul@prod+1)^(0+128),f
  2463     020B                     u3481:
  2464     020B  0858               	movf	(??___flmul+2)^(0+128),w
  2465     020C  1103               	clrz
  2466     020D  1803               	skipnc
  2467     020E  3E01               	addlw	1
  2468     020F  1903               	skipnz
  2469     0210  2A12               	goto	u3482
  2470     0211  07E4               	addwf	(___flmul@prod+2)^(0+128),f
  2471     0212                     u3482:
  2472     0212  0859               	movf	(??___flmul+3)^(0+128),w
  2473     0213  1103               	clrz
  2474     0214  1803               	skipnc
  2475     0215  3E01               	addlw	1
  2476     0216  1903               	skipnz
  2477     0217  2A19               	goto	u3483
  2478     0218  07E5               	addwf	(___flmul@prod+3)^(0+128),f
  2479     0219                     u3483:
  2480     0219                     l2458:
  2481     0219  0850               	movf	(___flmul@b^(0+128)+2),w
  2482     021A  00A0               	movwf	__Umul8_16@multiplicand^(0+128)
  2483     021B  0853               	movf	(___flmul@a^(0+128)+1),w
  2484     021C  120A  158A  21EF  120A  118A  	fcall	__Umul8_16
  2485     0221  1683               	bsf	3,5	;RP0=1, select bank1
  2486     0222  1303               	bcf	3,6	;RP1=0, select bank1
  2487     0223  0821               	movf	(?__Umul8_16+1)^(0+128),w
  2488     0224  00E7               	movwf	(___flmul@temp+1)^(0+128)
  2489     0225  0820               	movf	?__Umul8_16^(0+128),w
  2490     0226  00E6               	movwf	___flmul@temp^(0+128)
  2491     0227                     l2460:
  2492     0227  0866               	movf	___flmul@temp^(0+128),w
  2493     0228  00D6               	movwf	??___flmul^(0+128)
  2494     0229  0867               	movf	(___flmul@temp+1)^(0+128),w
  2495     022A  00D7               	movwf	(??___flmul^(0+128)+1)
  2496     022B  01D8               	clrf	(??___flmul^(0+128)+2)
  2497     022C  01D9               	clrf	(??___flmul^(0+128)+3)
  2498     022D  0856               	movf	??___flmul^(0+128),w
  2499     022E  07E2               	addwf	___flmul@prod^(0+128),f
  2500     022F  0857               	movf	(??___flmul+1)^(0+128),w
  2501     0230  1103               	clrz
  2502     0231  1803               	skipnc
  2503     0232  3E01               	addlw	1
  2504     0233  1903               	skipnz
  2505     0234  2A36               	goto	u3491
  2506     0235  07E3               	addwf	(___flmul@prod+1)^(0+128),f
  2507     0236                     u3491:
  2508     0236  0858               	movf	(??___flmul+2)^(0+128),w
  2509     0237  1103               	clrz
  2510     0238  1803               	skipnc
  2511     0239  3E01               	addlw	1
  2512     023A  1903               	skipnz
  2513     023B  2A3D               	goto	u3492
  2514     023C  07E4               	addwf	(___flmul@prod+2)^(0+128),f
  2515     023D                     u3492:
  2516     023D  0859               	movf	(??___flmul+3)^(0+128),w
  2517     023E  1103               	clrz
  2518     023F  1803               	skipnc
  2519     0240  3E01               	addlw	1
  2520     0241  1903               	skipnz
  2521     0242  2A44               	goto	u3493
  2522     0243  07E5               	addwf	(___flmul@prod+3)^(0+128),f
  2523     0244                     u3493:
  2524     0244  0850               	movf	(___flmul@b^(0+128)+2),w
  2525     0245  00A0               	movwf	__Umul8_16@multiplicand^(0+128)
  2526     0246  0854               	movf	(___flmul@a^(0+128)+2),w
  2527     0247  120A  158A  21EF  120A  118A  	fcall	__Umul8_16
  2528     024C  1683               	bsf	3,5	;RP0=1, select bank1
  2529     024D  1303               	bcf	3,6	;RP1=0, select bank1
  2530     024E  0821               	movf	(?__Umul8_16+1)^(0+128),w
  2531     024F  00E7               	movwf	(___flmul@temp+1)^(0+128)
  2532     0250  0820               	movf	?__Umul8_16^(0+128),w
  2533     0251  00E6               	movwf	___flmul@temp^(0+128)
  2534     0252                     l2462:
  2535     0252  0866               	movf	___flmul@temp^(0+128),w
  2536     0253  00D6               	movwf	??___flmul^(0+128)
  2537     0254  0867               	movf	(___flmul@temp+1)^(0+128),w
  2538     0255  00D7               	movwf	(??___flmul^(0+128)+1)
  2539     0256  01D8               	clrf	(??___flmul^(0+128)+2)
  2540     0257  01D9               	clrf	(??___flmul^(0+128)+3)
  2541     0258  3008               	movlw	8
  2542     0259                     u3505:
  2543     0259  1003               	clrc
  2544     025A  0DD6               	rlf	??___flmul^(0+128),f
  2545     025B  0DD7               	rlf	(??___flmul^(0+128)+1),f
  2546     025C  0DD8               	rlf	(??___flmul^(0+128)+2),f
  2547     025D  0DD9               	rlf	(??___flmul^(0+128)+3),f
  2548     025E                     u3500:
  2549     025E  3EFF               	addlw	-1
  2550     025F  1D03               	skipz
  2551     0260  2A59               	goto	u3505
  2552     0261  0856               	movf	??___flmul^(0+128),w
  2553     0262  07E2               	addwf	___flmul@prod^(0+128),f
  2554     0263  0857               	movf	(??___flmul+1)^(0+128),w
  2555     0264  1103               	clrz
  2556     0265  1803               	skipnc
  2557     0266  3E01               	addlw	1
  2558     0267  1903               	skipnz
  2559     0268  2A6A               	goto	u3511
  2560     0269  07E3               	addwf	(___flmul@prod+1)^(0+128),f
  2561     026A                     u3511:
  2562     026A  0858               	movf	(??___flmul+2)^(0+128),w
  2563     026B  1103               	clrz
  2564     026C  1803               	skipnc
  2565     026D  3E01               	addlw	1
  2566     026E  1903               	skipnz
  2567     026F  2A71               	goto	u3512
  2568     0270  07E4               	addwf	(___flmul@prod+2)^(0+128),f
  2569     0271                     u3512:
  2570     0271  0859               	movf	(??___flmul+3)^(0+128),w
  2571     0272  1103               	clrz
  2572     0273  1803               	skipnc
  2573     0274  3E01               	addlw	1
  2574     0275  1903               	skipnz
  2575     0276  2A78               	goto	u3513
  2576     0277  07E5               	addwf	(___flmul@prod+3)^(0+128),f
  2577     0278                     u3513:
  2578     0278                     l2464:
  2579     0278  085C               	movf	___flmul@grs^(0+128),w
  2580     0279  00D6               	movwf	??___flmul^(0+128)
  2581     027A  085D               	movf	(___flmul@grs+1)^(0+128),w
  2582     027B  00D7               	movwf	(??___flmul^(0+128)+1)
  2583     027C  085E               	movf	(___flmul@grs+2)^(0+128),w
  2584     027D  00D8               	movwf	(??___flmul^(0+128)+2)
  2585     027E  085F               	movf	(___flmul@grs+3)^(0+128),w
  2586     027F  00D9               	movwf	(??___flmul^(0+128)+3)
  2587     0280  3018               	movlw	24
  2588     0281                     u3525:
  2589     0281  1003               	clrc
  2590     0282  0CD9               	rrf	(??___flmul^(0+128)+3),f
  2591     0283  0CD8               	rrf	(??___flmul^(0+128)+2),f
  2592     0284  0CD7               	rrf	(??___flmul^(0+128)+1),f
  2593     0285  0CD6               	rrf	??___flmul^(0+128),f
  2594     0286                     u3520:
  2595     0286  3EFF               	addlw	-1
  2596     0287  1D03               	skipz
  2597     0288  2A81               	goto	u3525
  2598     0289  0856               	movf	??___flmul^(0+128),w
  2599     028A  07E2               	addwf	___flmul@prod^(0+128),f
  2600     028B  0857               	movf	(??___flmul+1)^(0+128),w
  2601     028C  1103               	clrz
  2602     028D  1803               	skipnc
  2603     028E  3E01               	addlw	1
  2604     028F  1903               	skipnz
  2605     0290  2A92               	goto	u3531
  2606     0291  07E3               	addwf	(___flmul@prod+1)^(0+128),f
  2607     0292                     u3531:
  2608     0292  0858               	movf	(??___flmul+2)^(0+128),w
  2609     0293  1103               	clrz
  2610     0294  1803               	skipnc
  2611     0295  3E01               	addlw	1
  2612     0296  1903               	skipnz
  2613     0297  2A99               	goto	u3532
  2614     0298  07E4               	addwf	(___flmul@prod+2)^(0+128),f
  2615     0299                     u3532:
  2616     0299  0859               	movf	(??___flmul+3)^(0+128),w
  2617     029A  1103               	clrz
  2618     029B  1803               	skipnc
  2619     029C  3E01               	addlw	1
  2620     029D  1903               	skipnz
  2621     029E  2AA0               	goto	u3533
  2622     029F  07E5               	addwf	(___flmul@prod+3)^(0+128),f
  2623     02A0                     u3533:
  2624     02A0                     l2466:
  2625     02A0  3008               	movlw	8
  2626     02A1  00D6               	movwf	??___flmul^(0+128)
  2627     02A2                     u3545:
  2628     02A2  1003               	clrc
  2629     02A3  0DDC               	rlf	___flmul@grs^(0+128),f
  2630     02A4  0DDD               	rlf	(___flmul@grs+1)^(0+128),f
  2631     02A5  0DDE               	rlf	(___flmul@grs+2)^(0+128),f
  2632     02A6  0DDF               	rlf	(___flmul@grs+3)^(0+128),f
  2633     02A7  0BD6               	decfsz	??___flmul^(0+128),f
  2634     02A8  2AA2               	goto	u3545
  2635     02A9                     l2468:
  2636     02A9  0861               	movf	___flmul@bexp^(0+128),w
  2637     02AA  0760               	addwf	___flmul@aexp^(0+128),w
  2638     02AB  00D6               	movwf	??___flmul^(0+128)
  2639     02AC  01D7               	clrf	(??___flmul^(0+128)+1)
  2640     02AD  0DD7               	rlf	(??___flmul+1)^(0+128),f
  2641     02AE  0856               	movf	??___flmul^(0+128),w
  2642     02AF  3E82               	addlw	130
  2643     02B0  00E6               	movwf	___flmul@temp^(0+128)
  2644     02B1  0857               	movf	(??___flmul+1)^(0+128),w
  2645     02B2  1803               	skipnc
  2646     02B3  3E01               	addlw	1
  2647     02B4  3EFF               	addlw	255
  2648     02B5  00E7               	movwf	(___flmul@temp+1)^(0+128)
  2649     02B6  2AD4               	goto	l2480
  2650     02B7                     l2470:
  2651     02B7  3001               	movlw	1
  2652     02B8  00D6               	movwf	??___flmul^(0+128)
  2653     02B9                     u3555:
  2654     02B9  1003               	clrc
  2655     02BA  0DE2               	rlf	___flmul@prod^(0+128),f
  2656     02BB  0DE3               	rlf	(___flmul@prod+1)^(0+128),f
  2657     02BC  0DE4               	rlf	(___flmul@prod+2)^(0+128),f
  2658     02BD  0DE5               	rlf	(___flmul@prod+3)^(0+128),f
  2659     02BE  0BD6               	decfsz	??___flmul^(0+128),f
  2660     02BF  2AB9               	goto	u3555
  2661     02C0                     l2472:
  2662     02C0  1FDF               	btfss	(___flmul@grs+3)^(0+128),7
  2663     02C1  2AC3               	goto	u3561
  2664     02C2  2AC4               	goto	u3560
  2665     02C3                     u3561:
  2666     02C3  2AC5               	goto	l2476
  2667     02C4                     u3560:
  2668     02C4                     l2474:
  2669     02C4  1462               	bsf	___flmul@prod^(0+128),0
  2670     02C5                     l2476:
  2671     02C5  3001               	movlw	1
  2672     02C6  00D6               	movwf	??___flmul^(0+128)
  2673     02C7                     u3575:
  2674     02C7  1003               	clrc
  2675     02C8  0DDC               	rlf	___flmul@grs^(0+128),f
  2676     02C9  0DDD               	rlf	(___flmul@grs+1)^(0+128),f
  2677     02CA  0DDE               	rlf	(___flmul@grs+2)^(0+128),f
  2678     02CB  0DDF               	rlf	(___flmul@grs+3)^(0+128),f
  2679     02CC  0BD6               	decfsz	??___flmul^(0+128),f
  2680     02CD  2AC7               	goto	u3575
  2681     02CE                     l2478:
  2682     02CE  30FF               	movlw	255
  2683     02CF  07E6               	addwf	___flmul@temp^(0+128),f
  2684     02D0  1803               	skipnc
  2685     02D1  0AE7               	incf	(___flmul@temp+1)^(0+128),f
  2686     02D2  30FF               	movlw	255
  2687     02D3  07E7               	addwf	(___flmul@temp+1)^(0+128),f
  2688     02D4                     l2480:
  2689     02D4  1FE4               	btfss	(___flmul@prod+2)^(0+128),7
  2690     02D5  2AD7               	goto	u3581
  2691     02D6  2AD8               	goto	u3580
  2692     02D7                     u3581:
  2693     02D7  2AB7               	goto	l2470
  2694     02D8                     u3580:
  2695     02D8                     l2482:
  2696     02D8  01E0               	clrf	___flmul@aexp^(0+128)
  2697     02D9                     l2484:
  2698     02D9  1FDF               	btfss	(___flmul@grs+3)^(0+128),7
  2699     02DA  2ADC               	goto	u3591
  2700     02DB  2ADD               	goto	u3590
  2701     02DC                     u3591:
  2702     02DC  2AF9               	goto	l2492
  2703     02DD                     u3590:
  2704     02DD                     l2486:
  2705     02DD  30FF               	movlw	255
  2706     02DE  055C               	andwf	___flmul@grs^(0+128),w
  2707     02DF  00D6               	movwf	??___flmul^(0+128)
  2708     02E0  30FF               	movlw	255
  2709     02E1  055D               	andwf	(___flmul@grs+1)^(0+128),w
  2710     02E2  00D7               	movwf	(??___flmul^(0+128)+1)
  2711     02E3  30FF               	movlw	255
  2712     02E4  055E               	andwf	(___flmul@grs+2)^(0+128),w
  2713     02E5  00D8               	movwf	(??___flmul^(0+128)+2)
  2714     02E6  307F               	movlw	127
  2715     02E7  055F               	andwf	(___flmul@grs+3)^(0+128),w
  2716     02E8  00D9               	movwf	(??___flmul^(0+128)+3)
  2717     02E9  0859               	movf	(??___flmul+3)^(0+128),w
  2718     02EA  0458               	iorwf	(??___flmul+2)^(0+128),w
  2719     02EB  0457               	iorwf	(??___flmul+1)^(0+128),w
  2720     02EC  0456               	iorwf	??___flmul^(0+128),w
  2721     02ED  1903               	skipnz
  2722     02EE  2AF0               	goto	u3601
  2723     02EF  2AF1               	goto	u3600
  2724     02F0                     u3601:
  2725     02F0  2AF4               	goto	l707
  2726     02F1                     u3600:
  2727     02F1                     l2488:
  2728     02F1  01E0               	clrf	___flmul@aexp^(0+128)
  2729     02F2  0AE0               	incf	___flmul@aexp^(0+128),f
  2730     02F3  2AF9               	goto	l2492
  2731     02F4                     l707:
  2732     02F4  1C62               	btfss	___flmul@prod^(0+128),0
  2733     02F5  2AF7               	goto	u3611
  2734     02F6  2AF8               	goto	u3610
  2735     02F7                     u3611:
  2736     02F7  2AF9               	goto	l2492
  2737     02F8                     u3610:
  2738     02F8  2AF1               	goto	l2488
  2739     02F9                     l2492:
  2740     02F9  0860               	movf	___flmul@aexp^(0+128),w
  2741     02FA  1903               	btfsc	3,2
  2742     02FB  2AFD               	goto	u3621
  2743     02FC  2AFE               	goto	u3620
  2744     02FD                     u3621:
  2745     02FD  2B2F               	goto	l2502
  2746     02FE                     u3620:
  2747     02FE                     l2494:
  2748     02FE  3001               	movlw	1
  2749     02FF  07E2               	addwf	___flmul@prod^(0+128),f
  2750     0300  3000               	movlw	0
  2751     0301  1803               	skipnc
  2752     0302  3001               	movlw	1
  2753     0303  07E3               	addwf	(___flmul@prod+1)^(0+128),f
  2754     0304  3000               	movlw	0
  2755     0305  1803               	skipnc
  2756     0306  3001               	movlw	1
  2757     0307  07E4               	addwf	(___flmul@prod+2)^(0+128),f
  2758     0308  3000               	movlw	0
  2759     0309  1803               	skipnc
  2760     030A  3001               	movlw	1
  2761     030B  07E5               	addwf	(___flmul@prod+3)^(0+128),f
  2762     030C                     l2496:
  2763     030C  1C65               	btfss	(___flmul@prod+3)^(0+128),0
  2764     030D  2B0F               	goto	u3631
  2765     030E  2B10               	goto	u3630
  2766     030F                     u3631:
  2767     030F  2B2F               	goto	l2502
  2768     0310                     u3630:
  2769     0310                     l2498:
  2770     0310  0862               	movf	___flmul@prod^(0+128),w
  2771     0311  00D6               	movwf	??___flmul^(0+128)
  2772     0312  0863               	movf	(___flmul@prod+1)^(0+128),w
  2773     0313  00D7               	movwf	(??___flmul^(0+128)+1)
  2774     0314  0864               	movf	(___flmul@prod+2)^(0+128),w
  2775     0315  00D8               	movwf	(??___flmul^(0+128)+2)
  2776     0316  0865               	movf	(___flmul@prod+3)^(0+128),w
  2777     0317  00D9               	movwf	(??___flmul^(0+128)+3)
  2778     0318  3001               	movlw	1
  2779     0319  00DA               	movwf	(??___flmul+4)^(0+128)
  2780     031A                     u3645:
  2781     031A  0D59               	rlf	(??___flmul^(0+128)+3),w
  2782     031B  0CD9               	rrf	(??___flmul^(0+128)+3),f
  2783     031C  0CD8               	rrf	(??___flmul^(0+128)+2),f
  2784     031D  0CD7               	rrf	(??___flmul^(0+128)+1),f
  2785     031E  0CD6               	rrf	??___flmul^(0+128),f
  2786     031F                     u3640:
  2787     031F  0BDA               	decfsz	(??___flmul+4)^(0+128),f
  2788     0320  2B1A               	goto	u3645
  2789     0321  0859               	movf	(??___flmul+3)^(0+128),w
  2790     0322  00E5               	movwf	(___flmul@prod+3)^(0+128)
  2791     0323  0858               	movf	(??___flmul+2)^(0+128),w
  2792     0324  00E4               	movwf	(___flmul@prod+2)^(0+128)
  2793     0325  0857               	movf	(??___flmul+1)^(0+128),w
  2794     0326  00E3               	movwf	(___flmul@prod+1)^(0+128)
  2795     0327  0856               	movf	??___flmul^(0+128),w
  2796     0328  00E2               	movwf	___flmul@prod^(0+128)
  2797     0329                     l2500:
  2798     0329  3001               	movlw	1
  2799     032A  07E6               	addwf	___flmul@temp^(0+128),f
  2800     032B  1803               	skipnc
  2801     032C  0AE7               	incf	(___flmul@temp+1)^(0+128),f
  2802     032D  3000               	movlw	0
  2803     032E  07E7               	addwf	(___flmul@temp+1)^(0+128),f
  2804     032F                     l2502:
  2805     032F  0867               	movf	(___flmul@temp+1)^(0+128),w
  2806     0330  3A80               	xorlw	128
  2807     0331  00FF               	movwf	btemp+1
  2808     0332  3080               	movlw	128
  2809     0333  027F               	subwf	btemp+1,w
  2810     0334  1D03               	skipz
  2811     0335  2B38               	goto	u3655
  2812     0336  30FF               	movlw	255
  2813     0337  0266               	subwf	___flmul@temp^(0+128),w
  2814     0338                     u3655:
  2815     0338  1C03               	skipc
  2816     0339  2B3B               	goto	u3651
  2817     033A  2B3C               	goto	u3650
  2818     033B                     u3651:
  2819     033B  2B47               	goto	l2506
  2820     033C                     u3650:
  2821     033C                     l2504:
  2822     033C  307F               	movlw	127
  2823     033D  1683               	bsf	3,5	;RP0=1, select bank1
  2824     033E  1303               	bcf	3,6	;RP1=0, select bank1
  2825     033F  00E5               	movwf	(___flmul@prod+3)^(0+128)
  2826     0340  3080               	movlw	128
  2827     0341  00E4               	movwf	(___flmul@prod+2)^(0+128)
  2828     0342  3000               	movlw	0
  2829     0343  00E3               	movwf	(___flmul@prod+1)^(0+128)
  2830     0344  3000               	movlw	0
  2831     0345  00E2               	movwf	___flmul@prod^(0+128)
  2832     0346  2B78               	goto	l2520
  2833     0347                     l2506:
  2834     0347  1683               	bsf	3,5	;RP0=1, select bank1
  2835     0348  1303               	bcf	3,6	;RP1=0, select bank1
  2836     0349  0867               	movf	(___flmul@temp+1)^(0+128),w
  2837     034A  3A80               	xorlw	128
  2838     034B  00FF               	movwf	btemp+1
  2839     034C  3080               	movlw	128
  2840     034D  027F               	subwf	btemp+1,w
  2841     034E  1D03               	skipz
  2842     034F  2B52               	goto	u3665
  2843     0350  3001               	movlw	1
  2844     0351  0266               	subwf	___flmul@temp^(0+128),w
  2845     0352                     u3665:
  2846     0352  1803               	skipnc
  2847     0353  2B55               	goto	u3661
  2848     0354  2B56               	goto	u3660
  2849     0355                     u3661:
  2850     0355  2B62               	goto	l2512
  2851     0356                     u3660:
  2852     0356                     l2508:
  2853     0356  3000               	movlw	0
  2854     0357  1683               	bsf	3,5	;RP0=1, select bank1
  2855     0358  1303               	bcf	3,6	;RP1=0, select bank1
  2856     0359  00E5               	movwf	(___flmul@prod+3)^(0+128)
  2857     035A  3000               	movlw	0
  2858     035B  00E4               	movwf	(___flmul@prod+2)^(0+128)
  2859     035C  3000               	movlw	0
  2860     035D  00E3               	movwf	(___flmul@prod+1)^(0+128)
  2861     035E  3000               	movlw	0
  2862     035F  00E2               	movwf	___flmul@prod^(0+128)
  2863     0360                     l2510:
  2864     0360  01DB               	clrf	___flmul@sign^(0+128)
  2865     0361  2B78               	goto	l2520
  2866     0362                     l2512:
  2867     0362  1683               	bsf	3,5	;RP0=1, select bank1
  2868     0363  1303               	bcf	3,6	;RP1=0, select bank1
  2869     0364  0866               	movf	___flmul@temp^(0+128),w
  2870     0365  00E1               	movwf	___flmul@bexp^(0+128)
  2871     0366  30FF               	movlw	255
  2872     0367  05E2               	andwf	___flmul@prod^(0+128),f
  2873     0368  30FF               	movlw	255
  2874     0369  05E3               	andwf	(___flmul@prod+1)^(0+128),f
  2875     036A  307F               	movlw	127
  2876     036B  05E4               	andwf	(___flmul@prod+2)^(0+128),f
  2877     036C  3000               	movlw	0
  2878     036D  05E5               	andwf	(___flmul@prod+3)^(0+128),f
  2879     036E                     l2514:
  2880     036E  1C61               	btfss	___flmul@bexp^(0+128),0
  2881     036F  2B71               	goto	u3671
  2882     0370  2B72               	goto	u3670
  2883     0371                     u3671:
  2884     0371  2B73               	goto	l2518
  2885     0372                     u3670:
  2886     0372                     l2516:
  2887     0372  17E4               	bsf	(___flmul@prod^(0+128)+2),7
  2888     0373                     l2518:
  2889     0373  0861               	movf	___flmul@bexp^(0+128),w
  2890     0374  00D6               	movwf	??___flmul^(0+128)
  2891     0375  1003               	clrc
  2892     0376  0C56               	rrf	??___flmul^(0+128),w
  2893     0377  00E5               	movwf	(___flmul@prod^(0+128)+3)
  2894     0378                     l2520:
  2895     0378  085B               	movf	___flmul@sign^(0+128),w
  2896     0379  00FF               	movwf	btemp+1
  2897     037A  087F               	movf	btemp+1,w
  2898     037B  04E5               	iorwf	(___flmul@prod^(0+128)+3),f
  2899     037C                     l2522:
  2900     037C  0865               	movf	(___flmul@prod+3)^(0+128),w
  2901     037D  00D1               	movwf	(?___flmul+3)^(0+128)
  2902     037E  0864               	movf	(___flmul@prod+2)^(0+128),w
  2903     037F  00D0               	movwf	(?___flmul+2)^(0+128)
  2904     0380  0863               	movf	(___flmul@prod+1)^(0+128),w
  2905     0381  00CF               	movwf	(?___flmul+1)^(0+128)
  2906     0382  0862               	movf	___flmul@prod^(0+128),w
  2907     0383  00CE               	movwf	?___flmul^(0+128)
  2908     0384                     l701:
  2909     0384  0008               	return
  2910     0385                     __end_of___flmul:
  2911                           
  2912                           	psect	text9
  2913     09EF                     __ptext9:	
  2914 ;; *************** function __Umul8_16 *****************
  2915 ;; Defined at:
  2916 ;;		line 4 in file "C:\Program Files\Microchip\xc8\v2.41\pic\sources\c90\common\Umul8_16.c"
  2917 ;; Parameters:    Size  Location     Type
  2918 ;;  multiplier      1    wreg     unsigned char 
  2919 ;;  multiplicand    1    0[BANK1 ] unsigned char 
  2920 ;; Auto vars:     Size  Location     Type
  2921 ;;  multiplier      1    8[BANK1 ] unsigned char 
  2922 ;;  word_mpld       2    6[BANK1 ] unsigned int 
  2923 ;;  product         2    4[BANK1 ] unsigned int 
  2924 ;; Return value:  Size  Location     Type
  2925 ;;                  2    0[BANK1 ] unsigned int 
  2926 ;; Registers used:
  2927 ;;		wreg, status,2, status,0
  2928 ;; Tracked objects:
  2929 ;;		On entry : 0/0
  2930 ;;		On exit  : 0/0
  2931 ;;		Unchanged: 0/0
  2932 ;; Data sizes:     COMMON   BANK0   BANK1   BANK3   BANK2
  2933 ;;      Params:         0       0       2       0       0
  2934 ;;      Locals:         0       0       5       0       0
  2935 ;;      Temps:          0       0       2       0       0
  2936 ;;      Totals:         0       0       9       0       0
  2937 ;;Total ram usage:        9 bytes
  2938 ;; Hardware stack levels used: 1
  2939 ;; Hardware stack levels required when called: 4
  2940 ;; This function calls:
  2941 ;;		Nothing
  2942 ;; This function is called by:
  2943 ;;		___flmul
  2944 ;; This function uses a non-reentrant model
  2945 ;;
  2946                           
  2947     09EF                     __Umul8_16:	
  2948                           ;psect for function __Umul8_16
  2949                           
  2950                           
  2951                           ;incstack = 0
  2952                           ; Regs used in __Umul8_16: [wreg+status,2+status,0]
  2953                           ;__Umul8_16@multiplier stored from wreg
  2954     09EF  1683               	bsf	3,5	;RP0=1, select bank1
  2955     09F0  1303               	bcf	3,6	;RP1=0, select bank1
  2956     09F1  00A8               	movwf	__Umul8_16@multiplier^(0+128)
  2957     09F2                     l1998:
  2958     09F2  01A4               	clrf	__Umul8_16@product^(0+128)
  2959     09F3  01A5               	clrf	(__Umul8_16@product+1)^(0+128)
  2960     09F4                     l2000:
  2961     09F4  0820               	movf	__Umul8_16@multiplicand^(0+128),w
  2962     09F5  00A2               	movwf	??__Umul8_16^(0+128)
  2963     09F6  01A3               	clrf	(??__Umul8_16^(0+128)+1)
  2964     09F7  0822               	movf	??__Umul8_16^(0+128),w
  2965     09F8  00A6               	movwf	__Umul8_16@word_mpld^(0+128)
  2966     09F9  0823               	movf	(??__Umul8_16+1)^(0+128),w
  2967     09FA  00A7               	movwf	(__Umul8_16@word_mpld+1)^(0+128)
  2968     09FB                     l2002:
  2969     09FB  1C28               	btfss	__Umul8_16@multiplier^(0+128),0
  2970     09FC  29FE               	goto	u2441
  2971     09FD  29FF               	goto	u2440
  2972     09FE                     u2441:
  2973     09FE  2A05               	goto	l720
  2974     09FF                     u2440:
  2975     09FF                     l2004:
  2976     09FF  0826               	movf	__Umul8_16@word_mpld^(0+128),w
  2977     0A00  07A4               	addwf	__Umul8_16@product^(0+128),f
  2978     0A01  1803               	skipnc
  2979     0A02  0AA5               	incf	(__Umul8_16@product+1)^(0+128),f
  2980     0A03  0827               	movf	(__Umul8_16@word_mpld+1)^(0+128),w
  2981     0A04  07A5               	addwf	(__Umul8_16@product+1)^(0+128),f
  2982     0A05                     l720:
  2983     0A05  3001               	movlw	1
  2984     0A06                     u2455:
  2985     0A06  1003               	clrc
  2986     0A07  0DA6               	rlf	__Umul8_16@word_mpld^(0+128),f
  2987     0A08  0DA7               	rlf	(__Umul8_16@word_mpld+1)^(0+128),f
  2988     0A09  3EFF               	addlw	-1
  2989     0A0A  1D03               	skipz
  2990     0A0B  2A06               	goto	u2455
  2991     0A0C  1003               	clrc
  2992     0A0D  0CA8               	rrf	__Umul8_16@multiplier^(0+128),f
  2993     0A0E                     l2006:
  2994     0A0E  0828               	movf	__Umul8_16@multiplier^(0+128),w
  2995     0A0F  1D03               	btfss	3,2
  2996     0A10  2A12               	goto	u2461
  2997     0A11  2A13               	goto	u2460
  2998     0A12                     u2461:
  2999     0A12  29FB               	goto	l2002
  3000     0A13                     u2460:
  3001     0A13                     l2008:
  3002     0A13  0825               	movf	(__Umul8_16@product+1)^(0+128),w
  3003     0A14  00A1               	movwf	(?__Umul8_16+1)^(0+128)
  3004     0A15  0824               	movf	__Umul8_16@product^(0+128),w
  3005     0A16  00A0               	movwf	?__Umul8_16^(0+128)
  3006     0A17                     l722:
  3007     0A17  0008               	return
  3008     0A18                     __end_of__Umul8_16:
  3009                           
  3010                           	psect	text10
  3011     0E0A                     __ptext10:	
  3012 ;; *************** function _ServoAngle *****************
  3013 ;; Defined at:
  3014 ;;		line 44 in file "XC8_Servo_Compare.c"
  3015 ;; Parameters:    Size  Location     Type
  3016 ;;  angle           1    wreg     unsigned char 
  3017 ;; Auto vars:     Size  Location     Type
  3018 ;;  angle           1   66[BANK1 ] unsigned char 
  3019 ;;  dc              2   64[BANK1 ] unsigned int 
  3020 ;; Return value:  Size  Location     Type
  3021 ;;                  1    wreg      void 
  3022 ;; Registers used:
  3023 ;;		wreg, status,2, status,0, btemp+1, pclath, cstack
  3024 ;; Tracked objects:
  3025 ;;		On entry : 0/0
  3026 ;;		On exit  : 0/0
  3027 ;;		Unchanged: 0/0
  3028 ;; Data sizes:     COMMON   BANK0   BANK1   BANK3   BANK2
  3029 ;;      Params:         0       0       0       0       0
  3030 ;;      Locals:         0       0       3       0       0
  3031 ;;      Temps:          0       0       8       0       0
  3032 ;;      Totals:         0       0      11       0       0
  3033 ;;Total ram usage:       11 bytes
  3034 ;; Hardware stack levels used: 1
  3035 ;; Hardware stack levels required when called: 5
  3036 ;; This function calls:
  3037 ;;		___fldiv
  3038 ;;		___fltol
  3039 ;;		___lwdiv
  3040 ;;		___wmul
  3041 ;;		___xxtofl
  3042 ;; This function is called by:
  3043 ;;		_PosControl_Pot
  3044 ;; This function uses a non-reentrant model
  3045 ;;
  3046                           
  3047     0E0A                     _ServoAngle:	
  3048                           ;psect for function _ServoAngle
  3049                           
  3050                           
  3051                           ;incstack = 0
  3052                           ; Regs used in _ServoAngle: [wreg+status,2+status,0+btemp+1+pclath+cstack]
  3053                           ;ServoAngle@angle stored from wreg
  3054     0E0A  1683               	bsf	3,5	;RP0=1, select bank1
  3055     0E0B  1303               	bcf	3,6	;RP1=0, select bank1
  3056     0E0C  00E2               	movwf	ServoAngle@angle^(0+128)
  3057     0E0D                     l2336:
  3058                           
  3059                           ;XC8_Servo_Compare.c: 44: void ServoAngle(uint8_t angle);XC8_Servo_Compare.c: 45: {;XC8_
      +                          Servo_Compare.c: 46:     if(angle <= 180)
  3060     0E0D  30B5               	movlw	181
  3061     0E0E  0262               	subwf	ServoAngle@angle^(0+128),w
  3062     0E0F  1803               	skipnc
  3063     0E10  2E12               	goto	u3261
  3064     0E11  2E13               	goto	u3260
  3065     0E12                     u3261:
  3066     0E12  2E9D               	goto	l185
  3067     0E13                     u3260:
  3068     0E13                     l2338:
  3069                           
  3070                           ;XC8_Servo_Compare.c: 47:     {;XC8_Servo_Compare.c: 48:         uint16_t dc = (uint16_t
      +                          )((100 * angle) / 36.0) + TIME1 + (DC_RANGE / 20);
  3071     0E13  3064               	movlw	100
  3072     0E14  00A2               	movwf	___wmul@multiplicand^(0+128)
  3073     0E15  3000               	movlw	0
  3074     0E16  00A3               	movwf	(___wmul@multiplicand^(0+128)+1)
  3075     0E17  0862               	movf	ServoAngle@angle^(0+128),w
  3076     0E18  00D8               	movwf	??_ServoAngle^(0+128)
  3077     0E19  01D9               	clrf	(??_ServoAngle^(0+128)+1)
  3078     0E1A  0858               	movf	??_ServoAngle^(0+128),w
  3079     0E1B  00A0               	movwf	___wmul@multiplier^(0+128)
  3080     0E1C  0859               	movf	(??_ServoAngle+1)^(0+128),w
  3081     0E1D  00A1               	movwf	(___wmul@multiplier+1)^(0+128)
  3082     0E1E  120A  158A  21C8  120A  158A  	fcall	___wmul
  3083     0E23  1683               	bsf	3,5	;RP0=1, select bank1
  3084     0E24  1303               	bcf	3,6	;RP1=0, select bank1
  3085     0E25  0820               	movf	?___wmul^(0+128),w
  3086     0E26  00A6               	movwf	___xxtofl@val^(0+128)
  3087     0E27  0821               	movf	(?___wmul+1)^(0+128),w
  3088     0E28  00A7               	movwf	(___xxtofl@val+1)^(0+128)
  3089     0E29  3000               	movlw	0
  3090     0E2A  1BA7               	btfsc	(___xxtofl@val+1)^(0+128),7
  3091     0E2B  30FF               	movlw	255
  3092     0E2C  00A8               	movwf	(___xxtofl@val+2)^(0+128)
  3093     0E2D  00A9               	movwf	(___xxtofl@val+3)^(0+128)
  3094     0E2E  3001               	movlw	1
  3095     0E2F  120A  118A  2723  120A  158A  	fcall	___xxtofl
  3096     0E34  1683               	bsf	3,5	;RP0=1, select bank1
  3097     0E35  1303               	bcf	3,6	;RP1=0, select bank1
  3098     0E36  0829               	movf	(?___xxtofl+3)^(0+128),w
  3099     0E37  00BB               	movwf	(___fldiv@b+3)^(0+128)
  3100     0E38  0828               	movf	(?___xxtofl+2)^(0+128),w
  3101     0E39  00BA               	movwf	(___fldiv@b+2)^(0+128)
  3102     0E3A  0827               	movf	(?___xxtofl+1)^(0+128),w
  3103     0E3B  00B9               	movwf	(___fldiv@b+1)^(0+128)
  3104     0E3C  0826               	movf	?___xxtofl^(0+128),w
  3105     0E3D  00B8               	movwf	___fldiv@b^(0+128)
  3106     0E3E  3042               	movlw	66
  3107     0E3F  00B7               	movwf	(___fldiv@a+3)^(0+128)
  3108     0E40  3010               	movlw	16
  3109     0E41  00B6               	movwf	(___fldiv@a+2)^(0+128)
  3110     0E42  3000               	movlw	0
  3111     0E43  00B5               	movwf	(___fldiv@a+1)^(0+128)
  3112     0E44  3000               	movlw	0
  3113     0E45  00B4               	movwf	___fldiv@a^(0+128)
  3114     0E46  120A  118A  2385  120A  158A  	fcall	___fldiv
  3115     0E4B  1683               	bsf	3,5	;RP0=1, select bank1
  3116     0E4C  1303               	bcf	3,6	;RP1=0, select bank1
  3117     0E4D  0837               	movf	(?___fldiv+3)^(0+128),w
  3118     0E4E  00D1               	movwf	(___fltol@f1+3)^(0+128)
  3119     0E4F  0836               	movf	(?___fldiv+2)^(0+128),w
  3120     0E50  00D0               	movwf	(___fltol@f1+2)^(0+128)
  3121     0E51  0835               	movf	(?___fldiv+1)^(0+128),w
  3122     0E52  00CF               	movwf	(___fltol@f1+1)^(0+128)
  3123     0E53  0834               	movf	?___fldiv^(0+128),w
  3124     0E54  00CE               	movwf	___fltol@f1^(0+128)
  3125     0E55  120A  158A  2516  120A  158A  	fcall	___fltol
  3126     0E5A  1683               	bsf	3,5	;RP0=1, select bank1
  3127     0E5B  1303               	bcf	3,6	;RP1=0, select bank1
  3128     0E5C  084E               	movf	?___fltol^(0+128),w
  3129     0E5D  00DA               	movwf	(??_ServoAngle+2)^(0+128)
  3130     0E5E  084F               	movf	(?___fltol+1)^(0+128),w
  3131     0E5F  00DB               	movwf	((??_ServoAngle+2)^(0+128)+1)
  3132     0E60  0850               	movf	(?___fltol+2)^(0+128),w
  3133     0E61  00DC               	movwf	((??_ServoAngle+2)^(0+128)+2)
  3134     0E62  0851               	movf	(?___fltol+3)^(0+128),w
  3135     0E63  00DD               	movwf	((??_ServoAngle+2)^(0+128)+3)
  3136     0E64  3014               	movlw	20
  3137     0E65  00A0               	movwf	___lwdiv@divisor^(0+128)
  3138     0E66  3000               	movlw	0
  3139     0E67  00A1               	movwf	(___lwdiv@divisor^(0+128)+1)
  3140     0E68  1283               	bcf	3,5	;RP0=0, select bank0
  3141     0E69  1303               	bcf	3,6	;RP1=0, select bank0
  3142     0E6A  085D               	movf	_DC_RANGE+1,w
  3143     0E6B  1683               	bsf	3,5	;RP0=1, select bank1
  3144     0E6C  1303               	bcf	3,6	;RP1=0, select bank1
  3145     0E6D  00A3               	movwf	(___lwdiv@dividend+1)^(0+128)
  3146     0E6E  1283               	bcf	3,5	;RP0=0, select bank0
  3147     0E6F  1303               	bcf	3,6	;RP1=0, select bank0
  3148     0E70  085C               	movf	_DC_RANGE,w
  3149     0E71  1683               	bsf	3,5	;RP0=1, select bank1
  3150     0E72  1303               	bcf	3,6	;RP1=0, select bank1
  3151     0E73  00A2               	movwf	___lwdiv@dividend^(0+128)
  3152     0E74  120A  158A  233A  120A  158A  	fcall	___lwdiv
  3153     0E79  1683               	bsf	3,5	;RP0=1, select bank1
  3154     0E7A  1303               	bcf	3,6	;RP1=0, select bank1
  3155     0E7B  0820               	movf	?___lwdiv^(0+128),w
  3156     0E7C  075A               	addwf	(??_ServoAngle+2)^(0+128),w
  3157     0E7D  00DE               	movwf	(??_ServoAngle+6)^(0+128)
  3158     0E7E  0821               	movf	(?___lwdiv+1)^(0+128),w
  3159     0E7F  1803               	skipnc
  3160     0E80  0A21               	incf	(?___lwdiv+1)^(0+128),w
  3161     0E81  075B               	addwf	(??_ServoAngle+3)^(0+128),w
  3162     0E82  00DF               	movwf	(??_ServoAngle+7)^(0+128)
  3163     0E83  1283               	bcf	3,5	;RP0=0, select bank0
  3164     0E84  1303               	bcf	3,6	;RP1=0, select bank0
  3165     0E85  085E               	movf	_TIME1,w
  3166     0E86  1683               	bsf	3,5	;RP0=1, select bank1
  3167     0E87  1303               	bcf	3,6	;RP1=0, select bank1
  3168     0E88  075E               	addwf	(??_ServoAngle+6)^(0+128),w
  3169     0E89  00E0               	movwf	ServoAngle@dc^(0+128)
  3170     0E8A  1283               	bcf	3,5	;RP0=0, select bank0
  3171     0E8B  1303               	bcf	3,6	;RP1=0, select bank0
  3172     0E8C  085F               	movf	_TIME1+1,w
  3173     0E8D  1803               	skipnc
  3174     0E8E  0A5F               	incf	_TIME1+1,w
  3175     0E8F  1683               	bsf	3,5	;RP0=1, select bank1
  3176     0E90  1303               	bcf	3,6	;RP1=0, select bank1
  3177     0E91  075F               	addwf	(??_ServoAngle+7)^(0+128),w
  3178     0E92  00E1               	movwf	(ServoAngle@dc+1)^(0+128)
  3179     0E93                     l2340:
  3180                           
  3181                           ;XC8_Servo_Compare.c: 49:         CCPR1 = dc;
  3182     0E93  0861               	movf	(ServoAngle@dc+1)^(0+128),w
  3183     0E94  1283               	bcf	3,5	;RP0=0, select bank0
  3184     0E95  1303               	bcf	3,6	;RP1=0, select bank0
  3185     0E96  0096               	movwf	22	;volatile
  3186     0E97  1683               	bsf	3,5	;RP0=1, select bank1
  3187     0E98  1303               	bcf	3,6	;RP1=0, select bank1
  3188     0E99  0860               	movf	ServoAngle@dc^(0+128),w
  3189     0E9A  1283               	bcf	3,5	;RP0=0, select bank0
  3190     0E9B  1303               	bcf	3,6	;RP1=0, select bank0
  3191     0E9C  0095               	movwf	21	;volatile
  3192     0E9D                     l185:
  3193     0E9D  0008               	return
  3194     0E9E                     __end_of_ServoAngle:
  3195                           
  3196                           	psect	text11
  3197     0723                     __ptext11:	
  3198 ;; *************** function ___xxtofl *****************
  3199 ;; Defined at:
  3200 ;;		line 10 in file "C:\Program Files\Microchip\xc8\v2.41\pic\sources\c90\common\xxtofl.c"
  3201 ;; Parameters:    Size  Location     Type
  3202 ;;  sign            1    wreg     unsigned char 
  3203 ;;  val             4    6[BANK1 ] long 
  3204 ;; Auto vars:     Size  Location     Type
  3205 ;;  sign            1   14[BANK1 ] unsigned char 
  3206 ;;  arg             4   16[BANK1 ] unsigned long 
  3207 ;;  exp             1   15[BANK1 ] unsigned char 
  3208 ;; Return value:  Size  Location     Type
  3209 ;;                  4    6[BANK1 ] unsigned char 
  3210 ;; Registers used:
  3211 ;;		wreg, status,2, status,0, btemp+1
  3212 ;; Tracked objects:
  3213 ;;		On entry : 0/0
  3214 ;;		On exit  : 0/0
  3215 ;;		Unchanged: 0/0
  3216 ;; Data sizes:     COMMON   BANK0   BANK1   BANK3   BANK2
  3217 ;;      Params:         0       0       4       0       0
  3218 ;;      Locals:         0       0       6       0       0
  3219 ;;      Temps:          0       0       4       0       0
  3220 ;;      Totals:         0       0      14       0       0
  3221 ;;Total ram usage:       14 bytes
  3222 ;; Hardware stack levels used: 1
  3223 ;; Hardware stack levels required when called: 4
  3224 ;; This function calls:
  3225 ;;		Nothing
  3226 ;; This function is called by:
  3227 ;;		_PosControl_Pot
  3228 ;;		_ServoAngle
  3229 ;; This function uses a non-reentrant model
  3230 ;;
  3231                           
  3232     0723                     ___xxtofl:	
  3233                           ;psect for function ___xxtofl
  3234                           
  3235                           
  3236                           ;incstack = 0
  3237                           ; Regs used in ___xxtofl: [wreg+status,2+status,0+btemp+1]
  3238                           ;___xxtofl@sign stored from wreg
  3239     0723  1683               	bsf	3,5	;RP0=1, select bank1
  3240     0724  1303               	bcf	3,6	;RP1=0, select bank1
  3241     0725  00AE               	movwf	___xxtofl@sign^(0+128)
  3242     0726                     l2012:
  3243     0726  082E               	movf	___xxtofl@sign^(0+128),w
  3244     0727  1903               	btfsc	3,2
  3245     0728  2F2A               	goto	u2471
  3246     0729  2F2B               	goto	u2470
  3247     072A                     u2471:
  3248     072A  2F3F               	goto	l2018
  3249     072B                     u2470:
  3250     072B                     l2014:
  3251     072B  1FA9               	btfss	(___xxtofl@val+3)^(0+128),7
  3252     072C  2F2E               	goto	u2481
  3253     072D  2F2F               	goto	u2480
  3254     072E                     u2481:
  3255     072E  2F3F               	goto	l2018
  3256     072F                     u2480:
  3257     072F                     l2016:
  3258     072F  0926               	comf	___xxtofl@val^(0+128),w
  3259     0730  00B0               	movwf	___xxtofl@arg^(0+128)
  3260     0731  0927               	comf	(___xxtofl@val^(0+128)+1),w
  3261     0732  00B1               	movwf	(___xxtofl@arg+1)^(0+128)
  3262     0733  0928               	comf	(___xxtofl@val^(0+128)+2),w
  3263     0734  00B2               	movwf	(___xxtofl@arg+2)^(0+128)
  3264     0735  0929               	comf	(___xxtofl@val^(0+128)+3),w
  3265     0736  00B3               	movwf	(___xxtofl@arg+3)^(0+128)
  3266     0737  0AB0               	incf	___xxtofl@arg^(0+128),f
  3267     0738  1903               	skipnz
  3268     0739  0AB1               	incf	(___xxtofl@arg+1)^(0+128),f
  3269     073A  1903               	skipnz
  3270     073B  0AB2               	incf	(___xxtofl@arg+2)^(0+128),f
  3271     073C  1903               	skipnz
  3272     073D  0AB3               	incf	(___xxtofl@arg+3)^(0+128),f
  3273     073E  2F47               	goto	l745
  3274     073F                     l2018:
  3275     073F  0829               	movf	(___xxtofl@val+3)^(0+128),w
  3276     0740  00B3               	movwf	(___xxtofl@arg+3)^(0+128)
  3277     0741  0828               	movf	(___xxtofl@val+2)^(0+128),w
  3278     0742  00B2               	movwf	(___xxtofl@arg+2)^(0+128)
  3279     0743  0827               	movf	(___xxtofl@val+1)^(0+128),w
  3280     0744  00B1               	movwf	(___xxtofl@arg+1)^(0+128)
  3281     0745  0826               	movf	___xxtofl@val^(0+128),w
  3282     0746  00B0               	movwf	___xxtofl@arg^(0+128)
  3283     0747                     l745:
  3284     0747  0829               	movf	(___xxtofl@val+3)^(0+128),w
  3285     0748  0428               	iorwf	(___xxtofl@val+2)^(0+128),w
  3286     0749  0427               	iorwf	(___xxtofl@val+1)^(0+128),w
  3287     074A  0426               	iorwf	___xxtofl@val^(0+128),w
  3288     074B  1D03               	skipz
  3289     074C  2F4E               	goto	u2491
  3290     074D  2F4F               	goto	u2490
  3291     074E                     u2491:
  3292     074E  2F58               	goto	l2024
  3293     074F                     u2490:
  3294     074F                     l2020:
  3295     074F  3000               	movlw	0
  3296     0750  00A9               	movwf	(?___xxtofl+3)^(0+128)
  3297     0751  3000               	movlw	0
  3298     0752  00A8               	movwf	(?___xxtofl+2)^(0+128)
  3299     0753  3000               	movlw	0
  3300     0754  00A7               	movwf	(?___xxtofl+1)^(0+128)
  3301     0755  3000               	movlw	0
  3302     0756  00A6               	movwf	?___xxtofl^(0+128)
  3303     0757  2FDC               	goto	l747
  3304     0758                     l2024:
  3305     0758  3096               	movlw	150
  3306     0759  00AF               	movwf	___xxtofl@exp^(0+128)
  3307     075A  2F68               	goto	l2030
  3308     075B                     l2026:
  3309     075B  3001               	movlw	1
  3310     075C  00FF               	movwf	btemp+1
  3311     075D  087F               	movf	btemp+1,w
  3312     075E  07AF               	addwf	___xxtofl@exp^(0+128),f
  3313     075F                     l2028:
  3314     075F  3001               	movlw	1
  3315     0760                     u2505:
  3316     0760  1003               	clrc
  3317     0761  0CB3               	rrf	(___xxtofl@arg+3)^(0+128),f
  3318     0762  0CB2               	rrf	(___xxtofl@arg+2)^(0+128),f
  3319     0763  0CB1               	rrf	(___xxtofl@arg+1)^(0+128),f
  3320     0764  0CB0               	rrf	___xxtofl@arg^(0+128),f
  3321     0765  3EFF               	addlw	-1
  3322     0766  1D03               	skipz
  3323     0767  2F60               	goto	u2505
  3324     0768                     l2030:
  3325     0768  30FE               	movlw	254
  3326     0769  0533               	andwf	(___xxtofl@arg+3)^(0+128),w
  3327     076A  1D03               	btfss	3,2
  3328     076B  2F6D               	goto	u2511
  3329     076C  2F6E               	goto	u2510
  3330     076D                     u2511:
  3331     076D  2F5B               	goto	l2026
  3332     076E                     u2510:
  3333     076E  2F8A               	goto	l2038
  3334     076F                     l2032:
  3335     076F  3001               	movlw	1
  3336     0770  00FF               	movwf	btemp+1
  3337     0771  087F               	movf	btemp+1,w
  3338     0772  07AF               	addwf	___xxtofl@exp^(0+128),f
  3339     0773                     l2034:
  3340     0773  3001               	movlw	1
  3341     0774  07B0               	addwf	___xxtofl@arg^(0+128),f
  3342     0775  3000               	movlw	0
  3343     0776  1803               	skipnc
  3344     0777  3001               	movlw	1
  3345     0778  07B1               	addwf	(___xxtofl@arg+1)^(0+128),f
  3346     0779  3000               	movlw	0
  3347     077A  1803               	skipnc
  3348     077B  3001               	movlw	1
  3349     077C  07B2               	addwf	(___xxtofl@arg+2)^(0+128),f
  3350     077D  3000               	movlw	0
  3351     077E  1803               	skipnc
  3352     077F  3001               	movlw	1
  3353     0780  07B3               	addwf	(___xxtofl@arg+3)^(0+128),f
  3354     0781                     l2036:
  3355     0781  3001               	movlw	1
  3356     0782                     u2525:
  3357     0782  1003               	clrc
  3358     0783  0CB3               	rrf	(___xxtofl@arg+3)^(0+128),f
  3359     0784  0CB2               	rrf	(___xxtofl@arg+2)^(0+128),f
  3360     0785  0CB1               	rrf	(___xxtofl@arg+1)^(0+128),f
  3361     0786  0CB0               	rrf	___xxtofl@arg^(0+128),f
  3362     0787  3EFF               	addlw	-1
  3363     0788  1D03               	skipz
  3364     0789  2F82               	goto	u2525
  3365     078A                     l2038:
  3366     078A  30FF               	movlw	255
  3367     078B  0533               	andwf	(___xxtofl@arg+3)^(0+128),w
  3368     078C  1D03               	btfss	3,2
  3369     078D  2F8F               	goto	u2531
  3370     078E  2F90               	goto	u2530
  3371     078F                     u2531:
  3372     078F  2F6F               	goto	l2032
  3373     0790                     u2530:
  3374     0790  2F9C               	goto	l2042
  3375     0791                     l2040:
  3376     0791  3001               	movlw	1
  3377     0792  02AF               	subwf	___xxtofl@exp^(0+128),f
  3378     0793  3001               	movlw	1
  3379     0794  00AA               	movwf	??___xxtofl^(0+128)
  3380     0795                     u2545:
  3381     0795  1003               	clrc
  3382     0796  0DB0               	rlf	___xxtofl@arg^(0+128),f
  3383     0797  0DB1               	rlf	(___xxtofl@arg+1)^(0+128),f
  3384     0798  0DB2               	rlf	(___xxtofl@arg+2)^(0+128),f
  3385     0799  0DB3               	rlf	(___xxtofl@arg+3)^(0+128),f
  3386     079A  0BAA               	decfsz	??___xxtofl^(0+128),f
  3387     079B  2F95               	goto	u2545
  3388     079C                     l2042:
  3389     079C  1BB2               	btfsc	(___xxtofl@arg+2)^(0+128),7
  3390     079D  2F9F               	goto	u2551
  3391     079E  2FA0               	goto	u2550
  3392     079F                     u2551:
  3393     079F  2FA6               	goto	l758
  3394     07A0                     u2550:
  3395     07A0                     l2044:
  3396     07A0  3002               	movlw	2
  3397     07A1  022F               	subwf	___xxtofl@exp^(0+128),w
  3398     07A2  1803               	skipnc
  3399     07A3  2FA5               	goto	u2561
  3400     07A4  2FA6               	goto	u2560
  3401     07A5                     u2561:
  3402     07A5  2F91               	goto	l2040
  3403     07A6                     u2560:
  3404     07A6                     l758:
  3405     07A6  182F               	btfsc	___xxtofl@exp^(0+128),0
  3406     07A7  2FA9               	goto	u2571
  3407     07A8  2FAA               	goto	u2570
  3408     07A9                     u2571:
  3409     07A9  2FB2               	goto	l759
  3410     07AA                     u2570:
  3411     07AA                     l2046:
  3412     07AA  30FF               	movlw	255
  3413     07AB  05B0               	andwf	___xxtofl@arg^(0+128),f
  3414     07AC  30FF               	movlw	255
  3415     07AD  05B1               	andwf	(___xxtofl@arg+1)^(0+128),f
  3416     07AE  307F               	movlw	127
  3417     07AF  05B2               	andwf	(___xxtofl@arg+2)^(0+128),f
  3418     07B0  30FF               	movlw	255
  3419     07B1  05B3               	andwf	(___xxtofl@arg+3)^(0+128),f
  3420     07B2                     l759:
  3421     07B2  1003               	clrc
  3422     07B3  0CAF               	rrf	___xxtofl@exp^(0+128),f
  3423     07B4                     l2048:
  3424     07B4  082F               	movf	___xxtofl@exp^(0+128),w
  3425     07B5  00AA               	movwf	??___xxtofl^(0+128)
  3426     07B6  01AB               	clrf	(??___xxtofl^(0+128)+1)
  3427     07B7  01AC               	clrf	(??___xxtofl^(0+128)+2)
  3428     07B8  01AD               	clrf	(??___xxtofl^(0+128)+3)
  3429     07B9  3018               	movlw	24
  3430     07BA                     u2585:
  3431     07BA  1003               	clrc
  3432     07BB  0DAA               	rlf	??___xxtofl^(0+128),f
  3433     07BC  0DAB               	rlf	(??___xxtofl^(0+128)+1),f
  3434     07BD  0DAC               	rlf	(??___xxtofl^(0+128)+2),f
  3435     07BE  0DAD               	rlf	(??___xxtofl^(0+128)+3),f
  3436     07BF                     u2580:
  3437     07BF  3EFF               	addlw	-1
  3438     07C0  1D03               	skipz
  3439     07C1  2FBA               	goto	u2585
  3440     07C2  082A               	movf	??___xxtofl^(0+128),w
  3441     07C3  04B0               	iorwf	___xxtofl@arg^(0+128),f
  3442     07C4  082B               	movf	(??___xxtofl+1)^(0+128),w
  3443     07C5  04B1               	iorwf	(___xxtofl@arg+1)^(0+128),f
  3444     07C6  082C               	movf	(??___xxtofl+2)^(0+128),w
  3445     07C7  04B2               	iorwf	(___xxtofl@arg+2)^(0+128),f
  3446     07C8  082D               	movf	(??___xxtofl+3)^(0+128),w
  3447     07C9  04B3               	iorwf	(___xxtofl@arg+3)^(0+128),f
  3448     07CA                     l2050:
  3449     07CA  082E               	movf	___xxtofl@sign^(0+128),w
  3450     07CB  1903               	btfsc	3,2
  3451     07CC  2FCE               	goto	u2591
  3452     07CD  2FCF               	goto	u2590
  3453     07CE                     u2591:
  3454     07CE  2FD4               	goto	l2056
  3455     07CF                     u2590:
  3456     07CF                     l2052:
  3457     07CF  1FA9               	btfss	(___xxtofl@val+3)^(0+128),7
  3458     07D0  2FD2               	goto	u2601
  3459     07D1  2FD3               	goto	u2600
  3460     07D2                     u2601:
  3461     07D2  2FD4               	goto	l2056
  3462     07D3                     u2600:
  3463     07D3                     l2054:
  3464     07D3  17B3               	bsf	(___xxtofl@arg^(0+128)+3),7
  3465     07D4                     l2056:
  3466     07D4  0833               	movf	(___xxtofl@arg+3)^(0+128),w
  3467     07D5  00A9               	movwf	(?___xxtofl+3)^(0+128)
  3468     07D6  0832               	movf	(___xxtofl@arg+2)^(0+128),w
  3469     07D7  00A8               	movwf	(?___xxtofl+2)^(0+128)
  3470     07D8  0831               	movf	(___xxtofl@arg+1)^(0+128),w
  3471     07D9  00A7               	movwf	(?___xxtofl+1)^(0+128)
  3472     07DA  0830               	movf	___xxtofl@arg^(0+128),w
  3473     07DB  00A6               	movwf	?___xxtofl^(0+128)
  3474     07DC                     l747:
  3475     07DC  0008               	return
  3476     07DD                     __end_of___xxtofl:
  3477                           
  3478                           	psect	text12
  3479     09C8                     __ptext12:	
  3480 ;; *************** function ___wmul *****************
  3481 ;; Defined at:
  3482 ;;		line 15 in file "C:\Program Files\Microchip\xc8\v2.41\pic\sources\c90\common\Umul16.c"
  3483 ;; Parameters:    Size  Location     Type
  3484 ;;  multiplier      2    0[BANK1 ] unsigned int 
  3485 ;;  multiplicand    2    2[BANK1 ] unsigned int 
  3486 ;; Auto vars:     Size  Location     Type
  3487 ;;  product         2    4[BANK1 ] unsigned int 
  3488 ;; Return value:  Size  Location     Type
  3489 ;;                  2    0[BANK1 ] unsigned int 
  3490 ;; Registers used:
  3491 ;;		wreg, status,2, status,0
  3492 ;; Tracked objects:
  3493 ;;		On entry : 0/0
  3494 ;;		On exit  : 0/0
  3495 ;;		Unchanged: 0/0
  3496 ;; Data sizes:     COMMON   BANK0   BANK1   BANK3   BANK2
  3497 ;;      Params:         0       0       4       0       0
  3498 ;;      Locals:         0       0       2       0       0
  3499 ;;      Temps:          0       0       0       0       0
  3500 ;;      Totals:         0       0       6       0       0
  3501 ;;Total ram usage:        6 bytes
  3502 ;; Hardware stack levels used: 1
  3503 ;; Hardware stack levels required when called: 4
  3504 ;; This function calls:
  3505 ;;		Nothing
  3506 ;; This function is called by:
  3507 ;;		_ServoAngle
  3508 ;; This function uses a non-reentrant model
  3509 ;;
  3510                           
  3511     09C8                     ___wmul:	
  3512                           ;psect for function ___wmul
  3513                           
  3514     09C8                     l1774:	
  3515                           ;incstack = 0
  3516                           ; Regs used in ___wmul: [wreg+status,2+status,0]
  3517                           
  3518     09C8  1683               	bsf	3,5	;RP0=1, select bank1
  3519     09C9  1303               	bcf	3,6	;RP1=0, select bank1
  3520     09CA  01A4               	clrf	___wmul@product^(0+128)
  3521     09CB  01A5               	clrf	(___wmul@product+1)^(0+128)
  3522     09CC                     l1776:
  3523     09CC  1C20               	btfss	___wmul@multiplier^(0+128),0
  3524     09CD  29CF               	goto	u1941
  3525     09CE  29D0               	goto	u1940
  3526     09CF                     u1941:
  3527     09CF  29D6               	goto	l312
  3528     09D0                     u1940:
  3529     09D0                     l1778:
  3530     09D0  0822               	movf	___wmul@multiplicand^(0+128),w
  3531     09D1  07A4               	addwf	___wmul@product^(0+128),f
  3532     09D2  1803               	skipnc
  3533     09D3  0AA5               	incf	(___wmul@product+1)^(0+128),f
  3534     09D4  0823               	movf	(___wmul@multiplicand+1)^(0+128),w
  3535     09D5  07A5               	addwf	(___wmul@product+1)^(0+128),f
  3536     09D6                     l312:
  3537     09D6  3001               	movlw	1
  3538     09D7                     u1955:
  3539     09D7  1003               	clrc
  3540     09D8  0DA2               	rlf	___wmul@multiplicand^(0+128),f
  3541     09D9  0DA3               	rlf	(___wmul@multiplicand+1)^(0+128),f
  3542     09DA  3EFF               	addlw	-1
  3543     09DB  1D03               	skipz
  3544     09DC  29D7               	goto	u1955
  3545     09DD                     l1780:
  3546     09DD  3001               	movlw	1
  3547     09DE                     u1965:
  3548     09DE  1003               	clrc
  3549     09DF  0CA1               	rrf	(___wmul@multiplier+1)^(0+128),f
  3550     09E0  0CA0               	rrf	___wmul@multiplier^(0+128),f
  3551     09E1  3EFF               	addlw	-1
  3552     09E2  1D03               	skipz
  3553     09E3  29DE               	goto	u1965
  3554     09E4                     l1782:
  3555     09E4  0820               	movf	___wmul@multiplier^(0+128),w
  3556     09E5  0421               	iorwf	(___wmul@multiplier+1)^(0+128),w
  3557     09E6  1D03               	btfss	3,2
  3558     09E7  29E9               	goto	u1971
  3559     09E8  29EA               	goto	u1970
  3560     09E9                     u1971:
  3561     09E9  29CC               	goto	l1776
  3562     09EA                     u1970:
  3563     09EA                     l1784:
  3564     09EA  0825               	movf	(___wmul@product+1)^(0+128),w
  3565     09EB  00A1               	movwf	(?___wmul+1)^(0+128)
  3566     09EC  0824               	movf	___wmul@product^(0+128),w
  3567     09ED  00A0               	movwf	?___wmul^(0+128)
  3568     09EE                     l314:
  3569     09EE  0008               	return
  3570     09EF                     __end_of___wmul:
  3571                           
  3572                           	psect	text13
  3573     0B3A                     __ptext13:	
  3574 ;; *************** function ___lwdiv *****************
  3575 ;; Defined at:
  3576 ;;		line 5 in file "C:\Program Files\Microchip\xc8\v2.41\pic\sources\c90\common\lwdiv.c"
  3577 ;; Parameters:    Size  Location     Type
  3578 ;;  divisor         2    0[BANK1 ] unsigned int 
  3579 ;;  dividend        2    2[BANK1 ] unsigned int 
  3580 ;; Auto vars:     Size  Location     Type
  3581 ;;  quotient        2    4[BANK1 ] unsigned int 
  3582 ;;  counter         1    6[BANK1 ] unsigned char 
  3583 ;; Return value:  Size  Location     Type
  3584 ;;                  2    0[BANK1 ] unsigned int 
  3585 ;; Registers used:
  3586 ;;		wreg, status,2, status,0, btemp+1
  3587 ;; Tracked objects:
  3588 ;;		On entry : 0/0
  3589 ;;		On exit  : 0/0
  3590 ;;		Unchanged: 0/0
  3591 ;; Data sizes:     COMMON   BANK0   BANK1   BANK3   BANK2
  3592 ;;      Params:         0       0       4       0       0
  3593 ;;      Locals:         0       0       3       0       0
  3594 ;;      Temps:          0       0       0       0       0
  3595 ;;      Totals:         0       0       7       0       0
  3596 ;;Total ram usage:        7 bytes
  3597 ;; Hardware stack levels used: 1
  3598 ;; Hardware stack levels required when called: 4
  3599 ;; This function calls:
  3600 ;;		Nothing
  3601 ;; This function is called by:
  3602 ;;		_Compare_Init
  3603 ;;		_ServoAngle
  3604 ;; This function uses a non-reentrant model
  3605 ;;
  3606                           
  3607     0B3A                     ___lwdiv:	
  3608                           ;psect for function ___lwdiv
  3609                           
  3610     0B3A                     l1826:	
  3611                           ;incstack = 0
  3612                           ; Regs used in ___lwdiv: [wreg+status,2+status,0+btemp+1]
  3613                           
  3614     0B3A  1683               	bsf	3,5	;RP0=1, select bank1
  3615     0B3B  1303               	bcf	3,6	;RP1=0, select bank1
  3616     0B3C  01A4               	clrf	___lwdiv@quotient^(0+128)
  3617     0B3D  01A5               	clrf	(___lwdiv@quotient+1)^(0+128)
  3618     0B3E                     l1828:
  3619     0B3E  0820               	movf	___lwdiv@divisor^(0+128),w
  3620     0B3F  0421               	iorwf	(___lwdiv@divisor+1)^(0+128),w
  3621     0B40  1903               	btfsc	3,2
  3622     0B41  2B43               	goto	u2081
  3623     0B42  2B44               	goto	u2080
  3624     0B43                     u2081:
  3625     0B43  2B7B               	goto	l1848
  3626     0B44                     u2080:
  3627     0B44                     l1830:
  3628     0B44  01A6               	clrf	___lwdiv@counter^(0+128)
  3629     0B45  0AA6               	incf	___lwdiv@counter^(0+128),f
  3630     0B46  2B52               	goto	l1836
  3631     0B47                     l1832:
  3632     0B47  3001               	movlw	1
  3633     0B48                     u2095:
  3634     0B48  1003               	clrc
  3635     0B49  0DA0               	rlf	___lwdiv@divisor^(0+128),f
  3636     0B4A  0DA1               	rlf	(___lwdiv@divisor+1)^(0+128),f
  3637     0B4B  3EFF               	addlw	-1
  3638     0B4C  1D03               	skipz
  3639     0B4D  2B48               	goto	u2095
  3640     0B4E                     l1834:
  3641     0B4E  3001               	movlw	1
  3642     0B4F  00FF               	movwf	btemp+1
  3643     0B50  087F               	movf	btemp+1,w
  3644     0B51  07A6               	addwf	___lwdiv@counter^(0+128),f
  3645     0B52                     l1836:
  3646     0B52  1FA1               	btfss	(___lwdiv@divisor+1)^(0+128),7
  3647     0B53  2B55               	goto	u2101
  3648     0B54  2B56               	goto	u2100
  3649     0B55                     u2101:
  3650     0B55  2B47               	goto	l1832
  3651     0B56                     u2100:
  3652     0B56                     l1838:
  3653     0B56  3001               	movlw	1
  3654     0B57                     u2115:
  3655     0B57  1003               	clrc
  3656     0B58  0DA4               	rlf	___lwdiv@quotient^(0+128),f
  3657     0B59  0DA5               	rlf	(___lwdiv@quotient+1)^(0+128),f
  3658     0B5A  3EFF               	addlw	-1
  3659     0B5B  1D03               	skipz
  3660     0B5C  2B57               	goto	u2115
  3661     0B5D  0821               	movf	(___lwdiv@divisor+1)^(0+128),w
  3662     0B5E  0223               	subwf	(___lwdiv@dividend+1)^(0+128),w
  3663     0B5F  1D03               	skipz
  3664     0B60  2B63               	goto	u2125
  3665     0B61  0820               	movf	___lwdiv@divisor^(0+128),w
  3666     0B62  0222               	subwf	___lwdiv@dividend^(0+128),w
  3667     0B63                     u2125:
  3668     0B63  1C03               	skipc
  3669     0B64  2B66               	goto	u2121
  3670     0B65  2B67               	goto	u2120
  3671     0B66                     u2121:
  3672     0B66  2B6E               	goto	l1844
  3673     0B67                     u2120:
  3674     0B67                     l1840:
  3675     0B67  0820               	movf	___lwdiv@divisor^(0+128),w
  3676     0B68  02A2               	subwf	___lwdiv@dividend^(0+128),f
  3677     0B69  0821               	movf	(___lwdiv@divisor+1)^(0+128),w
  3678     0B6A  1C03               	skipc
  3679     0B6B  03A3               	decf	(___lwdiv@dividend+1)^(0+128),f
  3680     0B6C  02A3               	subwf	(___lwdiv@dividend+1)^(0+128),f
  3681     0B6D                     l1842:
  3682     0B6D  1424               	bsf	___lwdiv@quotient^(0+128),0
  3683     0B6E                     l1844:
  3684     0B6E  3001               	movlw	1
  3685     0B6F                     u2135:
  3686     0B6F  1003               	clrc
  3687     0B70  0CA1               	rrf	(___lwdiv@divisor+1)^(0+128),f
  3688     0B71  0CA0               	rrf	___lwdiv@divisor^(0+128),f
  3689     0B72  3EFF               	addlw	-1
  3690     0B73  1D03               	skipz
  3691     0B74  2B6F               	goto	u2135
  3692     0B75                     l1846:
  3693     0B75  3001               	movlw	1
  3694     0B76  02A6               	subwf	___lwdiv@counter^(0+128),f
  3695     0B77  1D03               	btfss	3,2
  3696     0B78  2B7A               	goto	u2141
  3697     0B79  2B7B               	goto	u2140
  3698     0B7A                     u2141:
  3699     0B7A  2B56               	goto	l1838
  3700     0B7B                     u2140:
  3701     0B7B                     l1848:
  3702     0B7B  0825               	movf	(___lwdiv@quotient+1)^(0+128),w
  3703     0B7C  00A1               	movwf	(?___lwdiv+1)^(0+128)
  3704     0B7D  0824               	movf	___lwdiv@quotient^(0+128),w
  3705     0B7E  00A0               	movwf	?___lwdiv^(0+128)
  3706     0B7F                     l584:
  3707     0B7F  0008               	return
  3708     0B80                     __end_of___lwdiv:
  3709                           
  3710                           	psect	text14
  3711     0D16                     __ptext14:	
  3712 ;; *************** function ___fltol *****************
  3713 ;; Defined at:
  3714 ;;		line 43 in file "C:\Program Files\Microchip\xc8\v2.41\pic\sources\c90\common\fltol.c"
  3715 ;; Parameters:    Size  Location     Type
  3716 ;;  f1              4   46[BANK1 ] unsigned int 
  3717 ;; Auto vars:     Size  Location     Type
  3718 ;;  exp1            1   55[BANK1 ] unsigned char 
  3719 ;;  sign1           1   54[BANK1 ] unsigned char 
  3720 ;; Return value:  Size  Location     Type
  3721 ;;                  4   46[BANK1 ] long 
  3722 ;; Registers used:
  3723 ;;		wreg, status,2, status,0, btemp+1
  3724 ;; Tracked objects:
  3725 ;;		On entry : 0/0
  3726 ;;		On exit  : 0/0
  3727 ;;		Unchanged: 0/0
  3728 ;; Data sizes:     COMMON   BANK0   BANK1   BANK3   BANK2
  3729 ;;      Params:         0       0       4       0       0
  3730 ;;      Locals:         0       0       2       0       0
  3731 ;;      Temps:          0       0       4       0       0
  3732 ;;      Totals:         0       0      10       0       0
  3733 ;;Total ram usage:       10 bytes
  3734 ;; Hardware stack levels used: 1
  3735 ;; Hardware stack levels required when called: 4
  3736 ;; This function calls:
  3737 ;;		Nothing
  3738 ;; This function is called by:
  3739 ;;		_PosControl_Pot
  3740 ;;		_ServoAngle
  3741 ;; This function uses a non-reentrant model
  3742 ;;
  3743                           
  3744     0D16                     ___fltol:	
  3745                           ;psect for function ___fltol
  3746                           
  3747     0D16                     l1788:	
  3748                           ;incstack = 0
  3749                           ; Regs used in ___fltol: [wreg+status,2+status,0+btemp+1]
  3750                           
  3751     0D16  1003               	clrc
  3752     0D17  1683               	bsf	3,5	;RP0=1, select bank1
  3753     0D18  1303               	bcf	3,6	;RP1=0, select bank1
  3754     0D19  0D50               	rlf	(___fltol@f1+2)^(0+128),w
  3755     0D1A  0D51               	rlf	(___fltol@f1+3)^(0+128),w
  3756     0D1B  00D7               	movwf	___fltol@exp1^(0+128)
  3757     0D1C  0857               	movf	___fltol@exp1^(0+128),w
  3758     0D1D  1D03               	btfss	3,2
  3759     0D1E  2D20               	goto	u1981
  3760     0D1F  2D21               	goto	u1980
  3761     0D20                     u1981:
  3762     0D20  2D2A               	goto	l1794
  3763     0D21                     u1980:
  3764     0D21                     l1790:
  3765     0D21  3000               	movlw	0
  3766     0D22  00D1               	movwf	(?___fltol+3)^(0+128)
  3767     0D23  3000               	movlw	0
  3768     0D24  00D0               	movwf	(?___fltol+2)^(0+128)
  3769     0D25  3000               	movlw	0
  3770     0D26  00CF               	movwf	(?___fltol+1)^(0+128)
  3771     0D27  3000               	movlw	0
  3772     0D28  00CE               	movwf	?___fltol^(0+128)
  3773     0D29  2D8D               	goto	l498
  3774     0D2A                     l1794:
  3775     0D2A  084E               	movf	___fltol@f1^(0+128),w
  3776     0D2B  00D2               	movwf	??___fltol^(0+128)
  3777     0D2C  084F               	movf	(___fltol@f1+1)^(0+128),w
  3778     0D2D  00D3               	movwf	(??___fltol^(0+128)+1)
  3779     0D2E  0850               	movf	(___fltol@f1+2)^(0+128),w
  3780     0D2F  00D4               	movwf	(??___fltol^(0+128)+2)
  3781     0D30  0851               	movf	(___fltol@f1+3)^(0+128),w
  3782     0D31  00D5               	movwf	(??___fltol^(0+128)+3)
  3783     0D32  301F               	movlw	31
  3784     0D33                     u1995:
  3785     0D33  1003               	clrc
  3786     0D34  0CD5               	rrf	(??___fltol^(0+128)+3),f
  3787     0D35  0CD4               	rrf	(??___fltol^(0+128)+2),f
  3788     0D36  0CD3               	rrf	(??___fltol^(0+128)+1),f
  3789     0D37  0CD2               	rrf	??___fltol^(0+128),f
  3790     0D38                     u1990:
  3791     0D38  3EFF               	addlw	-1
  3792     0D39  1D03               	skipz
  3793     0D3A  2D33               	goto	u1995
  3794     0D3B  0852               	movf	??___fltol^(0+128),w
  3795     0D3C  00D6               	movwf	___fltol@sign1^(0+128)
  3796     0D3D                     l1796:
  3797     0D3D  17D0               	bsf	(___fltol@f1^(0+128)+2),7
  3798     0D3E                     l1798:
  3799     0D3E  30FF               	movlw	255
  3800     0D3F  05CE               	andwf	___fltol@f1^(0+128),f
  3801     0D40  30FF               	movlw	255
  3802     0D41  05CF               	andwf	(___fltol@f1+1)^(0+128),f
  3803     0D42  30FF               	movlw	255
  3804     0D43  05D0               	andwf	(___fltol@f1+2)^(0+128),f
  3805     0D44  3000               	movlw	0
  3806     0D45  05D1               	andwf	(___fltol@f1+3)^(0+128),f
  3807     0D46                     l1800:
  3808     0D46  3096               	movlw	150
  3809     0D47  02D7               	subwf	___fltol@exp1^(0+128),f
  3810     0D48                     l1802:
  3811     0D48  1FD7               	btfss	___fltol@exp1^(0+128),7
  3812     0D49  2D4B               	goto	u2001
  3813     0D4A  2D4C               	goto	u2000
  3814     0D4B                     u2001:
  3815     0D4B  2D66               	goto	l1814
  3816     0D4C                     u2000:
  3817     0D4C                     l1804:
  3818     0D4C  0857               	movf	___fltol@exp1^(0+128),w
  3819     0D4D  3A80               	xorlw	128
  3820     0D4E  3E97               	addlw	151
  3821     0D4F  1803               	skipnc
  3822     0D50  2D52               	goto	u2011
  3823     0D51  2D53               	goto	u2010
  3824     0D52                     u2011:
  3825     0D52  2D54               	goto	l1810
  3826     0D53                     u2010:
  3827     0D53  2D21               	goto	l1790
  3828     0D54                     l1810:
  3829     0D54  3001               	movlw	1
  3830     0D55                     u2025:
  3831     0D55  1003               	clrc
  3832     0D56  0CD1               	rrf	(___fltol@f1+3)^(0+128),f
  3833     0D57  0CD0               	rrf	(___fltol@f1+2)^(0+128),f
  3834     0D58  0CCF               	rrf	(___fltol@f1+1)^(0+128),f
  3835     0D59  0CCE               	rrf	___fltol@f1^(0+128),f
  3836     0D5A  3EFF               	addlw	-1
  3837     0D5B  1D03               	skipz
  3838     0D5C  2D55               	goto	u2025
  3839     0D5D                     l1812:
  3840     0D5D  3001               	movlw	1
  3841     0D5E  00FF               	movwf	btemp+1
  3842     0D5F  087F               	movf	btemp+1,w
  3843     0D60  07D7               	addwf	___fltol@exp1^(0+128),f
  3844     0D61  1D03               	btfss	3,2
  3845     0D62  2D64               	goto	u2031
  3846     0D63  2D65               	goto	u2030
  3847     0D64                     u2031:
  3848     0D64  2D54               	goto	l1810
  3849     0D65                     u2030:
  3850     0D65  2D7D               	goto	l1822
  3851     0D66                     l1814:
  3852     0D66  3020               	movlw	32
  3853     0D67  0257               	subwf	___fltol@exp1^(0+128),w
  3854     0D68  1C03               	skipc
  3855     0D69  2D6B               	goto	u2041
  3856     0D6A  2D6C               	goto	u2040
  3857     0D6B                     u2041:
  3858     0D6B  2D78               	goto	l505
  3859     0D6C                     u2040:
  3860     0D6C  2D21               	goto	l1790
  3861     0D6D                     l1820:
  3862     0D6D  3001               	movlw	1
  3863     0D6E  00D2               	movwf	??___fltol^(0+128)
  3864     0D6F                     u2055:
  3865     0D6F  1003               	clrc
  3866     0D70  0DCE               	rlf	___fltol@f1^(0+128),f
  3867     0D71  0DCF               	rlf	(___fltol@f1+1)^(0+128),f
  3868     0D72  0DD0               	rlf	(___fltol@f1+2)^(0+128),f
  3869     0D73  0DD1               	rlf	(___fltol@f1+3)^(0+128),f
  3870     0D74  0BD2               	decfsz	??___fltol^(0+128),f
  3871     0D75  2D6F               	goto	u2055
  3872     0D76  3001               	movlw	1
  3873     0D77  02D7               	subwf	___fltol@exp1^(0+128),f
  3874     0D78                     l505:
  3875     0D78  0857               	movf	___fltol@exp1^(0+128),w
  3876     0D79  1D03               	btfss	3,2
  3877     0D7A  2D7C               	goto	u2061
  3878     0D7B  2D7D               	goto	u2060
  3879     0D7C                     u2061:
  3880     0D7C  2D6D               	goto	l1820
  3881     0D7D                     u2060:
  3882     0D7D                     l1822:
  3883     0D7D  0856               	movf	___fltol@sign1^(0+128),w
  3884     0D7E  1903               	btfsc	3,2
  3885     0D7F  2D81               	goto	u2071
  3886     0D80  2D82               	goto	u2070
  3887     0D81                     u2071:
  3888     0D81  2D8D               	goto	l508
  3889     0D82                     u2070:
  3890     0D82                     l1824:
  3891     0D82  09CE               	comf	___fltol@f1^(0+128),f
  3892     0D83  09CF               	comf	(___fltol@f1+1)^(0+128),f
  3893     0D84  09D0               	comf	(___fltol@f1+2)^(0+128),f
  3894     0D85  09D1               	comf	(___fltol@f1+3)^(0+128),f
  3895     0D86  0ACE               	incf	___fltol@f1^(0+128),f
  3896     0D87  1903               	skipnz
  3897     0D88  0ACF               	incf	(___fltol@f1+1)^(0+128),f
  3898     0D89  1903               	skipnz
  3899     0D8A  0AD0               	incf	(___fltol@f1+2)^(0+128),f
  3900     0D8B  1903               	skipnz
  3901     0D8C  0AD1               	incf	(___fltol@f1+3)^(0+128),f
  3902     0D8D                     l508:
  3903     0D8D                     l498:
  3904     0D8D  0008               	return
  3905     0D8E                     __end_of___fltol:
  3906                           
  3907                           	psect	text15
  3908     0385                     __ptext15:	
  3909 ;; *************** function ___fldiv *****************
  3910 ;; Defined at:
  3911 ;;		line 8 in file "C:\Program Files\Microchip\xc8\v2.41\pic\sources\c90\common\sprcdiv.c"
  3912 ;; Parameters:    Size  Location     Type
  3913 ;;  a               4   20[BANK1 ] long 
  3914 ;;  b               4   24[BANK1 ] long 
  3915 ;; Auto vars:     Size  Location     Type
  3916 ;;  grs             4   40[BANK1 ] unsigned long 
  3917 ;;  rem             4   33[BANK1 ] unsigned long 
  3918 ;;  new_exp         2   38[BANK1 ] int 
  3919 ;;  aexp            1   45[BANK1 ] unsigned char 
  3920 ;;  bexp            1   44[BANK1 ] unsigned char 
  3921 ;;  sign            1   37[BANK1 ] unsigned char 
  3922 ;; Return value:  Size  Location     Type
  3923 ;;                  4   20[BANK1 ] unsigned char 
  3924 ;; Registers used:
  3925 ;;		wreg, status,2, status,0, btemp+1
  3926 ;; Tracked objects:
  3927 ;;		On entry : 0/0
  3928 ;;		On exit  : 0/0
  3929 ;;		Unchanged: 0/0
  3930 ;; Data sizes:     COMMON   BANK0   BANK1   BANK3   BANK2
  3931 ;;      Params:         0       0       8       0       0
  3932 ;;      Locals:         0       0      13       0       0
  3933 ;;      Temps:          0       0       5       0       0
  3934 ;;      Totals:         0       0      26       0       0
  3935 ;;Total ram usage:       26 bytes
  3936 ;; Hardware stack levels used: 1
  3937 ;; Hardware stack levels required when called: 4
  3938 ;; This function calls:
  3939 ;;		Nothing
  3940 ;; This function is called by:
  3941 ;;		_PosControl_Pot
  3942 ;;		_ServoAngle
  3943 ;; This function uses a non-reentrant model
  3944 ;;
  3945                           
  3946     0385                     ___fldiv:	
  3947                           ;psect for function ___fldiv
  3948                           
  3949     0385                     l1852:	
  3950                           ;incstack = 0
  3951                           ; Regs used in ___fldiv: [wreg+status,2+status,0+btemp+1]
  3952                           
  3953     0385  1683               	bsf	3,5	;RP0=1, select bank1
  3954     0386  1303               	bcf	3,6	;RP1=0, select bank1
  3955     0387  083B               	movf	(___fldiv@b^(0+128)+3),w
  3956     0388  3980               	andlw	128
  3957     0389  00C5               	movwf	___fldiv@sign^(0+128)
  3958     038A                     l1854:
  3959     038A  083B               	movf	(___fldiv@b^(0+128)+3),w
  3960     038B  00BC               	movwf	??___fldiv^(0+128)
  3961     038C  073C               	addwf	??___fldiv^(0+128),w
  3962     038D  00CC               	movwf	___fldiv@bexp^(0+128)
  3963     038E                     l1856:
  3964     038E  1FBA               	btfss	(___fldiv@b^(0+128)+2),7
  3965     038F  2B91               	goto	u2151
  3966     0390  2B92               	goto	u2150
  3967     0391                     u2151:
  3968     0391  2B93               	goto	l1860
  3969     0392                     u2150:
  3970     0392                     l1858:
  3971     0392  144C               	bsf	___fldiv@bexp^(0+128),0
  3972     0393                     l1860:
  3973     0393  084C               	movf	___fldiv@bexp^(0+128),w
  3974     0394  1903               	btfsc	3,2
  3975     0395  2B97               	goto	u2161
  3976     0396  2B98               	goto	u2160
  3977     0397                     u2161:
  3978     0397  2BA8               	goto	l1870
  3979     0398                     u2160:
  3980     0398                     l1862:
  3981     0398  0A4C               	incf	___fldiv@bexp^(0+128),w
  3982     0399  1D03               	btfss	3,2
  3983     039A  2B9C               	goto	u2171
  3984     039B  2B9D               	goto	u2170
  3985     039C                     u2171:
  3986     039C  2BA5               	goto	l1866
  3987     039D                     u2170:
  3988     039D                     l1864:
  3989     039D  3000               	movlw	0
  3990     039E  00BB               	movwf	(___fldiv@b+3)^(0+128)
  3991     039F  3000               	movlw	0
  3992     03A0  00BA               	movwf	(___fldiv@b+2)^(0+128)
  3993     03A1  3000               	movlw	0
  3994     03A2  00B9               	movwf	(___fldiv@b+1)^(0+128)
  3995     03A3  3000               	movlw	0
  3996     03A4  00B8               	movwf	___fldiv@b^(0+128)
  3997     03A5                     l1866:
  3998     03A5  17BA               	bsf	(___fldiv@b^(0+128)+2),7
  3999     03A6                     l1868:
  4000     03A6  01BB               	clrf	(___fldiv@b^(0+128)+3)
  4001     03A7  2BB0               	goto	l1872
  4002     03A8                     l1870:
  4003     03A8  3000               	movlw	0
  4004     03A9  00BB               	movwf	(___fldiv@b+3)^(0+128)
  4005     03AA  3000               	movlw	0
  4006     03AB  00BA               	movwf	(___fldiv@b+2)^(0+128)
  4007     03AC  3000               	movlw	0
  4008     03AD  00B9               	movwf	(___fldiv@b+1)^(0+128)
  4009     03AE  3000               	movlw	0
  4010     03AF  00B8               	movwf	___fldiv@b^(0+128)
  4011     03B0                     l1872:
  4012     03B0  0837               	movf	(___fldiv@a^(0+128)+3),w
  4013     03B1  3980               	andlw	128
  4014     03B2  00FF               	movwf	btemp+1
  4015     03B3  087F               	movf	btemp+1,w
  4016     03B4  06C5               	xorwf	___fldiv@sign^(0+128),f
  4017     03B5                     l1874:
  4018     03B5  0837               	movf	(___fldiv@a^(0+128)+3),w
  4019     03B6  00BC               	movwf	??___fldiv^(0+128)
  4020     03B7  073C               	addwf	??___fldiv^(0+128),w
  4021     03B8  00CD               	movwf	___fldiv@aexp^(0+128)
  4022     03B9                     l1876:
  4023     03B9  1FB6               	btfss	(___fldiv@a^(0+128)+2),7
  4024     03BA  2BBC               	goto	u2181
  4025     03BB  2BBD               	goto	u2180
  4026     03BC                     u2181:
  4027     03BC  2BBE               	goto	l1880
  4028     03BD                     u2180:
  4029     03BD                     l1878:
  4030     03BD  144D               	bsf	___fldiv@aexp^(0+128),0
  4031     03BE                     l1880:
  4032     03BE  084D               	movf	___fldiv@aexp^(0+128),w
  4033     03BF  1903               	btfsc	3,2
  4034     03C0  2BC2               	goto	u2191
  4035     03C1  2BC3               	goto	u2190
  4036     03C2                     u2191:
  4037     03C2  2BD3               	goto	l1890
  4038     03C3                     u2190:
  4039     03C3                     l1882:
  4040     03C3  0A4D               	incf	___fldiv@aexp^(0+128),w
  4041     03C4  1D03               	btfss	3,2
  4042     03C5  2BC7               	goto	u2201
  4043     03C6  2BC8               	goto	u2200
  4044     03C7                     u2201:
  4045     03C7  2BD0               	goto	l1886
  4046     03C8                     u2200:
  4047     03C8                     l1884:
  4048     03C8  3000               	movlw	0
  4049     03C9  00B7               	movwf	(___fldiv@a+3)^(0+128)
  4050     03CA  3000               	movlw	0
  4051     03CB  00B6               	movwf	(___fldiv@a+2)^(0+128)
  4052     03CC  3000               	movlw	0
  4053     03CD  00B5               	movwf	(___fldiv@a+1)^(0+128)
  4054     03CE  3000               	movlw	0
  4055     03CF  00B4               	movwf	___fldiv@a^(0+128)
  4056     03D0                     l1886:
  4057     03D0  17B6               	bsf	(___fldiv@a^(0+128)+2),7
  4058     03D1                     l1888:
  4059     03D1  01B7               	clrf	(___fldiv@a^(0+128)+3)
  4060     03D2  2BDB               	goto	l661
  4061     03D3                     l1890:
  4062     03D3  3000               	movlw	0
  4063     03D4  00B7               	movwf	(___fldiv@a+3)^(0+128)
  4064     03D5  3000               	movlw	0
  4065     03D6  00B6               	movwf	(___fldiv@a+2)^(0+128)
  4066     03D7  3000               	movlw	0
  4067     03D8  00B5               	movwf	(___fldiv@a+1)^(0+128)
  4068     03D9  3000               	movlw	0
  4069     03DA  00B4               	movwf	___fldiv@a^(0+128)
  4070     03DB                     l661:
  4071     03DB  0837               	movf	(___fldiv@a+3)^(0+128),w
  4072     03DC  0436               	iorwf	(___fldiv@a+2)^(0+128),w
  4073     03DD  0435               	iorwf	(___fldiv@a+1)^(0+128),w
  4074     03DE  0434               	iorwf	___fldiv@a^(0+128),w
  4075     03DF  1D03               	skipz
  4076     03E0  2BE2               	goto	u2211
  4077     03E1  2BE3               	goto	u2210
  4078     03E2                     u2211:
  4079     03E2  2BFC               	goto	l1900
  4080     03E3                     u2210:
  4081     03E3                     l1892:
  4082     03E3  3000               	movlw	0
  4083     03E4  00BB               	movwf	(___fldiv@b+3)^(0+128)
  4084     03E5  3000               	movlw	0
  4085     03E6  00BA               	movwf	(___fldiv@b+2)^(0+128)
  4086     03E7  3000               	movlw	0
  4087     03E8  00B9               	movwf	(___fldiv@b+1)^(0+128)
  4088     03E9  3000               	movlw	0
  4089     03EA  00B8               	movwf	___fldiv@b^(0+128)
  4090     03EB  3080               	movlw	128
  4091     03EC  04BA               	iorwf	(___fldiv@b^(0+128)+2),f
  4092     03ED  307F               	movlw	127
  4093     03EE  04BB               	iorwf	((___fldiv@b+1)^(0+128)+2),f
  4094     03EF                     l1894:
  4095     03EF  0845               	movf	___fldiv@sign^(0+128),w
  4096     03F0  00FF               	movwf	btemp+1
  4097     03F1  087F               	movf	btemp+1,w
  4098     03F2  04BB               	iorwf	(___fldiv@b^(0+128)+3),f
  4099     03F3                     l1896:
  4100     03F3  083B               	movf	(___fldiv@b+3)^(0+128),w
  4101     03F4  00B7               	movwf	(?___fldiv+3)^(0+128)
  4102     03F5  083A               	movf	(___fldiv@b+2)^(0+128),w
  4103     03F6  00B6               	movwf	(?___fldiv+2)^(0+128)
  4104     03F7  0839               	movf	(___fldiv@b+1)^(0+128),w
  4105     03F8  00B5               	movwf	(?___fldiv+1)^(0+128)
  4106     03F9  0838               	movf	___fldiv@b^(0+128),w
  4107     03FA  00B4               	movwf	?___fldiv^(0+128)
  4108     03FB  2D53               	goto	l663
  4109     03FC                     l1900:
  4110     03FC  084C               	movf	___fldiv@bexp^(0+128),w
  4111     03FD  1D03               	btfss	3,2
  4112     03FE  2C00               	goto	u2221
  4113     03FF  2C01               	goto	u2220
  4114     0400                     u2221:
  4115     0400  2C0A               	goto	l1906
  4116     0401                     u2220:
  4117     0401                     l1902:
  4118     0401  3000               	movlw	0
  4119     0402  00B7               	movwf	(?___fldiv+3)^(0+128)
  4120     0403  3000               	movlw	0
  4121     0404  00B6               	movwf	(?___fldiv+2)^(0+128)
  4122     0405  3000               	movlw	0
  4123     0406  00B5               	movwf	(?___fldiv+1)^(0+128)
  4124     0407  3000               	movlw	0
  4125     0408  00B4               	movwf	?___fldiv^(0+128)
  4126     0409  2D53               	goto	l663
  4127     040A                     l1906:
  4128     040A  084C               	movf	___fldiv@bexp^(0+128),w
  4129     040B  00BC               	movwf	??___fldiv^(0+128)
  4130     040C  01BD               	clrf	(??___fldiv^(0+128)+1)
  4131     040D  083D               	movf	(??___fldiv+1)^(0+128),w
  4132     040E  00BF               	movwf	((??___fldiv+2)^(0+128)+1)
  4133     040F  084D               	movf	___fldiv@aexp^(0+128),w
  4134     0410  023C               	subwf	??___fldiv^(0+128),w
  4135     0411  00BE               	movwf	(??___fldiv+2)^(0+128)
  4136     0412  1C03               	skipc
  4137     0413  03BF               	decf	((??___fldiv+2)^(0+128)+1),f
  4138     0414  083E               	movf	(??___fldiv+2)^(0+128),w
  4139     0415  3E7F               	addlw	127
  4140     0416  00C6               	movwf	___fldiv@new_exp^(0+128)
  4141     0417  083F               	movf	(??___fldiv+3)^(0+128),w
  4142     0418  1803               	skipnc
  4143     0419  3E01               	addlw	1
  4144     041A  3E00               	addlw	0
  4145     041B  00C7               	movwf	(___fldiv@new_exp+1)^(0+128)
  4146     041C                     l1908:
  4147     041C  083B               	movf	(___fldiv@b+3)^(0+128),w
  4148     041D  00C4               	movwf	(___fldiv@rem+3)^(0+128)
  4149     041E  083A               	movf	(___fldiv@b+2)^(0+128),w
  4150     041F  00C3               	movwf	(___fldiv@rem+2)^(0+128)
  4151     0420  0839               	movf	(___fldiv@b+1)^(0+128),w
  4152     0421  00C2               	movwf	(___fldiv@rem+1)^(0+128)
  4153     0422  0838               	movf	___fldiv@b^(0+128),w
  4154     0423  00C1               	movwf	___fldiv@rem^(0+128)
  4155     0424                     l1910:
  4156     0424  3000               	movlw	0
  4157     0425  00BB               	movwf	(___fldiv@b+3)^(0+128)
  4158     0426  3000               	movlw	0
  4159     0427  00BA               	movwf	(___fldiv@b+2)^(0+128)
  4160     0428  3000               	movlw	0
  4161     0429  00B9               	movwf	(___fldiv@b+1)^(0+128)
  4162     042A  3000               	movlw	0
  4163     042B  00B8               	movwf	___fldiv@b^(0+128)
  4164     042C                     l1912:
  4165     042C  3000               	movlw	0
  4166     042D  00CB               	movwf	(___fldiv@grs+3)^(0+128)
  4167     042E  3000               	movlw	0
  4168     042F  00CA               	movwf	(___fldiv@grs+2)^(0+128)
  4169     0430  3000               	movlw	0
  4170     0431  00C9               	movwf	(___fldiv@grs+1)^(0+128)
  4171     0432  3000               	movlw	0
  4172     0433  00C8               	movwf	___fldiv@grs^(0+128)
  4173     0434                     l1914:
  4174     0434  01CD               	clrf	___fldiv@aexp^(0+128)
  4175     0435  2C80               	goto	l1934
  4176     0436                     l1916:
  4177     0436  084D               	movf	___fldiv@aexp^(0+128),w
  4178     0437  1903               	btfsc	3,2
  4179     0438  2C3A               	goto	u2231
  4180     0439  2C3B               	goto	u2230
  4181     043A                     u2231:
  4182     043A  2C5B               	goto	l1926
  4183     043B                     u2230:
  4184     043B                     l1918:
  4185     043B  3001               	movlw	1
  4186     043C  00BC               	movwf	??___fldiv^(0+128)
  4187     043D                     u2245:
  4188     043D  1003               	clrc
  4189     043E  0DC1               	rlf	___fldiv@rem^(0+128),f
  4190     043F  0DC2               	rlf	(___fldiv@rem+1)^(0+128),f
  4191     0440  0DC3               	rlf	(___fldiv@rem+2)^(0+128),f
  4192     0441  0DC4               	rlf	(___fldiv@rem+3)^(0+128),f
  4193     0442  0BBC               	decfsz	??___fldiv^(0+128),f
  4194     0443  2C3D               	goto	u2245
  4195     0444  3001               	movlw	1
  4196     0445  00BC               	movwf	??___fldiv^(0+128)
  4197     0446                     u2255:
  4198     0446  1003               	clrc
  4199     0447  0DB8               	rlf	___fldiv@b^(0+128),f
  4200     0448  0DB9               	rlf	(___fldiv@b+1)^(0+128),f
  4201     0449  0DBA               	rlf	(___fldiv@b+2)^(0+128),f
  4202     044A  0DBB               	rlf	(___fldiv@b+3)^(0+128),f
  4203     044B  0BBC               	decfsz	??___fldiv^(0+128),f
  4204     044C  2C46               	goto	u2255
  4205     044D                     l1920:
  4206     044D  1FCB               	btfss	(___fldiv@grs+3)^(0+128),7
  4207     044E  2C50               	goto	u2261
  4208     044F  2C51               	goto	u2260
  4209     0450                     u2261:
  4210     0450  2C52               	goto	l1924
  4211     0451                     u2260:
  4212     0451                     l1922:
  4213     0451  1438               	bsf	___fldiv@b^(0+128),0
  4214     0452                     l1924:
  4215     0452  3001               	movlw	1
  4216     0453  00BC               	movwf	??___fldiv^(0+128)
  4217     0454                     u2275:
  4218     0454  1003               	clrc
  4219     0455  0DC8               	rlf	___fldiv@grs^(0+128),f
  4220     0456  0DC9               	rlf	(___fldiv@grs+1)^(0+128),f
  4221     0457  0DCA               	rlf	(___fldiv@grs+2)^(0+128),f
  4222     0458  0DCB               	rlf	(___fldiv@grs+3)^(0+128),f
  4223     0459  0BBC               	decfsz	??___fldiv^(0+128),f
  4224     045A  2C54               	goto	u2275
  4225     045B                     l1926:
  4226     045B  0837               	movf	(___fldiv@a+3)^(0+128),w
  4227     045C  0244               	subwf	(___fldiv@rem+3)^(0+128),w
  4228     045D  1D03               	skipz
  4229     045E  2C69               	goto	u2285
  4230     045F  0836               	movf	(___fldiv@a+2)^(0+128),w
  4231     0460  0243               	subwf	(___fldiv@rem+2)^(0+128),w
  4232     0461  1D03               	skipz
  4233     0462  2C69               	goto	u2285
  4234     0463  0835               	movf	(___fldiv@a+1)^(0+128),w
  4235     0464  0242               	subwf	(___fldiv@rem+1)^(0+128),w
  4236     0465  1D03               	skipz
  4237     0466  2C69               	goto	u2285
  4238     0467  0834               	movf	___fldiv@a^(0+128),w
  4239     0468  0241               	subwf	___fldiv@rem^(0+128),w
  4240     0469                     u2285:
  4241     0469  1C03               	skipc
  4242     046A  2C6C               	goto	u2281
  4243     046B  2C6D               	goto	u2280
  4244     046C                     u2281:
  4245     046C  2C7C               	goto	l1932
  4246     046D                     u2280:
  4247     046D                     l1928:
  4248     046D  174B               	bsf	(___fldiv@grs^(0+128)+3),6
  4249     046E                     l1930:
  4250     046E  0834               	movf	___fldiv@a^(0+128),w
  4251     046F  02C1               	subwf	___fldiv@rem^(0+128),f
  4252     0470  0835               	movf	(___fldiv@a+1)^(0+128),w
  4253     0471  1C03               	skipc
  4254     0472  0F35               	incfsz	(___fldiv@a+1)^(0+128),w
  4255     0473  02C2               	subwf	(___fldiv@rem+1)^(0+128),f
  4256     0474  0836               	movf	(___fldiv@a+2)^(0+128),w
  4257     0475  1C03               	skipc
  4258     0476  0F36               	incfsz	(___fldiv@a+2)^(0+128),w
  4259     0477  02C3               	subwf	(___fldiv@rem+2)^(0+128),f
  4260     0478  0837               	movf	(___fldiv@a+3)^(0+128),w
  4261     0479  1C03               	skipc
  4262     047A  0F37               	incfsz	(___fldiv@a+3)^(0+128),w
  4263     047B  02C4               	subwf	(___fldiv@rem+3)^(0+128),f
  4264     047C                     l1932:
  4265     047C  3001               	movlw	1
  4266     047D  00FF               	movwf	btemp+1
  4267     047E  087F               	movf	btemp+1,w
  4268     047F  07CD               	addwf	___fldiv@aexp^(0+128),f
  4269     0480                     l1934:
  4270     0480  301A               	movlw	26
  4271     0481  024D               	subwf	___fldiv@aexp^(0+128),w
  4272     0482  1C03               	skipc
  4273     0483  2C85               	goto	u2291
  4274     0484  2C86               	goto	u2290
  4275     0485                     u2291:
  4276     0485  2C36               	goto	l1916
  4277     0486                     u2290:
  4278     0486                     l1936:
  4279     0486  0844               	movf	(___fldiv@rem+3)^(0+128),w
  4280     0487  0443               	iorwf	(___fldiv@rem+2)^(0+128),w
  4281     0488  0442               	iorwf	(___fldiv@rem+1)^(0+128),w
  4282     0489  0441               	iorwf	___fldiv@rem^(0+128),w
  4283     048A  1903               	skipnz
  4284     048B  2C8D               	goto	u2301
  4285     048C  2C8E               	goto	u2300
  4286     048D                     u2301:
  4287     048D  2CAD               	goto	l1950
  4288     048E                     u2300:
  4289     048E                     l1938:
  4290     048E  1448               	bsf	___fldiv@grs^(0+128),0
  4291     048F  2CAD               	goto	l1950
  4292     0490                     l1940:
  4293     0490  3001               	movlw	1
  4294     0491  00BC               	movwf	??___fldiv^(0+128)
  4295     0492                     u2315:
  4296     0492  1003               	clrc
  4297     0493  0DB8               	rlf	___fldiv@b^(0+128),f
  4298     0494  0DB9               	rlf	(___fldiv@b+1)^(0+128),f
  4299     0495  0DBA               	rlf	(___fldiv@b+2)^(0+128),f
  4300     0496  0DBB               	rlf	(___fldiv@b+3)^(0+128),f
  4301     0497  0BBC               	decfsz	??___fldiv^(0+128),f
  4302     0498  2C92               	goto	u2315
  4303     0499                     l1942:
  4304     0499  1FCB               	btfss	(___fldiv@grs+3)^(0+128),7
  4305     049A  2C9C               	goto	u2321
  4306     049B  2C9D               	goto	u2320
  4307     049C                     u2321:
  4308     049C  2C9E               	goto	l1946
  4309     049D                     u2320:
  4310     049D                     l1944:
  4311     049D  1438               	bsf	___fldiv@b^(0+128),0
  4312     049E                     l1946:
  4313     049E  3001               	movlw	1
  4314     049F  00BC               	movwf	??___fldiv^(0+128)
  4315     04A0                     u2335:
  4316     04A0  1003               	clrc
  4317     04A1  0DC8               	rlf	___fldiv@grs^(0+128),f
  4318     04A2  0DC9               	rlf	(___fldiv@grs+1)^(0+128),f
  4319     04A3  0DCA               	rlf	(___fldiv@grs+2)^(0+128),f
  4320     04A4  0DCB               	rlf	(___fldiv@grs+3)^(0+128),f
  4321     04A5  0BBC               	decfsz	??___fldiv^(0+128),f
  4322     04A6  2CA0               	goto	u2335
  4323     04A7                     l1948:
  4324     04A7  30FF               	movlw	255
  4325     04A8  07C6               	addwf	___fldiv@new_exp^(0+128),f
  4326     04A9  1803               	skipnc
  4327     04AA  0AC7               	incf	(___fldiv@new_exp+1)^(0+128),f
  4328     04AB  30FF               	movlw	255
  4329     04AC  07C7               	addwf	(___fldiv@new_exp+1)^(0+128),f
  4330     04AD                     l1950:
  4331     04AD  1FBA               	btfss	(___fldiv@b+2)^(0+128),7
  4332     04AE  2CB0               	goto	u2341
  4333     04AF  2CB1               	goto	u2340
  4334     04B0                     u2341:
  4335     04B0  2C90               	goto	l1940
  4336     04B1                     u2340:
  4337     04B1                     l1952:
  4338     04B1  01CD               	clrf	___fldiv@aexp^(0+128)
  4339     04B2                     l1954:
  4340     04B2  1FCB               	btfss	(___fldiv@grs+3)^(0+128),7
  4341     04B3  2CB5               	goto	u2351
  4342     04B4  2CB6               	goto	u2350
  4343     04B5                     u2351:
  4344     04B5  2CD2               	goto	l1962
  4345     04B6                     u2350:
  4346     04B6                     l1956:
  4347     04B6  30FF               	movlw	255
  4348     04B7  0548               	andwf	___fldiv@grs^(0+128),w
  4349     04B8  00BC               	movwf	??___fldiv^(0+128)
  4350     04B9  30FF               	movlw	255
  4351     04BA  0549               	andwf	(___fldiv@grs+1)^(0+128),w
  4352     04BB  00BD               	movwf	(??___fldiv^(0+128)+1)
  4353     04BC  30FF               	movlw	255
  4354     04BD  054A               	andwf	(___fldiv@grs+2)^(0+128),w
  4355     04BE  00BE               	movwf	(??___fldiv^(0+128)+2)
  4356     04BF  307F               	movlw	127
  4357     04C0  054B               	andwf	(___fldiv@grs+3)^(0+128),w
  4358     04C1  00BF               	movwf	(??___fldiv^(0+128)+3)
  4359     04C2  083F               	movf	(??___fldiv+3)^(0+128),w
  4360     04C3  043E               	iorwf	(??___fldiv+2)^(0+128),w
  4361     04C4  043D               	iorwf	(??___fldiv+1)^(0+128),w
  4362     04C5  043C               	iorwf	??___fldiv^(0+128),w
  4363     04C6  1903               	skipnz
  4364     04C7  2CC9               	goto	u2361
  4365     04C8  2CCA               	goto	u2360
  4366     04C9                     u2361:
  4367     04C9  2CCD               	goto	l677
  4368     04CA                     u2360:
  4369     04CA                     l1958:
  4370     04CA  01CD               	clrf	___fldiv@aexp^(0+128)
  4371     04CB  0ACD               	incf	___fldiv@aexp^(0+128),f
  4372     04CC  2CD2               	goto	l1962
  4373     04CD                     l677:
  4374     04CD  1C38               	btfss	___fldiv@b^(0+128),0
  4375     04CE  2CD0               	goto	u2371
  4376     04CF  2CD1               	goto	u2370
  4377     04D0                     u2371:
  4378     04D0  2CD2               	goto	l1962
  4379     04D1                     u2370:
  4380     04D1  2CCA               	goto	l1958
  4381     04D2                     l1962:
  4382     04D2  084D               	movf	___fldiv@aexp^(0+128),w
  4383     04D3  1903               	btfsc	3,2
  4384     04D4  2CD6               	goto	u2381
  4385     04D5  2CD7               	goto	u2380
  4386     04D6                     u2381:
  4387     04D6  2D08               	goto	l1972
  4388     04D7                     u2380:
  4389     04D7                     l1964:
  4390     04D7  3001               	movlw	1
  4391     04D8  07B8               	addwf	___fldiv@b^(0+128),f
  4392     04D9  3000               	movlw	0
  4393     04DA  1803               	skipnc
  4394     04DB  3001               	movlw	1
  4395     04DC  07B9               	addwf	(___fldiv@b+1)^(0+128),f
  4396     04DD  3000               	movlw	0
  4397     04DE  1803               	skipnc
  4398     04DF  3001               	movlw	1
  4399     04E0  07BA               	addwf	(___fldiv@b+2)^(0+128),f
  4400     04E1  3000               	movlw	0
  4401     04E2  1803               	skipnc
  4402     04E3  3001               	movlw	1
  4403     04E4  07BB               	addwf	(___fldiv@b+3)^(0+128),f
  4404     04E5                     l1966:
  4405     04E5  1C3B               	btfss	(___fldiv@b+3)^(0+128),0
  4406     04E6  2CE8               	goto	u2391
  4407     04E7  2CE9               	goto	u2390
  4408     04E8                     u2391:
  4409     04E8  2D08               	goto	l1972
  4410     04E9                     u2390:
  4411     04E9                     l1968:
  4412     04E9  0838               	movf	___fldiv@b^(0+128),w
  4413     04EA  00BC               	movwf	??___fldiv^(0+128)
  4414     04EB  0839               	movf	(___fldiv@b+1)^(0+128),w
  4415     04EC  00BD               	movwf	(??___fldiv^(0+128)+1)
  4416     04ED  083A               	movf	(___fldiv@b+2)^(0+128),w
  4417     04EE  00BE               	movwf	(??___fldiv^(0+128)+2)
  4418     04EF  083B               	movf	(___fldiv@b+3)^(0+128),w
  4419     04F0  00BF               	movwf	(??___fldiv^(0+128)+3)
  4420     04F1  3001               	movlw	1
  4421     04F2  00C0               	movwf	(??___fldiv+4)^(0+128)
  4422     04F3                     u2405:
  4423     04F3  0D3F               	rlf	(??___fldiv^(0+128)+3),w
  4424     04F4  0CBF               	rrf	(??___fldiv^(0+128)+3),f
  4425     04F5  0CBE               	rrf	(??___fldiv^(0+128)+2),f
  4426     04F6  0CBD               	rrf	(??___fldiv^(0+128)+1),f
  4427     04F7  0CBC               	rrf	??___fldiv^(0+128),f
  4428     04F8                     u2400:
  4429     04F8  0BC0               	decfsz	(??___fldiv+4)^(0+128),f
  4430     04F9  2CF3               	goto	u2405
  4431     04FA  083F               	movf	(??___fldiv+3)^(0+128),w
  4432     04FB  00BB               	movwf	(___fldiv@b+3)^(0+128)
  4433     04FC  083E               	movf	(??___fldiv+2)^(0+128),w
  4434     04FD  00BA               	movwf	(___fldiv@b+2)^(0+128)
  4435     04FE  083D               	movf	(??___fldiv+1)^(0+128),w
  4436     04FF  00B9               	movwf	(___fldiv@b+1)^(0+128)
  4437     0500  083C               	movf	??___fldiv^(0+128),w
  4438     0501  00B8               	movwf	___fldiv@b^(0+128)
  4439     0502                     l1970:
  4440     0502  3001               	movlw	1
  4441     0503  07C6               	addwf	___fldiv@new_exp^(0+128),f
  4442     0504  1803               	skipnc
  4443     0505  0AC7               	incf	(___fldiv@new_exp+1)^(0+128),f
  4444     0506  3000               	movlw	0
  4445     0507  07C7               	addwf	(___fldiv@new_exp+1)^(0+128),f
  4446     0508                     l1972:
  4447     0508  0847               	movf	(___fldiv@new_exp+1)^(0+128),w
  4448     0509  3A80               	xorlw	128
  4449     050A  00FF               	movwf	btemp+1
  4450     050B  3080               	movlw	128
  4451     050C  027F               	subwf	btemp+1,w
  4452     050D  1D03               	skipz
  4453     050E  2D11               	goto	u2415
  4454     050F  30FF               	movlw	255
  4455     0510  0246               	subwf	___fldiv@new_exp^(0+128),w
  4456     0511                     u2415:
  4457     0511  1C03               	skipc
  4458     0512  2D14               	goto	u2411
  4459     0513  2D15               	goto	u2410
  4460     0514                     u2411:
  4461     0514  2D23               	goto	l1976
  4462     0515                     u2410:
  4463     0515                     l1974:
  4464     0515  30FF               	movlw	255
  4465     0516  1683               	bsf	3,5	;RP0=1, select bank1
  4466     0517  1303               	bcf	3,6	;RP1=0, select bank1
  4467     0518  00C6               	movwf	___fldiv@new_exp^(0+128)
  4468     0519  3000               	movlw	0
  4469     051A  00C7               	movwf	(___fldiv@new_exp^(0+128)+1)
  4470     051B  3000               	movlw	0
  4471     051C  00BB               	movwf	(___fldiv@b+3)^(0+128)
  4472     051D  3000               	movlw	0
  4473     051E  00BA               	movwf	(___fldiv@b+2)^(0+128)
  4474     051F  3000               	movlw	0
  4475     0520  00B9               	movwf	(___fldiv@b+1)^(0+128)
  4476     0521  3000               	movlw	0
  4477     0522  00B8               	movwf	___fldiv@b^(0+128)
  4478     0523                     l1976:
  4479     0523  1683               	bsf	3,5	;RP0=1, select bank1
  4480     0524  1303               	bcf	3,6	;RP1=0, select bank1
  4481     0525  0847               	movf	(___fldiv@new_exp+1)^(0+128),w
  4482     0526  3A80               	xorlw	128
  4483     0527  00FF               	movwf	btemp+1
  4484     0528  3080               	movlw	128
  4485     0529  027F               	subwf	btemp+1,w
  4486     052A  1D03               	skipz
  4487     052B  2D2E               	goto	u2425
  4488     052C  3001               	movlw	1
  4489     052D  0246               	subwf	___fldiv@new_exp^(0+128),w
  4490     052E                     u2425:
  4491     052E  1803               	skipnc
  4492     052F  2D31               	goto	u2421
  4493     0530  2D32               	goto	u2420
  4494     0531                     u2421:
  4495     0531  2D3F               	goto	l683
  4496     0532                     u2420:
  4497     0532                     l1978:
  4498     0532  1683               	bsf	3,5	;RP0=1, select bank1
  4499     0533  1303               	bcf	3,6	;RP1=0, select bank1
  4500     0534  01C6               	clrf	___fldiv@new_exp^(0+128)
  4501     0535  01C7               	clrf	(___fldiv@new_exp+1)^(0+128)
  4502     0536                     l1980:
  4503     0536  3000               	movlw	0
  4504     0537  00BB               	movwf	(___fldiv@b+3)^(0+128)
  4505     0538  3000               	movlw	0
  4506     0539  00BA               	movwf	(___fldiv@b+2)^(0+128)
  4507     053A  3000               	movlw	0
  4508     053B  00B9               	movwf	(___fldiv@b+1)^(0+128)
  4509     053C  3000               	movlw	0
  4510     053D  00B8               	movwf	___fldiv@b^(0+128)
  4511     053E                     l1982:
  4512     053E  01C5               	clrf	___fldiv@sign^(0+128)
  4513     053F                     l683:
  4514     053F  1683               	bsf	3,5	;RP0=1, select bank1
  4515     0540  1303               	bcf	3,6	;RP1=0, select bank1
  4516     0541  0846               	movf	___fldiv@new_exp^(0+128),w
  4517     0542  00CC               	movwf	___fldiv@bexp^(0+128)
  4518     0543                     l1984:
  4519     0543  1C4C               	btfss	___fldiv@bexp^(0+128),0
  4520     0544  2D46               	goto	u2431
  4521     0545  2D47               	goto	u2430
  4522     0546                     u2431:
  4523     0546  2D49               	goto	l1988
  4524     0547                     u2430:
  4525     0547                     l1986:
  4526     0547  17BA               	bsf	(___fldiv@b^(0+128)+2),7
  4527     0548  2D4D               	goto	l1990
  4528     0549                     l1988:
  4529     0549  307F               	movlw	127
  4530     054A  00FF               	movwf	btemp+1
  4531     054B  087F               	movf	btemp+1,w
  4532     054C  05BA               	andwf	(___fldiv@b^(0+128)+2),f
  4533     054D                     l1990:
  4534     054D  084C               	movf	___fldiv@bexp^(0+128),w
  4535     054E  00BC               	movwf	??___fldiv^(0+128)
  4536     054F  1003               	clrc
  4537     0550  0C3C               	rrf	??___fldiv^(0+128),w
  4538     0551  00BB               	movwf	(___fldiv@b^(0+128)+3)
  4539     0552  2BEF               	goto	l1894
  4540     0553                     l663:
  4541     0553  0008               	return
  4542     0554                     __end_of___fldiv:
  4543                           
  4544                           	psect	text16
  4545     0A4E                     __ptext16:	
  4546 ;; *************** function _ADC_Read *****************
  4547 ;; Defined at:
  4548 ;;		line 12 in file "XC8_ADC.c"
  4549 ;; Parameters:    Size  Location     Type
  4550 ;;  ANC             1    wreg     unsigned char 
  4551 ;; Auto vars:     Size  Location     Type
  4552 ;;  ANC             1    3[BANK1 ] unsigned char 
  4553 ;; Return value:  Size  Location     Type
  4554 ;;                  2    0[BANK1 ] unsigned int 
  4555 ;; Registers used:
  4556 ;;		wreg, status,2, status,0, btemp+1
  4557 ;; Tracked objects:
  4558 ;;		On entry : 0/0
  4559 ;;		On exit  : 0/0
  4560 ;;		Unchanged: 0/0
  4561 ;; Data sizes:     COMMON   BANK0   BANK1   BANK3   BANK2
  4562 ;;      Params:         0       0       2       0       0
  4563 ;;      Locals:         0       0       1       0       0
  4564 ;;      Temps:          0       0       1       0       0
  4565 ;;      Totals:         0       0       4       0       0
  4566 ;;Total ram usage:        4 bytes
  4567 ;; Hardware stack levels used: 1
  4568 ;; Hardware stack levels required when called: 4
  4569 ;; This function calls:
  4570 ;;		Nothing
  4571 ;; This function is called by:
  4572 ;;		_PosControl_Pot
  4573 ;; This function uses a non-reentrant model
  4574 ;;
  4575                           
  4576     0A4E                     _ADC_Read:	
  4577                           ;psect for function _ADC_Read
  4578                           
  4579                           
  4580                           ;incstack = 0
  4581                           ; Regs used in _ADC_Read: [wreg+status,2+status,0+btemp+1]
  4582                           ;ADC_Read@ANC stored from wreg
  4583     0A4E  1683               	bsf	3,5	;RP0=1, select bank1
  4584     0A4F  1303               	bcf	3,6	;RP1=0, select bank1
  4585     0A50  00A3               	movwf	ADC_Read@ANC^(0+128)
  4586     0A51                     l2342:
  4587                           
  4588                           ;XC8_ADC.c: 14:     if((ANC < 0) || (ANC > 7)){
  4589     0A51  3008               	movlw	8
  4590     0A52  0223               	subwf	ADC_Read@ANC^(0+128),w
  4591     0A53  1C03               	skipc
  4592     0A54  2A56               	goto	u3271
  4593     0A55  2A57               	goto	u3270
  4594     0A56                     u3271:
  4595     0A56  2A5A               	goto	l2348
  4596     0A57                     u3270:
  4597     0A57                     l2344:
  4598                           
  4599                           ;XC8_ADC.c: 15:         return 0;
  4600     0A57  01A0               	clrf	?_ADC_Read^(0+128)
  4601     0A58  01A1               	clrf	(?_ADC_Read+1)^(0+128)
  4602     0A59  2A84               	goto	l206
  4603     0A5A                     l2348:
  4604                           
  4605                           ;XC8_ADC.c: 18:     ADCON0 &= 0b11000101;
  4606     0A5A  30C5               	movlw	197
  4607     0A5B  00FF               	movwf	btemp+1
  4608     0A5C  087F               	movf	btemp+1,w
  4609     0A5D  1283               	bcf	3,5	;RP0=0, select bank0
  4610     0A5E  1303               	bcf	3,6	;RP1=0, select bank0
  4611     0A5F  059F               	andwf	31,f	;volatile
  4612                           
  4613                           ;XC8_ADC.c: 20:     ADCON0 |= ANC<<3;
  4614     0A60  1683               	bsf	3,5	;RP0=1, select bank1
  4615     0A61  1303               	bcf	3,6	;RP1=0, select bank1
  4616     0A62  0823               	movf	ADC_Read@ANC^(0+128),w	;volatile
  4617     0A63  00A2               	movwf	??_ADC_Read^(0+128)
  4618     0A64  3002               	movlw	2
  4619     0A65                     u3285:
  4620     0A65  1003               	clrc
  4621     0A66  0DA2               	rlf	??_ADC_Read^(0+128),f
  4622     0A67  3EFF               	addlw	-1
  4623     0A68  1D03               	skipz
  4624     0A69  2A65               	goto	u3285
  4625     0A6A  1003               	clrc
  4626     0A6B  0D22               	rlf	??_ADC_Read^(0+128),w
  4627     0A6C  00FF               	movwf	btemp+1
  4628     0A6D  087F               	movf	btemp+1,w
  4629     0A6E  1283               	bcf	3,5	;RP0=0, select bank0
  4630     0A6F  1303               	bcf	3,6	;RP1=0, select bank0
  4631     0A70  049F               	iorwf	31,f	;volatile
  4632     0A71                     l2350:
  4633                           
  4634                           ;XC8_ADC.c: 22:     _delay((unsigned long)((30)*(16000000/4000000.0)));
  4635     0A71  3027               	movlw	39
  4636     0A72  1683               	bsf	3,5	;RP0=1, select bank1
  4637     0A73  1303               	bcf	3,6	;RP1=0, select bank1
  4638     0A74  00A2               	movwf	??_ADC_Read^(0+128)
  4639     0A75                     u3877:
  4640     0A75  0BA2               	decfsz	??_ADC_Read^(0+128),f
  4641     0A76  2A75               	goto	u3877
  4642     0A77                     l2352:
  4643                           
  4644                           ;XC8_ADC.c: 24:     GO_DONE = 1;
  4645     0A77  1283               	bcf	3,5	;RP0=0, select bank0
  4646     0A78  1303               	bcf	3,6	;RP1=0, select bank0
  4647     0A79  151F               	bsf	31,2	;volatile
  4648     0A7A                     l207:	
  4649                           ;XC8_ADC.c: 26:     while(ADCON0bits.GO_DONE);
  4650                           
  4651     0A7A  191F               	btfsc	31,2	;volatile
  4652     0A7B  2A7D               	goto	u3291
  4653     0A7C  2A7E               	goto	u3290
  4654     0A7D                     u3291:
  4655     0A7D  2A7A               	goto	l207
  4656     0A7E                     u3290:
  4657     0A7E                     l2354:
  4658                           
  4659                           ;XC8_ADC.c: 27:     return ((ADRESH << 8) + ADRESL);
  4660     0A7E  081E               	movf	30,w	;volatile
  4661     0A7F  1683               	bsf	3,5	;RP0=1, select bank1
  4662     0A80  1303               	bcf	3,6	;RP1=0, select bank1
  4663     0A81  00A1               	movwf	(?_ADC_Read+1)^(0+128)
  4664     0A82  081E               	movf	30,w	;volatile
  4665     0A83  00A0               	movwf	?_ADC_Read^(0+128)
  4666     0A84                     l206:
  4667     0A84  0008               	return
  4668     0A85                     __end_of_ADC_Read:
  4669                           
  4670                           	psect	text17
  4671     0939                     __ptext17:	
  4672 ;; *************** function _ADC_Init *****************
  4673 ;; Defined at:
  4674 ;;		line 5 in file "XC8_ADC.c"
  4675 ;; Parameters:    Size  Location     Type
  4676 ;;		None
  4677 ;; Auto vars:     Size  Location     Type
  4678 ;;		None
  4679 ;; Return value:  Size  Location     Type
  4680 ;;                  1    wreg      void 
  4681 ;; Registers used:
  4682 ;;		wreg
  4683 ;; Tracked objects:
  4684 ;;		On entry : 0/0
  4685 ;;		On exit  : 0/0
  4686 ;;		Unchanged: 0/0
  4687 ;; Data sizes:     COMMON   BANK0   BANK1   BANK3   BANK2
  4688 ;;      Params:         0       0       0       0       0
  4689 ;;      Locals:         0       0       0       0       0
  4690 ;;      Temps:          0       0       0       0       0
  4691 ;;      Totals:         0       0       0       0       0
  4692 ;;Total ram usage:        0 bytes
  4693 ;; Hardware stack levels used: 1
  4694 ;; Hardware stack levels required when called: 4
  4695 ;; This function calls:
  4696 ;;		Nothing
  4697 ;; This function is called by:
  4698 ;;		_main
  4699 ;; This function uses a non-reentrant model
  4700 ;;
  4701                           
  4702     0939                     _ADC_Init:	
  4703                           ;psect for function _ADC_Init
  4704                           
  4705     0939                     l2648:	
  4706                           ;incstack = 0
  4707                           ; Regs used in _ADC_Init: [wreg]
  4708                           
  4709                           
  4710                           ;XC8_ADC.c: 7:     ADCON0 = 0b01000001;
  4711     0939  3041               	movlw	65
  4712     093A  1283               	bcf	3,5	;RP0=0, select bank0
  4713     093B  1303               	bcf	3,6	;RP1=0, select bank0
  4714     093C  009F               	movwf	31	;volatile
  4715                           
  4716                           ;XC8_ADC.c: 8:     ADCON1 = 0x80;
  4717     093D  3080               	movlw	128
  4718     093E  1683               	bsf	3,5	;RP0=1, select bank1
  4719     093F  1303               	bcf	3,6	;RP1=0, select bank1
  4720     0940  009F               	movwf	31	;volatile
  4721     0941                     l202:
  4722     0941  0008               	return
  4723     0942                     __end_of_ADC_Init:
  4724                           
  4725                           	psect	text18
  4726     0BD6                     __ptext18:	
  4727 ;; *************** function _ISR *****************
  4728 ;; Defined at:
  4729 ;;		line 63 in file "ServoMotor_Compare.c"
  4730 ;; Parameters:    Size  Location     Type
  4731 ;;		None
  4732 ;; Auto vars:     Size  Location     Type
  4733 ;;		None
  4734 ;; Return value:  Size  Location     Type
  4735 ;;                  1    wreg      void 
  4736 ;; Registers used:
  4737 ;;		wreg, fsr0l, fsr0h, status,2, status,0, btemp+1, pclath, cstack
  4738 ;; Tracked objects:
  4739 ;;		On entry : 0/0
  4740 ;;		On exit  : 0/0
  4741 ;;		Unchanged: 0/0
  4742 ;; Data sizes:     COMMON   BANK0   BANK1   BANK3   BANK2
  4743 ;;      Params:         0       0       0       0       0
  4744 ;;      Locals:         0       0       0       0       0
  4745 ;;      Temps:          0       6       0       0       0
  4746 ;;      Totals:         0       6       0       0       0
  4747 ;;Total ram usage:        6 bytes
  4748 ;; Hardware stack levels used: 1
  4749 ;; Hardware stack levels required when called: 3
  4750 ;; This function calls:
  4751 ;;		_UART_Pos
  4752 ;;		_sprintf
  4753 ;;		i1_UART_sendString
  4754 ;; This function is called by:
  4755 ;;		Interrupt level 1
  4756 ;; This function uses a non-reentrant model
  4757 ;;
  4758                           
  4759     0BD6                     _ISR:	
  4760                           ;psect for function _ISR
  4761                           
  4762     0BD6                     i1l2656:
  4763                           
  4764                           ;ServoMotor_Compare.c: 65:     if(TMR1IF)
  4765     0BD6  1C0C               	btfss	12,0	;volatile
  4766     0BD7  2BD9               	goto	u380_21
  4767     0BD8  2BDA               	goto	u380_20
  4768     0BD9                     u380_21:
  4769     0BD9  2BE3               	goto	i1l2668
  4770     0BDA                     u380_20:
  4771     0BDA                     i1l2658:
  4772                           
  4773                           ;ServoMotor_Compare.c: 66:     {;ServoMotor_Compare.c: 67:         TMR1 = TIME1;
  4774     0BDA  085F               	movf	_TIME1+1,w
  4775     0BDB  008F               	movwf	15	;volatile
  4776     0BDC  085E               	movf	_TIME1,w
  4777     0BDD  008E               	movwf	14	;volatile
  4778     0BDE                     i1l2660:
  4779                           
  4780                           ;ServoMotor_Compare.c: 68:         CCP1CON = 0x00;
  4781     0BDE  0197               	clrf	23	;volatile
  4782     0BDF                     i1l2662:
  4783                           
  4784                           ;ServoMotor_Compare.c: 69:         RC2 = 1;
  4785     0BDF  1507               	bsf	7,2	;volatile
  4786     0BE0                     i1l2664:
  4787                           
  4788                           ;ServoMotor_Compare.c: 70:         CCP1CON = 0x09;
  4789     0BE0  3009               	movlw	9
  4790     0BE1  0097               	movwf	23	;volatile
  4791     0BE2                     i1l2666:
  4792                           
  4793                           ;ServoMotor_Compare.c: 72:         TMR1IF = 0;
  4794     0BE2  100C               	bcf	12,0	;volatile
  4795     0BE3                     i1l2668:
  4796                           
  4797                           ;ServoMotor_Compare.c: 75:     if(RCIF){
  4798     0BE3  1E8C               	btfss	12,5	;volatile
  4799     0BE4  2BE6               	goto	u381_21
  4800     0BE5  2BE7               	goto	u381_20
  4801     0BE6                     u381_21:
  4802     0BE6  2C1F               	goto	i1l72
  4803     0BE7                     u381_20:
  4804     0BE7                     i1l2670:
  4805                           
  4806                           ;ServoMotor_Compare.c: 77:         if (OERR)
  4807     0BE7  1C98               	btfss	24,1	;volatile
  4808     0BE8  2BEA               	goto	u382_21
  4809     0BE9  2BEB               	goto	u382_20
  4810     0BEA                     u382_21:
  4811     0BEA  2BED               	goto	i1l2674
  4812     0BEB                     u382_20:
  4813     0BEB                     i1l2672:
  4814                           
  4815                           ;ServoMotor_Compare.c: 78:         {;ServoMotor_Compare.c: 79:             CREN = 0;
  4816     0BEB  1218               	bcf	24,4	;volatile
  4817                           
  4818                           ;ServoMotor_Compare.c: 80:             CREN = 1;
  4819     0BEC  1618               	bsf	24,4	;volatile
  4820     0BED                     i1l2674:
  4821                           
  4822                           ;ServoMotor_Compare.c: 82:         command = RCREG;
  4823     0BED  081A               	movf	26,w	;volatile
  4824     0BEE  00E0               	movwf	_command
  4825     0BEF                     i1l2676:
  4826                           
  4827                           ;ServoMotor_Compare.c: 83:         sprintf(rcvStr, "Received: %c\r\n", command);
  4828     0BEF  3024               	movlw	(low ((STR_3-__stringbase)| (0+32768)))& (0+255)
  4829     0BF0  00F0               	movwf	sprintf@f
  4830     0BF1  0860               	movf	_command,w
  4831     0BF2  00D6               	movwf	??_ISR
  4832     0BF3  01D7               	clrf	??_ISR+1
  4833     0BF4  0856               	movf	??_ISR,w
  4834     0BF5  00F1               	movwf	?_sprintf+1
  4835     0BF6  0857               	movf	??_ISR+1,w
  4836     0BF7  00F2               	movwf	?_sprintf+2
  4837     0BF8  3090               	movlw	(low (_rcvStr| (0+256)))& (0+255)
  4838     0BF9  120A  158A  2380  120A  158A  	fcall	_sprintf
  4839     0BFE                     i1l2678:
  4840                           
  4841                           ;ServoMotor_Compare.c: 84:         UART_sendString(rcvStr);
  4842     0BFE  3090               	movlw	(low (_rcvStr| (0+256)))& (0+255)
  4843     0BFF  00F1               	movwf	i1UART_sendString@str
  4844     0C00  3001               	movlw	1
  4845     0C01  00F2               	movwf	i1UART_sendString@str+1
  4846     0C02  120A  158A  21A2  120A  158A  	fcall	i1_UART_sendString
  4847     0C07                     i1l2680:
  4848                           
  4849                           ;ServoMotor_Compare.c: 85:         if(command == 97)
  4850     0C07  3061               	movlw	97
  4851     0C08  1283               	bcf	3,5	;RP0=0, select bank0
  4852     0C09  1303               	bcf	3,6	;RP1=0, select bank0
  4853     0C0A  0660               	xorwf	_command,w
  4854     0C0B  1D03               	btfss	3,2
  4855     0C0C  2C0E               	goto	u383_21
  4856     0C0D  2C0F               	goto	u383_20
  4857     0C0E                     u383_21:
  4858     0C0E  2C13               	goto	i1l70
  4859     0C0F                     u383_20:
  4860     0C0F                     i1l2682:
  4861                           
  4862                           ;ServoMotor_Compare.c: 86:         {;ServoMotor_Compare.c: 87:             mode = 0;
  4863     0C0F  1683               	bsf	3,5	;RP0=1, select bank1
  4864     0C10  1303               	bcf	3,6	;RP1=0, select bank1
  4865     0C11  01EE               	clrf	_mode^(0+128)
  4866                           
  4867                           ;ServoMotor_Compare.c: 88:         }
  4868     0C12  2C1F               	goto	i1l72
  4869     0C13                     i1l70:	
  4870                           ;ServoMotor_Compare.c: 89:         else
  4871                           
  4872                           
  4873                           ;ServoMotor_Compare.c: 90:         {;ServoMotor_Compare.c: 91:             mode = 1;
  4874     0C13  1683               	bsf	3,5	;RP0=1, select bank1
  4875     0C14  1303               	bcf	3,6	;RP1=0, select bank1
  4876     0C15  01EE               	clrf	_mode^(0+128)
  4877     0C16  0AEE               	incf	_mode^(0+128),f
  4878     0C17                     i1l2684:
  4879                           
  4880                           ;ServoMotor_Compare.c: 92:             UART_Pos(command);
  4881     0C17  1283               	bcf	3,5	;RP0=0, select bank0
  4882     0C18  1303               	bcf	3,6	;RP1=0, select bank0
  4883     0C19  0860               	movf	_command,w
  4884     0C1A  120A  158A  242C  120A  158A  	fcall	_UART_Pos
  4885     0C1F                     i1l72:
  4886     0C1F  1283               	bcf	3,5	;RP0=0, select bank0
  4887     0C20  1303               	bcf	3,6	;RP1=0, select bank0
  4888     0C21  085B               	movf	??_ISR+5,w
  4889     0C22  00FF               	movwf	btemp+1
  4890     0C23  085A               	movf	??_ISR+4,w
  4891     0C24  008A               	movwf	10
  4892     0C25  0859               	movf	??_ISR+3,w
  4893     0C26  0084               	movwf	4
  4894     0C27  0E58               	swapf	??_ISR+2,w
  4895     0C28  0083               	movwf	3
  4896     0C29  0EFE               	swapf	btemp,f
  4897     0C2A  0E7E               	swapf	btemp,w
  4898     0C2B  0009               	retfie
  4899     0C2C                     __end_of_ISR:
  4900                           
  4901                           	psect	intentry
  4902     0004                     __pintentry:	
  4903                           ;incstack = 0
  4904                           ; Regs used in _ISR: [wreg-fsr0h+status,2+status,0+btemp+1+pclath+cstack]
  4905                           
  4906     0004                     interrupt_function:
  4907     007E                     saved_w	set	btemp
  4908     0004  00FE               	movwf	btemp
  4909     0005  0E03               	swapf	3,w
  4910     0006  1283               	bcf	3,5	;RP0=0, select bank0
  4911     0007  1303               	bcf	3,6	;RP1=0, select bank0
  4912     0008  00D8               	movwf	??_ISR+2
  4913     0009  0804               	movf	4,w
  4914     000A  00D9               	movwf	??_ISR+3
  4915     000B  080A               	movf	10,w
  4916     000C  00DA               	movwf	??_ISR+4
  4917     000D  087F               	movf	btemp+1,w
  4918     000E  00DB               	movwf	??_ISR+5
  4919     000F  120A  158A  2BD6   	ljmp	_ISR
  4920                           
  4921                           	psect	text19
  4922     0B80                     __ptext19:	
  4923 ;; *************** function _sprintf *****************
  4924 ;; Defined at:
  4925 ;;		line 505 in file "C:\Program Files\Microchip\xc8\v2.41\pic\sources\c90\common\doprnt.c"
  4926 ;; Parameters:    Size  Location     Type
  4927 ;;  sp              1    wreg     PTR unsigned char 
  4928 ;;		 -> rcvStr(17), 
  4929 ;;  f               1    0[COMMON] PTR const unsigned char 
  4930 ;;		 -> STR_3(15), 
  4931 ;; Auto vars:     Size  Location     Type
  4932 ;;  sp              1    7[COMMON] PTR unsigned char 
  4933 ;;		 -> rcvStr(17), 
  4934 ;;  tmpval          4    0        struct .
  4935 ;;  cp              2    0        PTR const unsigned char 
  4936 ;;  len             2    0        unsigned int 
  4937 ;;  val             2    0        unsigned int 
  4938 ;;  c               1    6[COMMON] unsigned char 
  4939 ;;  ap              1    5[COMMON] PTR void [1]
  4940 ;;		 -> ?_sprintf(2), 
  4941 ;;  flag            1    0        unsigned char 
  4942 ;;  prec            1    0        char 
  4943 ;; Return value:  Size  Location     Type
  4944 ;;                  2    0[COMMON] int 
  4945 ;; Registers used:
  4946 ;;		wreg, fsr0l, fsr0h, status,2, status,0, btemp+1, pclath
  4947 ;; Tracked objects:
  4948 ;;		On entry : 0/0
  4949 ;;		On exit  : 0/0
  4950 ;;		Unchanged: 0/0
  4951 ;; Data sizes:     COMMON   BANK0   BANK1   BANK3   BANK2
  4952 ;;      Params:         3       0       0       0       0
  4953 ;;      Locals:         3       0       0       0       0
  4954 ;;      Temps:          2       0       0       0       0
  4955 ;;      Totals:         8       0       0       0       0
  4956 ;;Total ram usage:        8 bytes
  4957 ;; Hardware stack levels used: 2
  4958 ;; This function calls:
  4959 ;;		Nothing
  4960 ;; This function is called by:
  4961 ;;		_ISR
  4962 ;; This function uses a non-reentrant model
  4963 ;;
  4964                           
  4965     0B80                     _sprintf:	
  4966                           ;psect for function _sprintf
  4967                           
  4968                           
  4969                           ;incstack = 0
  4970                           ; Regs used in _sprintf: [wreg-fsr0h+status,2+status,0+btemp+1+pclath]
  4971                           ;sprintf@sp stored from wreg
  4972     0B80  00F7               	movwf	sprintf@sp
  4973     0B81                     i1l2594:
  4974                           
  4975                           ;C:\Program Files\Microchip\xc8\v2.41\pic\sources\c90\common\doprnt.c: 505: sprintf(char
      +                           * sp, const char * f, ...);C:\Program Files\Microchip\xc8\v2.41\pic\sources\c90\common\
      +                          doprnt.c: 506: {;C:\Program Files\Microchip\xc8\v2.41\pic\sources\c90\common\doprnt.c: 5
      +                          07:  va_list ap;;C:\Program Files\Microchip\xc8\v2.41\pic\sources\c90\common\doprnt.c: 5
      +                          12:  char c;;C:\Program Files\Microchip\xc8\v2.41\pic\sources\c90\common\doprnt.c: 521: 
      +                           signed char prec;;C:\Program Files\Microchip\xc8\v2.41\pic\sources\c90\common\doprnt.c:
      +                           525:  unsigned char flag;
  4976     0B81  3071               	movlw	(low ((?_sprintf| 0+1)))& (0+255)
  4977     0B82  00F5               	movwf	sprintf@ap
  4978                           
  4979                           ;C:\Program Files\Microchip\xc8\v2.41\pic\sources\c90\common\doprnt.c: 553:  while((c = 
      +                          *f++)) {
  4980     0B83  2BC1               	goto	i1l2614
  4981     0B84                     i1l2596:
  4982                           
  4983                           ;C:\Program Files\Microchip\xc8\v2.41\pic\sources\c90\common\doprnt.c: 555:   if(c != '%
      +                          ')
  4984     0B84  3025               	movlw	37
  4985     0B85  0676               	xorwf	sprintf@c,w
  4986     0B86  1903               	btfsc	3,2
  4987     0B87  2B89               	goto	u378_21
  4988     0B88  2B8A               	goto	u378_20
  4989     0B89                     u378_21:
  4990     0B89  2B94               	goto	i1l2602
  4991     0B8A                     u378_20:
  4992     0B8A                     i1l2598:
  4993                           
  4994                           ;C:\Program Files\Microchip\xc8\v2.41\pic\sources\c90\common\doprnt.c: 557:   {;C:\Progr
      +                          am Files\Microchip\xc8\v2.41\pic\sources\c90\common\doprnt.c: 558:    ((*sp++ = (c)));
  4995     0B8A  0877               	movf	sprintf@sp,w
  4996     0B8B  0084               	movwf	4
  4997     0B8C  0876               	movf	sprintf@c,w
  4998     0B8D  1783               	bsf	3,7	;select IRP bank2
  4999     0B8E  0080               	movwf	0
  5000     0B8F                     i1l2600:
  5001     0B8F  3001               	movlw	1
  5002     0B90  00FF               	movwf	btemp+1
  5003     0B91  087F               	movf	btemp+1,w
  5004     0B92  07F7               	addwf	sprintf@sp,f
  5005                           
  5006                           ;C:\Program Files\Microchip\xc8\v2.41\pic\sources\c90\common\doprnt.c: 559:    continue;
  5007     0B93  2BC1               	goto	i1l2614
  5008     0B94                     i1l2602:
  5009                           
  5010                           ;C:\Program Files\Microchip\xc8\v2.41\pic\sources\c90\common\doprnt.c: 661:   switch(c =
      +                           *f++) {
  5011     0B94  2BA7               	goto	i1l2612
  5012     0B95                     i1l2604:
  5013                           
  5014                           ;C:\Program Files\Microchip\xc8\v2.41\pic\sources\c90\common\doprnt.c: 825:    c = (char
      +                          )(*(int *)__va_arg((*(int **)ap), (int)0));
  5015     0B95  0875               	movf	sprintf@ap,w
  5016     0B96  0084               	movwf	4
  5017     0B97  0800               	movf	0,w
  5018     0B98  00F6               	movwf	sprintf@c
  5019     0B99                     i1l2606:
  5020     0B99  3002               	movlw	2
  5021     0B9A  00FF               	movwf	btemp+1
  5022     0B9B  087F               	movf	btemp+1,w
  5023     0B9C  07F5               	addwf	sprintf@ap,f
  5024     0B9D                     i1l2608:
  5025                           
  5026                           ;C:\Program Files\Microchip\xc8\v2.41\pic\sources\c90\common\doprnt.c: 835:    ((*sp++ =
      +                           (c)));
  5027     0B9D  0877               	movf	sprintf@sp,w
  5028     0B9E  0084               	movwf	4
  5029     0B9F  0876               	movf	sprintf@c,w
  5030     0BA0  1783               	bsf	3,7	;select IRP bank2
  5031     0BA1  0080               	movwf	0
  5032     0BA2  3001               	movlw	1
  5033     0BA3  00FF               	movwf	btemp+1
  5034     0BA4  087F               	movf	btemp+1,w
  5035     0BA5  07F7               	addwf	sprintf@sp,f
  5036                           
  5037                           ;C:\Program Files\Microchip\xc8\v2.41\pic\sources\c90\common\doprnt.c: 836:    continue;
  5038     0BA6  2BC1               	goto	i1l2614
  5039     0BA7                     i1l2612:
  5040     0BA7  3001               	movlw	1
  5041     0BA8  07F0               	addwf	sprintf@f,f
  5042     0BA9  30FF               	movlw	-1
  5043     0BAA  0770               	addwf	sprintf@f,w
  5044     0BAB  0084               	movwf	4
  5045     0BAC  120A  158A  200A  120A  158A  	fcall	stringdir
  5046     0BB1  00F6               	movwf	sprintf@c
  5047     0BB2  00F3               	movwf	??_sprintf
  5048     0BB3  01F4               	clrf	??_sprintf+1
  5049                           
  5050                           ; Switch on 2 bytes has been partitioned into a top level switch of size 1, and 1 sub-sw
      +                          itches
  5051                           ; Switch size 1, requested type "simple"
  5052                           ; Number of cases is 1, Range of values is 0 to 0
  5053                           ; switch strategies available:
  5054                           ; Name         Instructions Cycles
  5055                           ; simple_byte            4     3 (average)
  5056                           ; direct_byte           11     8 (fixed)
  5057                           ; jumptable            260     6 (fixed)
  5058                           ;	Chosen strategy is simple_byte
  5059     0BB4  0874               	movf	??_sprintf+1,w
  5060     0BB5  3A00               	xorlw	0	; case 0
  5061     0BB6  1903               	skipnz
  5062     0BB7  2BB9               	goto	i1l2718
  5063     0BB8  2B9D               	goto	i1l2608
  5064     0BB9                     i1l2718:
  5065                           
  5066                           ; Switch size 1, requested type "simple"
  5067                           ; Number of cases is 2, Range of values is 0 to 99
  5068                           ; switch strategies available:
  5069                           ; Name         Instructions Cycles
  5070                           ; simple_byte            7     4 (average)
  5071                           ; jumptable            260     6 (fixed)
  5072                           ;	Chosen strategy is simple_byte
  5073     0BB9  0873               	movf	??_sprintf,w
  5074     0BBA  3A00               	xorlw	0	; case 0
  5075     0BBB  1903               	skipnz
  5076     0BBC  2BD1               	goto	i1l2616
  5077     0BBD  3A63               	xorlw	99	; case 99
  5078     0BBE  1903               	skipnz
  5079     0BBF  2B95               	goto	i1l2604
  5080     0BC0  2B9D               	goto	i1l2608
  5081     0BC1                     i1l2614:
  5082                           
  5083                           ;C:\Program Files\Microchip\xc8\v2.41\pic\sources\c90\common\doprnt.c: 553:  while((c = 
      +                          *f++)) {
  5084     0BC1  3001               	movlw	1
  5085     0BC2  07F0               	addwf	sprintf@f,f
  5086     0BC3  30FF               	movlw	-1
  5087     0BC4  0770               	addwf	sprintf@f,w
  5088     0BC5  0084               	movwf	4
  5089     0BC6  120A  158A  200A  120A  158A  	fcall	stringdir
  5090     0BCB  00F6               	movwf	sprintf@c
  5091     0BCC  0876               	movf	sprintf@c,w
  5092     0BCD  1D03               	btfss	3,2
  5093     0BCE  2BD0               	goto	u379_21
  5094     0BCF  2BD1               	goto	u379_20
  5095     0BD0                     u379_21:
  5096     0BD0  2B84               	goto	i1l2596
  5097     0BD1                     u379_20:
  5098     0BD1                     i1l2616:
  5099                           
  5100                           ;C:\Program Files\Microchip\xc8\v2.41\pic\sources\c90\common\doprnt.c: 1564:  *sp = 0;
  5101     0BD1  0877               	movf	sprintf@sp,w
  5102     0BD2  0084               	movwf	4
  5103     0BD3  1783               	bsf	3,7	;select IRP bank2
  5104     0BD4  0180               	clrf	0
  5105     0BD5                     i1l308:
  5106     0BD5  0008               	return
  5107     0BD6                     __end_of_sprintf:
  5108                           
  5109                           	psect	text20
  5110     0C2C                     __ptext20:	
  5111 ;; *************** function _UART_Pos *****************
  5112 ;; Defined at:
  5113 ;;		line 24 in file "ServoMotor_Compare.c"
  5114 ;; Parameters:    Size  Location     Type
  5115 ;;  com             1    wreg     unsigned char 
  5116 ;; Auto vars:     Size  Location     Type
  5117 ;;  com             1   53[BANK0 ] unsigned char 
  5118 ;; Return value:  Size  Location     Type
  5119 ;;                  1    wreg      void 
  5120 ;; Registers used:
  5121 ;;		wreg, fsr0l, fsr0h, status,2, status,0, btemp+1, pclath, cstack
  5122 ;; Tracked objects:
  5123 ;;		On entry : 0/0
  5124 ;;		On exit  : 0/0
  5125 ;;		Unchanged: 0/0
  5126 ;; Data sizes:     COMMON   BANK0   BANK1   BANK3   BANK2
  5127 ;;      Params:         0       0       0       0       0
  5128 ;;      Locals:         0       1       0       0       0
  5129 ;;      Temps:          0       0       0       0       0
  5130 ;;      Totals:         0       1       0       0       0
  5131 ;;Total ram usage:        1 bytes
  5132 ;; Hardware stack levels used: 1
  5133 ;; Hardware stack levels required when called: 2
  5134 ;; This function calls:
  5135 ;;		i1_ServoAngle
  5136 ;;		i1_UART_sendString
  5137 ;; This function is called by:
  5138 ;;		_ISR
  5139 ;; This function uses a non-reentrant model
  5140 ;;
  5141                           
  5142     0C2C                     _UART_Pos:	
  5143                           ;psect for function _UART_Pos
  5144                           
  5145                           
  5146                           ;incstack = 0
  5147                           ; Regs used in _UART_Pos: [wreg-fsr0h+status,2+status,0+btemp+1+pclath+cstack]
  5148                           ;UART_Pos@com stored from wreg
  5149     0C2C  1283               	bcf	3,5	;RP0=0, select bank0
  5150     0C2D  1303               	bcf	3,6	;RP1=0, select bank0
  5151     0C2E  00D5               	movwf	UART_Pos@com
  5152     0C2F                     i1l2540:
  5153                           
  5154                           ;ServoMotor_Compare.c: 24: void UART_Pos(uint8_t com);ServoMotor_Compare.c: 25: {;ServoM
      +                          otor_Compare.c: 26:     if(com == 48){
  5155     0C2F  3030               	movlw	48
  5156     0C30  0655               	xorwf	UART_Pos@com,w
  5157     0C31  1D03               	btfss	3,2
  5158     0C32  2C34               	goto	u370_21
  5159     0C33  2C35               	goto	u370_20
  5160     0C34                     u370_21:
  5161     0C34  2C3C               	goto	i1l2544
  5162     0C35                     u370_20:
  5163     0C35                     i1l2542:
  5164                           
  5165                           ;ServoMotor_Compare.c: 27:         ServoAngle(0);
  5166     0C35  3000               	movlw	0
  5167     0C36  120A  158A  258E  120A  158A  	fcall	i1_ServoAngle
  5168                           
  5169                           ;ServoMotor_Compare.c: 28:     }else if(com == 49){
  5170     0C3B  2C94               	goto	i1l2572
  5171     0C3C                     i1l2544:
  5172     0C3C  3031               	movlw	49
  5173     0C3D  0655               	xorwf	UART_Pos@com,w
  5174     0C3E  1D03               	btfss	3,2
  5175     0C3F  2C41               	goto	u371_21
  5176     0C40  2C42               	goto	u371_20
  5177     0C41                     u371_21:
  5178     0C41  2C49               	goto	i1l2548
  5179     0C42                     u371_20:
  5180     0C42                     i1l2546:
  5181                           
  5182                           ;ServoMotor_Compare.c: 29:         ServoAngle(30);
  5183     0C42  301E               	movlw	30
  5184     0C43  120A  158A  258E  120A  158A  	fcall	i1_ServoAngle
  5185                           
  5186                           ;ServoMotor_Compare.c: 30:     }else if(com == 50){
  5187     0C48  2C94               	goto	i1l2572
  5188     0C49                     i1l2548:
  5189     0C49  3032               	movlw	50
  5190     0C4A  0655               	xorwf	UART_Pos@com,w
  5191     0C4B  1D03               	btfss	3,2
  5192     0C4C  2C4E               	goto	u372_21
  5193     0C4D  2C4F               	goto	u372_20
  5194     0C4E                     u372_21:
  5195     0C4E  2C56               	goto	i1l2552
  5196     0C4F                     u372_20:
  5197     0C4F                     i1l2550:
  5198                           
  5199                           ;ServoMotor_Compare.c: 31:         ServoAngle(45);
  5200     0C4F  302D               	movlw	45
  5201     0C50  120A  158A  258E  120A  158A  	fcall	i1_ServoAngle
  5202                           
  5203                           ;ServoMotor_Compare.c: 32:     }else if(com == 51){
  5204     0C55  2C94               	goto	i1l2572
  5205     0C56                     i1l2552:
  5206     0C56  3033               	movlw	51
  5207     0C57  0655               	xorwf	UART_Pos@com,w
  5208     0C58  1D03               	btfss	3,2
  5209     0C59  2C5B               	goto	u373_21
  5210     0C5A  2C5C               	goto	u373_20
  5211     0C5B                     u373_21:
  5212     0C5B  2C63               	goto	i1l2556
  5213     0C5C                     u373_20:
  5214     0C5C                     i1l2554:
  5215                           
  5216                           ;ServoMotor_Compare.c: 33:         ServoAngle(90);
  5217     0C5C  305A               	movlw	90
  5218     0C5D  120A  158A  258E  120A  158A  	fcall	i1_ServoAngle
  5219                           
  5220                           ;ServoMotor_Compare.c: 34:     }else if(com == 52){
  5221     0C62  2C94               	goto	i1l2572
  5222     0C63                     i1l2556:
  5223     0C63  3034               	movlw	52
  5224     0C64  0655               	xorwf	UART_Pos@com,w
  5225     0C65  1D03               	btfss	3,2
  5226     0C66  2C68               	goto	u374_21
  5227     0C67  2C69               	goto	u374_20
  5228     0C68                     u374_21:
  5229     0C68  2C70               	goto	i1l2560
  5230     0C69                     u374_20:
  5231     0C69                     i1l2558:
  5232                           
  5233                           ;ServoMotor_Compare.c: 35:         ServoAngle(120);
  5234     0C69  3078               	movlw	120
  5235     0C6A  120A  158A  258E  120A  158A  	fcall	i1_ServoAngle
  5236                           
  5237                           ;ServoMotor_Compare.c: 36:     }else if(com == 53){
  5238     0C6F  2C94               	goto	i1l2572
  5239     0C70                     i1l2560:
  5240     0C70  3035               	movlw	53
  5241     0C71  0655               	xorwf	UART_Pos@com,w
  5242     0C72  1D03               	btfss	3,2
  5243     0C73  2C75               	goto	u375_21
  5244     0C74  2C76               	goto	u375_20
  5245     0C75                     u375_21:
  5246     0C75  2C7D               	goto	i1l2564
  5247     0C76                     u375_20:
  5248     0C76                     i1l2562:
  5249                           
  5250                           ;ServoMotor_Compare.c: 37:         ServoAngle(150);
  5251     0C76  3096               	movlw	150
  5252     0C77  120A  158A  258E  120A  158A  	fcall	i1_ServoAngle
  5253                           
  5254                           ;ServoMotor_Compare.c: 38:     }else if(com == 54){
  5255     0C7C  2C94               	goto	i1l2572
  5256     0C7D                     i1l2564:
  5257     0C7D  3036               	movlw	54
  5258     0C7E  0655               	xorwf	UART_Pos@com,w
  5259     0C7F  1D03               	btfss	3,2
  5260     0C80  2C82               	goto	u376_21
  5261     0C81  2C83               	goto	u376_20
  5262     0C82                     u376_21:
  5263     0C82  2C8A               	goto	i1l2568
  5264     0C83                     u376_20:
  5265     0C83                     i1l2566:
  5266                           
  5267                           ;ServoMotor_Compare.c: 39:         ServoAngle(180);
  5268     0C83  30B4               	movlw	180
  5269     0C84  120A  158A  258E  120A  158A  	fcall	i1_ServoAngle
  5270                           
  5271                           ;ServoMotor_Compare.c: 40:     }else{
  5272     0C89  2C94               	goto	i1l2572
  5273     0C8A                     i1l2568:
  5274                           
  5275                           ;ServoMotor_Compare.c: 41:         UART_sendString("Invalid input!\r\n");
  5276     0C8A  3013               	movlw	(low ((STR_1-__stringbase)| (0+32768)))& (0+255)
  5277     0C8B  00F1               	movwf	i1UART_sendString@str
  5278     0C8C  3080               	movlw	128
  5279     0C8D  00F2               	movwf	i1UART_sendString@str+1
  5280     0C8E  120A  158A  21A2  120A  158A  	fcall	i1_UART_sendString
  5281     0C93  2C9D               	goto	i1l59
  5282     0C94                     i1l2572:
  5283                           
  5284                           ;ServoMotor_Compare.c: 44:     UART_sendString("Completed!\r\n");
  5285     0C94  3033               	movlw	(low ((STR_2-__stringbase)| (0+32768)))& (0+255)
  5286     0C95  00F1               	movwf	i1UART_sendString@str
  5287     0C96  3080               	movlw	128
  5288     0C97  00F2               	movwf	i1UART_sendString@str+1
  5289     0C98  120A  158A  21A2  120A  158A  	fcall	i1_UART_sendString
  5290     0C9D                     i1l59:
  5291     0C9D  0008               	return
  5292     0C9E                     __end_of_UART_Pos:
  5293                           
  5294                           	psect	text21
  5295     09A2                     __ptext21:	
  5296 ;; *************** function i1_UART_sendString *****************
  5297 ;; Defined at:
  5298 ;;		line 42 in file "UART.c"
  5299 ;; Parameters:    Size  Location     Type
  5300 ;;  str             2    1[COMMON] PTR unsigned char 
  5301 ;;		 -> STR_4(18), rcvStr(17), STR_2(13), STR_1(17), 
  5302 ;; Auto vars:     Size  Location     Type
  5303 ;;		None
  5304 ;; Return value:  Size  Location     Type
  5305 ;;                  1    wreg      void 
  5306 ;; Registers used:
  5307 ;;		wreg, fsr0l, fsr0h, status,2, status,0, btemp+1, pclath, cstack
  5308 ;; Tracked objects:
  5309 ;;		On entry : 0/0
  5310 ;;		On exit  : 0/0
  5311 ;;		Unchanged: 0/0
  5312 ;; Data sizes:     COMMON   BANK0   BANK1   BANK3   BANK2
  5313 ;;      Params:         2       0       0       0       0
  5314 ;;      Locals:         0       0       0       0       0
  5315 ;;      Temps:          0       0       0       0       0
  5316 ;;      Totals:         2       0       0       0       0
  5317 ;;Total ram usage:        2 bytes
  5318 ;; Hardware stack levels used: 1
  5319 ;; Hardware stack levels required when called: 1
  5320 ;; This function calls:
  5321 ;;		i1_UART_sendChar
  5322 ;; This function is called by:
  5323 ;;		_UART_Pos
  5324 ;;		_ISR
  5325 ;; This function uses a non-reentrant model
  5326 ;;
  5327                           
  5328     09A2                     i1_UART_sendString:	
  5329                           ;psect for function i1_UART_sendString
  5330                           
  5331     09A2                     i1l2526:	
  5332                           ;incstack = 0
  5333                           ; Regs used in i1_UART_sendString: [wreg-fsr0h+status,2+status,0+btemp+1+pclath+cstack]
  5334                           
  5335                           
  5336                           ;UART.c: 42: void UART_sendString(char* str);UART.c: 43: {;UART.c: 44:    while (*str)
  5337     09A2  29B7               	goto	i1l2532
  5338     09A3                     i1l2528:
  5339                           
  5340                           ;UART.c: 45:    {;UART.c: 46:        UART_sendChar(*str++);
  5341     09A3  0872               	movf	i1UART_sendString@str+1,w
  5342     09A4  00FF               	movwf	btemp+1
  5343     09A5  0871               	movf	i1UART_sendString@str,w
  5344     09A6  0084               	movwf	4
  5345     09A7  120A  158A  2000  120A  158A  	fcall	stringtab
  5346     09AC  120A  158A  2142  120A  158A  	fcall	i1_UART_sendChar
  5347     09B1                     i1l2530:
  5348     09B1  3001               	movlw	1
  5349     09B2  07F1               	addwf	i1UART_sendString@str,f
  5350     09B3  1803               	skipnc
  5351     09B4  0AF2               	incf	i1UART_sendString@str+1,f
  5352     09B5  3000               	movlw	0
  5353     09B6  07F2               	addwf	i1UART_sendString@str+1,f
  5354     09B7                     i1l2532:
  5355                           
  5356                           ;UART.c: 44:    while (*str)
  5357     09B7  0872               	movf	i1UART_sendString@str+1,w
  5358     09B8  1283               	bcf	3,5	;RP0=0, select bank0
  5359     09B9  1303               	bcf	3,6	;RP1=0, select bank0
  5360     09BA  00FF               	movwf	btemp+1
  5361     09BB  0871               	movf	i1UART_sendString@str,w
  5362     09BC  0084               	movwf	4
  5363     09BD  120A  158A  2000  120A  158A  	fcall	stringtab
  5364     09C2  3A00               	xorlw	0
  5365     09C3  1D03               	skipz
  5366     09C4  29C6               	goto	u368_21
  5367     09C5  29C7               	goto	u368_20
  5368     09C6                     u368_21:
  5369     09C6  29A3               	goto	i1l2528
  5370     09C7                     u368_20:
  5371     09C7                     i1l130:
  5372     09C7  0008               	return
  5373     09C8                     __end_ofi1_UART_sendString:
  5374                           
  5375                           	psect	text22
  5376     0942                     __ptext22:	
  5377 ;; *************** function i1_UART_sendChar *****************
  5378 ;; Defined at:
  5379 ;;		line 28 in file "UART.c"
  5380 ;; Parameters:    Size  Location     Type
  5381 ;;  data            1    wreg     unsigned char 
  5382 ;; Auto vars:     Size  Location     Type
  5383 ;;  data            1    0[COMMON] unsigned char 
  5384 ;; Return value:  Size  Location     Type
  5385 ;;                  1    wreg      void 
  5386 ;; Registers used:
  5387 ;;		wreg
  5388 ;; Tracked objects:
  5389 ;;		On entry : 0/0
  5390 ;;		On exit  : 0/0
  5391 ;;		Unchanged: 0/0
  5392 ;; Data sizes:     COMMON   BANK0   BANK1   BANK3   BANK2
  5393 ;;      Params:         0       0       0       0       0
  5394 ;;      Locals:         1       0       0       0       0
  5395 ;;      Temps:          0       0       0       0       0
  5396 ;;      Totals:         1       0       0       0       0
  5397 ;;Total ram usage:        1 bytes
  5398 ;; Hardware stack levels used: 1
  5399 ;; This function calls:
  5400 ;;		Nothing
  5401 ;; This function is called by:
  5402 ;;		i1_UART_sendString
  5403 ;; This function uses a non-reentrant model
  5404 ;;
  5405                           
  5406     0942                     i1_UART_sendChar:	
  5407                           ;psect for function i1_UART_sendChar
  5408                           
  5409                           
  5410                           ;incstack = 0
  5411                           ; Regs used in i1_UART_sendChar: [wreg]
  5412                           ;i1UART_sendChar@data stored from wreg
  5413     0942  00F0               	movwf	i1UART_sendChar@data
  5414     0943                     i1l2060:
  5415     0943                     i1l115:	
  5416                           ;UART.c: 28: void UART_sendChar(char data);UART.c: 29: {;UART.c: 30:    while (!TXIF);
  5417                           
  5418     0943  1283               	bcf	3,5	;RP0=0, select bank0
  5419     0944  1303               	bcf	3,6	;RP1=0, select bank0
  5420     0945  1E0C               	btfss	12,4	;volatile
  5421     0946  2948               	goto	u261_21
  5422     0947  2949               	goto	u261_20
  5423     0948                     u261_21:
  5424     0948  2943               	goto	i1l115
  5425     0949                     u261_20:
  5426     0949                     i1l2062:
  5427                           
  5428                           ;UART.c: 31:    TXREG = data;
  5429     0949  0870               	movf	i1UART_sendChar@data,w
  5430     094A  0099               	movwf	25	;volatile
  5431     094B                     i1l118:
  5432     094B  0008               	return
  5433     094C                     __end_ofi1_UART_sendChar:
  5434                           
  5435                           	psect	text23
  5436     0D8E                     __ptext23:	
  5437 ;; *************** function i1_ServoAngle *****************
  5438 ;; Defined at:
  5439 ;;		line 44 in file "XC8_Servo_Compare.c"
  5440 ;; Parameters:    Size  Location     Type
  5441 ;;  angle           1    wreg     unsigned char 
  5442 ;; Auto vars:     Size  Location     Type
  5443 ;;  angle           1   52[BANK0 ] unsigned char 
  5444 ;;  dc              2   50[BANK0 ] unsigned int 
  5445 ;; Return value:  Size  Location     Type
  5446 ;;                  1    wreg      void 
  5447 ;; Registers used:
  5448 ;;		wreg, status,2, status,0, btemp+1, pclath, cstack
  5449 ;; Tracked objects:
  5450 ;;		On entry : 0/0
  5451 ;;		On exit  : 0/0
  5452 ;;		Unchanged: 0/0
  5453 ;; Data sizes:     COMMON   BANK0   BANK1   BANK3   BANK2
  5454 ;;      Params:         0       0       0       0       0
  5455 ;;      Locals:         0       3       0       0       0
  5456 ;;      Temps:          0       8       0       0       0
  5457 ;;      Totals:         0      11       0       0       0
  5458 ;;Total ram usage:       11 bytes
  5459 ;; Hardware stack levels used: 1
  5460 ;; Hardware stack levels required when called: 1
  5461 ;; This function calls:
  5462 ;;		i1___fldiv
  5463 ;;		i1___fltol
  5464 ;;		i1___lwdiv
  5465 ;;		i1___wmul
  5466 ;;		i1___xxtofl
  5467 ;; This function is called by:
  5468 ;;		_UART_Pos
  5469 ;; This function uses a non-reentrant model
  5470 ;;
  5471                           
  5472     0D8E                     i1_ServoAngle:	
  5473                           ;psect for function i1_ServoAngle
  5474                           
  5475                           
  5476                           ;incstack = 0
  5477                           ; Regs used in i1_ServoAngle: [wreg+status,2+status,0+btemp+1+pclath+cstack]
  5478                           ;i1ServoAngle@angle stored from wreg
  5479     0D8E  1283               	bcf	3,5	;RP0=0, select bank0
  5480     0D8F  1303               	bcf	3,6	;RP1=0, select bank0
  5481     0D90  00D4               	movwf	i1ServoAngle@angle
  5482     0D91                     i1l2534:
  5483                           
  5484                           ;XC8_Servo_Compare.c: 44: void ServoAngle(uint8_t angle);XC8_Servo_Compare.c: 45: {;XC8_
      +                          Servo_Compare.c: 46:     if(angle <= 180)
  5485     0D91  30B5               	movlw	181
  5486     0D92  0254               	subwf	i1ServoAngle@angle,w
  5487     0D93  1803               	skipnc
  5488     0D94  2D96               	goto	u369_21
  5489     0D95  2D97               	goto	u369_20
  5490     0D96                     u369_21:
  5491     0D96  2E09               	goto	i1l185
  5492     0D97                     u369_20:
  5493     0D97                     i1l2536:
  5494                           
  5495                           ;XC8_Servo_Compare.c: 47:     {;XC8_Servo_Compare.c: 48:         uint16_t dc = (uint16_t
      +                          )((100 * angle) / 36.0) + TIME1 + (DC_RANGE / 20);
  5496     0D97  3064               	movlw	100
  5497     0D98  00F2               	movwf	i1___wmul@multiplicand
  5498     0D99  3000               	movlw	0
  5499     0D9A  00F3               	movwf	i1___wmul@multiplicand+1
  5500     0D9B  0854               	movf	i1ServoAngle@angle,w
  5501     0D9C  00CA               	movwf	??i1_ServoAngle
  5502     0D9D  01CB               	clrf	??i1_ServoAngle+1
  5503     0D9E  084A               	movf	??i1_ServoAngle,w
  5504     0D9F  00F0               	movwf	i1___wmul@multiplier
  5505     0DA0  084B               	movf	??i1_ServoAngle+1,w
  5506     0DA1  00F1               	movwf	i1___wmul@multiplier+1
  5507     0DA2  120A  158A  217D  120A  158A  	fcall	i1___wmul
  5508     0DA7  0870               	movf	?i1___wmul,w
  5509     0DA8  00F6               	movwf	i1___xxtofl@val
  5510     0DA9  0871               	movf	?i1___wmul+1,w
  5511     0DAA  00F7               	movwf	i1___xxtofl@val+1
  5512     0DAB  3000               	movlw	0
  5513     0DAC  1BF7               	btfsc	i1___xxtofl@val+1,7
  5514     0DAD  30FF               	movlw	255
  5515     0DAE  00F8               	movwf	i1___xxtofl@val+2
  5516     0DAF  00F9               	movwf	i1___xxtofl@val+3
  5517     0DB0  3001               	movlw	1
  5518     0DB1  120A  158A  2746  120A  158A  	fcall	i1___xxtofl
  5519     0DB6  0879               	movf	?i1___xxtofl+3,w
  5520     0DB7  1283               	bcf	3,5	;RP0=0, select bank0
  5521     0DB8  1303               	bcf	3,6	;RP1=0, select bank0
  5522     0DB9  00AD               	movwf	i1___fldiv@b+3
  5523     0DBA  0878               	movf	?i1___xxtofl+2,w
  5524     0DBB  00AC               	movwf	i1___fldiv@b+2
  5525     0DBC  0877               	movf	?i1___xxtofl+1,w
  5526     0DBD  00AB               	movwf	i1___fldiv@b+1
  5527     0DBE  0876               	movf	?i1___xxtofl,w
  5528     0DBF  00AA               	movwf	i1___fldiv@b
  5529     0DC0  3042               	movlw	66
  5530     0DC1  00A9               	movwf	i1___fldiv@a+3
  5531     0DC2  3010               	movlw	16
  5532     0DC3  00A8               	movwf	i1___fldiv@a+2
  5533     0DC4  3000               	movlw	0
  5534     0DC5  00A7               	movwf	i1___fldiv@a+1
  5535     0DC6  3000               	movlw	0
  5536     0DC7  00A6               	movwf	i1___fldiv@a
  5537     0DC8  120A  118A  2554  120A  158A  	fcall	i1___fldiv
  5538     0DCD  1283               	bcf	3,5	;RP0=0, select bank0
  5539     0DCE  1303               	bcf	3,6	;RP1=0, select bank0
  5540     0DCF  0829               	movf	?i1___fldiv+3,w
  5541     0DD0  00C3               	movwf	i1___fltol@f1+3
  5542     0DD1  0828               	movf	?i1___fldiv+2,w
  5543     0DD2  00C2               	movwf	i1___fltol@f1+2
  5544     0DD3  0827               	movf	?i1___fldiv+1,w
  5545     0DD4  00C1               	movwf	i1___fltol@f1+1
  5546     0DD5  0826               	movf	?i1___fldiv,w
  5547     0DD6  00C0               	movwf	i1___fltol@f1
  5548     0DD7  120A  158A  249E  120A  158A  	fcall	i1___fltol
  5549     0DDC  1283               	bcf	3,5	;RP0=0, select bank0
  5550     0DDD  1303               	bcf	3,6	;RP1=0, select bank0
  5551     0DDE  0840               	movf	?i1___fltol,w
  5552     0DDF  00CC               	movwf	??i1_ServoAngle+2
  5553     0DE0  0841               	movf	?i1___fltol+1,w
  5554     0DE1  00CD               	movwf	??i1_ServoAngle+3
  5555     0DE2  0842               	movf	?i1___fltol+2,w
  5556     0DE3  00CE               	movwf	??i1_ServoAngle+4
  5557     0DE4  0843               	movf	?i1___fltol+3,w
  5558     0DE5  00CF               	movwf	??i1_ServoAngle+5
  5559     0DE6  3014               	movlw	20
  5560     0DE7  00F0               	movwf	i1___lwdiv@divisor
  5561     0DE8  3000               	movlw	0
  5562     0DE9  00F1               	movwf	i1___lwdiv@divisor+1
  5563     0DEA  085D               	movf	_DC_RANGE+1,w
  5564     0DEB  00F3               	movwf	i1___lwdiv@dividend+1
  5565     0DEC  085C               	movf	_DC_RANGE,w
  5566     0DED  00F2               	movwf	i1___lwdiv@dividend
  5567     0DEE  120A  158A  22F6  120A  158A  	fcall	i1___lwdiv
  5568     0DF3  0870               	movf	?i1___lwdiv,w
  5569     0DF4  1283               	bcf	3,5	;RP0=0, select bank0
  5570     0DF5  1303               	bcf	3,6	;RP1=0, select bank0
  5571     0DF6  074C               	addwf	??i1_ServoAngle+2,w
  5572     0DF7  00D0               	movwf	??i1_ServoAngle+6
  5573     0DF8  0871               	movf	?i1___lwdiv+1,w
  5574     0DF9  1803               	skipnc
  5575     0DFA  0A71               	incf	?i1___lwdiv+1,w
  5576     0DFB  074D               	addwf	??i1_ServoAngle+3,w
  5577     0DFC  00D1               	movwf	??i1_ServoAngle+7
  5578     0DFD  085E               	movf	_TIME1,w
  5579     0DFE  0750               	addwf	??i1_ServoAngle+6,w
  5580     0DFF  00D2               	movwf	i1ServoAngle@dc
  5581     0E00  085F               	movf	_TIME1+1,w
  5582     0E01  1803               	skipnc
  5583     0E02  0A5F               	incf	_TIME1+1,w
  5584     0E03  0751               	addwf	??i1_ServoAngle+7,w
  5585     0E04  00D3               	movwf	i1ServoAngle@dc+1
  5586     0E05                     i1l2538:
  5587                           
  5588                           ;XC8_Servo_Compare.c: 49:         CCPR1 = dc;
  5589     0E05  0853               	movf	i1ServoAngle@dc+1,w
  5590     0E06  0096               	movwf	22	;volatile
  5591     0E07  0852               	movf	i1ServoAngle@dc,w
  5592     0E08  0095               	movwf	21	;volatile
  5593     0E09                     i1l185:
  5594     0E09  0008               	return
  5595     0E0A                     __end_ofi1_ServoAngle:
  5596                           
  5597                           	psect	text24
  5598     0F46                     __ptext24:	
  5599 ;; *************** function i1___xxtofl *****************
  5600 ;; Defined at:
  5601 ;;		line 10 in file "C:\Program Files\Microchip\xc8\v2.41\pic\sources\c90\common\xxtofl.c"
  5602 ;; Parameters:    Size  Location     Type
  5603 ;;  sign            1    wreg     unsigned char 
  5604 ;;  val             4    6[COMMON] long 
  5605 ;; Auto vars:     Size  Location     Type
  5606 ;;  sign            1    0[BANK0 ] unsigned char 
  5607 ;;  arg             4    2[BANK0 ] unsigned long 
  5608 ;;  exp             1    1[BANK0 ] unsigned char 
  5609 ;; Return value:  Size  Location     Type
  5610 ;;                  4    6[COMMON] unsigned char 
  5611 ;; Registers used:
  5612 ;;		wreg, status,2, status,0, btemp+1
  5613 ;; Tracked objects:
  5614 ;;		On entry : 0/0
  5615 ;;		On exit  : 0/0
  5616 ;;		Unchanged: 0/0
  5617 ;; Data sizes:     COMMON   BANK0   BANK1   BANK3   BANK2
  5618 ;;      Params:         4       0       0       0       0
  5619 ;;      Locals:         0       6       0       0       0
  5620 ;;      Temps:          4       0       0       0       0
  5621 ;;      Totals:         8       6       0       0       0
  5622 ;;Total ram usage:       14 bytes
  5623 ;; Hardware stack levels used: 1
  5624 ;; This function calls:
  5625 ;;		Nothing
  5626 ;; This function is called by:
  5627 ;;		i1_ServoAngle
  5628 ;; This function uses a non-reentrant model
  5629 ;;
  5630                           
  5631     0F46                     i1___xxtofl:	
  5632                           ;psect for function i1___xxtofl
  5633                           
  5634                           
  5635                           ;incstack = 0
  5636                           ; Regs used in i1___xxtofl: [wreg+status,2+status,0+btemp+1]
  5637                           ;i1___xxtofl@sign stored from wreg
  5638     0F46  1283               	bcf	3,5	;RP0=0, select bank0
  5639     0F47  1303               	bcf	3,6	;RP1=0, select bank0
  5640     0F48  00A0               	movwf	i1___xxtofl@sign
  5641     0F49                     i1l2288:
  5642     0F49  0820               	movf	i1___xxtofl@sign,w
  5643     0F4A  1903               	btfsc	3,2
  5644     0F4B  2F4D               	goto	u312_21
  5645     0F4C  2F4E               	goto	u312_20
  5646     0F4D                     u312_21:
  5647     0F4D  2F62               	goto	i1l2294
  5648     0F4E                     u312_20:
  5649     0F4E                     i1l2290:
  5650     0F4E  1FF9               	btfss	i1___xxtofl@val+3,7
  5651     0F4F  2F51               	goto	u313_21
  5652     0F50  2F52               	goto	u313_20
  5653     0F51                     u313_21:
  5654     0F51  2F62               	goto	i1l2294
  5655     0F52                     u313_20:
  5656     0F52                     i1l2292:
  5657     0F52  0976               	comf	i1___xxtofl@val,w
  5658     0F53  00A2               	movwf	i1___xxtofl@arg
  5659     0F54  0977               	comf	i1___xxtofl@val+1,w
  5660     0F55  00A3               	movwf	i1___xxtofl@arg+1
  5661     0F56  0978               	comf	i1___xxtofl@val+2,w
  5662     0F57  00A4               	movwf	i1___xxtofl@arg+2
  5663     0F58  0979               	comf	i1___xxtofl@val+3,w
  5664     0F59  00A5               	movwf	i1___xxtofl@arg+3
  5665     0F5A  0AA2               	incf	i1___xxtofl@arg,f
  5666     0F5B  1903               	skipnz
  5667     0F5C  0AA3               	incf	i1___xxtofl@arg+1,f
  5668     0F5D  1903               	skipnz
  5669     0F5E  0AA4               	incf	i1___xxtofl@arg+2,f
  5670     0F5F  1903               	skipnz
  5671     0F60  0AA5               	incf	i1___xxtofl@arg+3,f
  5672     0F61  2F6A               	goto	i1l745
  5673     0F62                     i1l2294:
  5674     0F62  0879               	movf	i1___xxtofl@val+3,w
  5675     0F63  00A5               	movwf	i1___xxtofl@arg+3
  5676     0F64  0878               	movf	i1___xxtofl@val+2,w
  5677     0F65  00A4               	movwf	i1___xxtofl@arg+2
  5678     0F66  0877               	movf	i1___xxtofl@val+1,w
  5679     0F67  00A3               	movwf	i1___xxtofl@arg+1
  5680     0F68  0876               	movf	i1___xxtofl@val,w
  5681     0F69  00A2               	movwf	i1___xxtofl@arg
  5682     0F6A                     i1l745:
  5683     0F6A  0879               	movf	i1___xxtofl@val+3,w
  5684     0F6B  0478               	iorwf	i1___xxtofl@val+2,w
  5685     0F6C  0477               	iorwf	i1___xxtofl@val+1,w
  5686     0F6D  0476               	iorwf	i1___xxtofl@val,w
  5687     0F6E  1D03               	skipz
  5688     0F6F  2F71               	goto	u314_21
  5689     0F70  2F72               	goto	u314_20
  5690     0F71                     u314_21:
  5691     0F71  2F7B               	goto	i1l2300
  5692     0F72                     u314_20:
  5693     0F72                     i1l2296:
  5694     0F72  3000               	movlw	0
  5695     0F73  00F9               	movwf	?i1___xxtofl+3
  5696     0F74  3000               	movlw	0
  5697     0F75  00F8               	movwf	?i1___xxtofl+2
  5698     0F76  3000               	movlw	0
  5699     0F77  00F7               	movwf	?i1___xxtofl+1
  5700     0F78  3000               	movlw	0
  5701     0F79  00F6               	movwf	?i1___xxtofl
  5702     0F7A  2FFF               	goto	i1l747
  5703     0F7B                     i1l2300:
  5704     0F7B  3096               	movlw	150
  5705     0F7C  00A1               	movwf	i1___xxtofl@exp
  5706     0F7D  2F8B               	goto	i1l2306
  5707     0F7E                     i1l2302:
  5708     0F7E  3001               	movlw	1
  5709     0F7F  00FF               	movwf	btemp+1
  5710     0F80  087F               	movf	btemp+1,w
  5711     0F81  07A1               	addwf	i1___xxtofl@exp,f
  5712     0F82                     i1l2304:
  5713     0F82  3001               	movlw	1
  5714     0F83                     u315_25:
  5715     0F83  1003               	clrc
  5716     0F84  0CA5               	rrf	i1___xxtofl@arg+3,f
  5717     0F85  0CA4               	rrf	i1___xxtofl@arg+2,f
  5718     0F86  0CA3               	rrf	i1___xxtofl@arg+1,f
  5719     0F87  0CA2               	rrf	i1___xxtofl@arg,f
  5720     0F88  3EFF               	addlw	-1
  5721     0F89  1D03               	skipz
  5722     0F8A  2F83               	goto	u315_25
  5723     0F8B                     i1l2306:
  5724     0F8B  30FE               	movlw	254
  5725     0F8C  0525               	andwf	i1___xxtofl@arg+3,w
  5726     0F8D  1D03               	btfss	3,2
  5727     0F8E  2F90               	goto	u316_21
  5728     0F8F  2F91               	goto	u316_20
  5729     0F90                     u316_21:
  5730     0F90  2F7E               	goto	i1l2302
  5731     0F91                     u316_20:
  5732     0F91  2FAD               	goto	i1l2314
  5733     0F92                     i1l2308:
  5734     0F92  3001               	movlw	1
  5735     0F93  00FF               	movwf	btemp+1
  5736     0F94  087F               	movf	btemp+1,w
  5737     0F95  07A1               	addwf	i1___xxtofl@exp,f
  5738     0F96                     i1l2310:
  5739     0F96  3001               	movlw	1
  5740     0F97  07A2               	addwf	i1___xxtofl@arg,f
  5741     0F98  3000               	movlw	0
  5742     0F99  1803               	skipnc
  5743     0F9A  3001               	movlw	1
  5744     0F9B  07A3               	addwf	i1___xxtofl@arg+1,f
  5745     0F9C  3000               	movlw	0
  5746     0F9D  1803               	skipnc
  5747     0F9E  3001               	movlw	1
  5748     0F9F  07A4               	addwf	i1___xxtofl@arg+2,f
  5749     0FA0  3000               	movlw	0
  5750     0FA1  1803               	skipnc
  5751     0FA2  3001               	movlw	1
  5752     0FA3  07A5               	addwf	i1___xxtofl@arg+3,f
  5753     0FA4                     i1l2312:
  5754     0FA4  3001               	movlw	1
  5755     0FA5                     u317_25:
  5756     0FA5  1003               	clrc
  5757     0FA6  0CA5               	rrf	i1___xxtofl@arg+3,f
  5758     0FA7  0CA4               	rrf	i1___xxtofl@arg+2,f
  5759     0FA8  0CA3               	rrf	i1___xxtofl@arg+1,f
  5760     0FA9  0CA2               	rrf	i1___xxtofl@arg,f
  5761     0FAA  3EFF               	addlw	-1
  5762     0FAB  1D03               	skipz
  5763     0FAC  2FA5               	goto	u317_25
  5764     0FAD                     i1l2314:
  5765     0FAD  30FF               	movlw	255
  5766     0FAE  0525               	andwf	i1___xxtofl@arg+3,w
  5767     0FAF  1D03               	btfss	3,2
  5768     0FB0  2FB2               	goto	u318_21
  5769     0FB1  2FB3               	goto	u318_20
  5770     0FB2                     u318_21:
  5771     0FB2  2F92               	goto	i1l2308
  5772     0FB3                     u318_20:
  5773     0FB3  2FBF               	goto	i1l2318
  5774     0FB4                     i1l2316:
  5775     0FB4  3001               	movlw	1
  5776     0FB5  02A1               	subwf	i1___xxtofl@exp,f
  5777     0FB6  3001               	movlw	1
  5778     0FB7  00FA               	movwf	??i1___xxtofl
  5779     0FB8                     u319_25:
  5780     0FB8  1003               	clrc
  5781     0FB9  0DA2               	rlf	i1___xxtofl@arg,f
  5782     0FBA  0DA3               	rlf	i1___xxtofl@arg+1,f
  5783     0FBB  0DA4               	rlf	i1___xxtofl@arg+2,f
  5784     0FBC  0DA5               	rlf	i1___xxtofl@arg+3,f
  5785     0FBD  0BFA               	decfsz	??i1___xxtofl,f
  5786     0FBE  2FB8               	goto	u319_25
  5787     0FBF                     i1l2318:
  5788     0FBF  1BA4               	btfsc	i1___xxtofl@arg+2,7
  5789     0FC0  2FC2               	goto	u320_21
  5790     0FC1  2FC3               	goto	u320_20
  5791     0FC2                     u320_21:
  5792     0FC2  2FC9               	goto	i1l758
  5793     0FC3                     u320_20:
  5794     0FC3                     i1l2320:
  5795     0FC3  3002               	movlw	2
  5796     0FC4  0221               	subwf	i1___xxtofl@exp,w
  5797     0FC5  1803               	skipnc
  5798     0FC6  2FC8               	goto	u321_21
  5799     0FC7  2FC9               	goto	u321_20
  5800     0FC8                     u321_21:
  5801     0FC8  2FB4               	goto	i1l2316
  5802     0FC9                     u321_20:
  5803     0FC9                     i1l758:
  5804     0FC9  1821               	btfsc	i1___xxtofl@exp,0
  5805     0FCA  2FCC               	goto	u322_21
  5806     0FCB  2FCD               	goto	u322_20
  5807     0FCC                     u322_21:
  5808     0FCC  2FD5               	goto	i1l759
  5809     0FCD                     u322_20:
  5810     0FCD                     i1l2322:
  5811     0FCD  30FF               	movlw	255
  5812     0FCE  05A2               	andwf	i1___xxtofl@arg,f
  5813     0FCF  30FF               	movlw	255
  5814     0FD0  05A3               	andwf	i1___xxtofl@arg+1,f
  5815     0FD1  307F               	movlw	127
  5816     0FD2  05A4               	andwf	i1___xxtofl@arg+2,f
  5817     0FD3  30FF               	movlw	255
  5818     0FD4  05A5               	andwf	i1___xxtofl@arg+3,f
  5819     0FD5                     i1l759:
  5820     0FD5  1003               	clrc
  5821     0FD6  0CA1               	rrf	i1___xxtofl@exp,f
  5822     0FD7                     i1l2324:
  5823     0FD7  0821               	movf	i1___xxtofl@exp,w
  5824     0FD8  00FA               	movwf	??i1___xxtofl
  5825     0FD9  01FB               	clrf	??i1___xxtofl+1
  5826     0FDA  01FC               	clrf	??i1___xxtofl+2
  5827     0FDB  01FD               	clrf	??i1___xxtofl+3
  5828     0FDC  3018               	movlw	24
  5829     0FDD                     u323_25:
  5830     0FDD  1003               	clrc
  5831     0FDE  0DFA               	rlf	??i1___xxtofl,f
  5832     0FDF  0DFB               	rlf	??i1___xxtofl+1,f
  5833     0FE0  0DFC               	rlf	??i1___xxtofl+2,f
  5834     0FE1  0DFD               	rlf	??i1___xxtofl+3,f
  5835     0FE2                     u323_20:
  5836     0FE2  3EFF               	addlw	-1
  5837     0FE3  1D03               	skipz
  5838     0FE4  2FDD               	goto	u323_25
  5839     0FE5  087A               	movf	??i1___xxtofl,w
  5840     0FE6  04A2               	iorwf	i1___xxtofl@arg,f
  5841     0FE7  087B               	movf	??i1___xxtofl+1,w
  5842     0FE8  04A3               	iorwf	i1___xxtofl@arg+1,f
  5843     0FE9  087C               	movf	??i1___xxtofl+2,w
  5844     0FEA  04A4               	iorwf	i1___xxtofl@arg+2,f
  5845     0FEB  087D               	movf	??i1___xxtofl+3,w
  5846     0FEC  04A5               	iorwf	i1___xxtofl@arg+3,f
  5847     0FED                     i1l2326:
  5848     0FED  0820               	movf	i1___xxtofl@sign,w
  5849     0FEE  1903               	btfsc	3,2
  5850     0FEF  2FF1               	goto	u324_21
  5851     0FF0  2FF2               	goto	u324_20
  5852     0FF1                     u324_21:
  5853     0FF1  2FF7               	goto	i1l2332
  5854     0FF2                     u324_20:
  5855     0FF2                     i1l2328:
  5856     0FF2  1FF9               	btfss	i1___xxtofl@val+3,7
  5857     0FF3  2FF5               	goto	u325_21
  5858     0FF4  2FF6               	goto	u325_20
  5859     0FF5                     u325_21:
  5860     0FF5  2FF7               	goto	i1l2332
  5861     0FF6                     u325_20:
  5862     0FF6                     i1l2330:
  5863     0FF6  17A5               	bsf	i1___xxtofl@arg+3,7
  5864     0FF7                     i1l2332:
  5865     0FF7  0825               	movf	i1___xxtofl@arg+3,w
  5866     0FF8  00F9               	movwf	?i1___xxtofl+3
  5867     0FF9  0824               	movf	i1___xxtofl@arg+2,w
  5868     0FFA  00F8               	movwf	?i1___xxtofl+2
  5869     0FFB  0823               	movf	i1___xxtofl@arg+1,w
  5870     0FFC  00F7               	movwf	?i1___xxtofl+1
  5871     0FFD  0822               	movf	i1___xxtofl@arg,w
  5872     0FFE  00F6               	movwf	?i1___xxtofl
  5873     0FFF                     i1l747:
  5874     0FFF  0008               	return
  5875     1000                     __end_ofi1___xxtofl:
  5876                           
  5877                           	psect	text25
  5878     097D                     __ptext25:	
  5879 ;; *************** function i1___wmul *****************
  5880 ;; Defined at:
  5881 ;;		line 15 in file "C:\Program Files\Microchip\xc8\v2.41\pic\sources\c90\common\Umul16.c"
  5882 ;; Parameters:    Size  Location     Type
  5883 ;;  multiplier      2    0[COMMON] unsigned int 
  5884 ;;  multiplicand    2    2[COMMON] unsigned int 
  5885 ;; Auto vars:     Size  Location     Type
  5886 ;;  product         2    4[COMMON] unsigned int 
  5887 ;; Return value:  Size  Location     Type
  5888 ;;                  2    0[COMMON] unsigned int 
  5889 ;; Registers used:
  5890 ;;		wreg, status,2, status,0
  5891 ;; Tracked objects:
  5892 ;;		On entry : 0/0
  5893 ;;		On exit  : 0/0
  5894 ;;		Unchanged: 0/0
  5895 ;; Data sizes:     COMMON   BANK0   BANK1   BANK3   BANK2
  5896 ;;      Params:         4       0       0       0       0
  5897 ;;      Locals:         2       0       0       0       0
  5898 ;;      Temps:          0       0       0       0       0
  5899 ;;      Totals:         6       0       0       0       0
  5900 ;;Total ram usage:        6 bytes
  5901 ;; Hardware stack levels used: 1
  5902 ;; This function calls:
  5903 ;;		Nothing
  5904 ;; This function is called by:
  5905 ;;		i1_ServoAngle
  5906 ;; This function uses a non-reentrant model
  5907 ;;
  5908                           
  5909     097D                     i1___wmul:	
  5910                           ;psect for function i1___wmul
  5911                           
  5912     097D                     i1l2064:	
  5913                           ;incstack = 0
  5914                           ; Regs used in i1___wmul: [wreg+status,2+status,0]
  5915                           
  5916     097D  01F4               	clrf	i1___wmul@product
  5917     097E  01F5               	clrf	i1___wmul@product+1
  5918     097F                     i1l2066:
  5919     097F  1C70               	btfss	i1___wmul@multiplier,0
  5920     0980  2982               	goto	u262_21
  5921     0981  2983               	goto	u262_20
  5922     0982                     u262_21:
  5923     0982  2989               	goto	i1l312
  5924     0983                     u262_20:
  5925     0983                     i1l2068:
  5926     0983  0872               	movf	i1___wmul@multiplicand,w
  5927     0984  07F4               	addwf	i1___wmul@product,f
  5928     0985  1803               	skipnc
  5929     0986  0AF5               	incf	i1___wmul@product+1,f
  5930     0987  0873               	movf	i1___wmul@multiplicand+1,w
  5931     0988  07F5               	addwf	i1___wmul@product+1,f
  5932     0989                     i1l312:
  5933     0989  3001               	movlw	1
  5934     098A                     u263_25:
  5935     098A  1003               	clrc
  5936     098B  0DF2               	rlf	i1___wmul@multiplicand,f
  5937     098C  0DF3               	rlf	i1___wmul@multiplicand+1,f
  5938     098D  3EFF               	addlw	-1
  5939     098E  1D03               	skipz
  5940     098F  298A               	goto	u263_25
  5941     0990                     i1l2070:
  5942     0990  3001               	movlw	1
  5943     0991                     u264_25:
  5944     0991  1003               	clrc
  5945     0992  0CF1               	rrf	i1___wmul@multiplier+1,f
  5946     0993  0CF0               	rrf	i1___wmul@multiplier,f
  5947     0994  3EFF               	addlw	-1
  5948     0995  1D03               	skipz
  5949     0996  2991               	goto	u264_25
  5950     0997                     i1l2072:
  5951     0997  0870               	movf	i1___wmul@multiplier,w
  5952     0998  0471               	iorwf	i1___wmul@multiplier+1,w
  5953     0999  1D03               	btfss	3,2
  5954     099A  299C               	goto	u265_21
  5955     099B  299D               	goto	u265_20
  5956     099C                     u265_21:
  5957     099C  297F               	goto	i1l2066
  5958     099D                     u265_20:
  5959     099D                     i1l2074:
  5960     099D  0875               	movf	i1___wmul@product+1,w
  5961     099E  00F1               	movwf	?i1___wmul+1
  5962     099F  0874               	movf	i1___wmul@product,w
  5963     09A0  00F0               	movwf	?i1___wmul
  5964     09A1                     i1l314:
  5965     09A1  0008               	return
  5966     09A2                     __end_ofi1___wmul:
  5967                           
  5968                           	psect	text26
  5969     0AF6                     __ptext26:	
  5970 ;; *************** function i1___lwdiv *****************
  5971 ;; Defined at:
  5972 ;;		line 5 in file "C:\Program Files\Microchip\xc8\v2.41\pic\sources\c90\common\lwdiv.c"
  5973 ;; Parameters:    Size  Location     Type
  5974 ;;  divisor         2    0[COMMON] unsigned int 
  5975 ;;  dividend        2    2[COMMON] unsigned int 
  5976 ;; Auto vars:     Size  Location     Type
  5977 ;;  quotient        2    4[COMMON] unsigned int 
  5978 ;;  counter         1    6[COMMON] unsigned char 
  5979 ;; Return value:  Size  Location     Type
  5980 ;;                  2    0[COMMON] unsigned int 
  5981 ;; Registers used:
  5982 ;;		wreg, status,2, status,0, btemp+1
  5983 ;; Tracked objects:
  5984 ;;		On entry : 0/0
  5985 ;;		On exit  : 0/0
  5986 ;;		Unchanged: 0/0
  5987 ;; Data sizes:     COMMON   BANK0   BANK1   BANK3   BANK2
  5988 ;;      Params:         4       0       0       0       0
  5989 ;;      Locals:         3       0       0       0       0
  5990 ;;      Temps:          0       0       0       0       0
  5991 ;;      Totals:         7       0       0       0       0
  5992 ;;Total ram usage:        7 bytes
  5993 ;; Hardware stack levels used: 1
  5994 ;; This function calls:
  5995 ;;		Nothing
  5996 ;; This function is called by:
  5997 ;;		i1_ServoAngle
  5998 ;; This function uses a non-reentrant model
  5999 ;;
  6000                           
  6001     0AF6                     i1___lwdiv:	
  6002                           ;psect for function i1___lwdiv
  6003                           
  6004     0AF6                     i1l2116:	
  6005                           ;incstack = 0
  6006                           ; Regs used in i1___lwdiv: [wreg+status,2+status,0+btemp+1]
  6007                           
  6008     0AF6  01F4               	clrf	i1___lwdiv@quotient
  6009     0AF7  01F5               	clrf	i1___lwdiv@quotient+1
  6010     0AF8                     i1l2118:
  6011     0AF8  0870               	movf	i1___lwdiv@divisor,w
  6012     0AF9  0471               	iorwf	i1___lwdiv@divisor+1,w
  6013     0AFA  1903               	btfsc	3,2
  6014     0AFB  2AFD               	goto	u276_21
  6015     0AFC  2AFE               	goto	u276_20
  6016     0AFD                     u276_21:
  6017     0AFD  2B35               	goto	i1l2138
  6018     0AFE                     u276_20:
  6019     0AFE                     i1l2120:
  6020     0AFE  01F6               	clrf	i1___lwdiv@counter
  6021     0AFF  0AF6               	incf	i1___lwdiv@counter,f
  6022     0B00  2B0C               	goto	i1l2126
  6023     0B01                     i1l2122:
  6024     0B01  3001               	movlw	1
  6025     0B02                     u277_25:
  6026     0B02  1003               	clrc
  6027     0B03  0DF0               	rlf	i1___lwdiv@divisor,f
  6028     0B04  0DF1               	rlf	i1___lwdiv@divisor+1,f
  6029     0B05  3EFF               	addlw	-1
  6030     0B06  1D03               	skipz
  6031     0B07  2B02               	goto	u277_25
  6032     0B08                     i1l2124:
  6033     0B08  3001               	movlw	1
  6034     0B09  00FF               	movwf	btemp+1
  6035     0B0A  087F               	movf	btemp+1,w
  6036     0B0B  07F6               	addwf	i1___lwdiv@counter,f
  6037     0B0C                     i1l2126:
  6038     0B0C  1FF1               	btfss	i1___lwdiv@divisor+1,7
  6039     0B0D  2B0F               	goto	u278_21
  6040     0B0E  2B10               	goto	u278_20
  6041     0B0F                     u278_21:
  6042     0B0F  2B01               	goto	i1l2122
  6043     0B10                     u278_20:
  6044     0B10                     i1l2128:
  6045     0B10  3001               	movlw	1
  6046     0B11                     u279_25:
  6047     0B11  1003               	clrc
  6048     0B12  0DF4               	rlf	i1___lwdiv@quotient,f
  6049     0B13  0DF5               	rlf	i1___lwdiv@quotient+1,f
  6050     0B14  3EFF               	addlw	-1
  6051     0B15  1D03               	skipz
  6052     0B16  2B11               	goto	u279_25
  6053     0B17  0871               	movf	i1___lwdiv@divisor+1,w
  6054     0B18  0273               	subwf	i1___lwdiv@dividend+1,w
  6055     0B19  1D03               	skipz
  6056     0B1A  2B1D               	goto	u280_25
  6057     0B1B  0870               	movf	i1___lwdiv@divisor,w
  6058     0B1C  0272               	subwf	i1___lwdiv@dividend,w
  6059     0B1D                     u280_25:
  6060     0B1D  1C03               	skipc
  6061     0B1E  2B20               	goto	u280_21
  6062     0B1F  2B21               	goto	u280_20
  6063     0B20                     u280_21:
  6064     0B20  2B28               	goto	i1l2134
  6065     0B21                     u280_20:
  6066     0B21                     i1l2130:
  6067     0B21  0870               	movf	i1___lwdiv@divisor,w
  6068     0B22  02F2               	subwf	i1___lwdiv@dividend,f
  6069     0B23  0871               	movf	i1___lwdiv@divisor+1,w
  6070     0B24  1C03               	skipc
  6071     0B25  03F3               	decf	i1___lwdiv@dividend+1,f
  6072     0B26  02F3               	subwf	i1___lwdiv@dividend+1,f
  6073     0B27                     i1l2132:
  6074     0B27  1474               	bsf	i1___lwdiv@quotient,0
  6075     0B28                     i1l2134:
  6076     0B28  3001               	movlw	1
  6077     0B29                     u281_25:
  6078     0B29  1003               	clrc
  6079     0B2A  0CF1               	rrf	i1___lwdiv@divisor+1,f
  6080     0B2B  0CF0               	rrf	i1___lwdiv@divisor,f
  6081     0B2C  3EFF               	addlw	-1
  6082     0B2D  1D03               	skipz
  6083     0B2E  2B29               	goto	u281_25
  6084     0B2F                     i1l2136:
  6085     0B2F  3001               	movlw	1
  6086     0B30  02F6               	subwf	i1___lwdiv@counter,f
  6087     0B31  1D03               	btfss	3,2
  6088     0B32  2B34               	goto	u282_21
  6089     0B33  2B35               	goto	u282_20
  6090     0B34                     u282_21:
  6091     0B34  2B10               	goto	i1l2128
  6092     0B35                     u282_20:
  6093     0B35                     i1l2138:
  6094     0B35  0875               	movf	i1___lwdiv@quotient+1,w
  6095     0B36  00F1               	movwf	?i1___lwdiv+1
  6096     0B37  0874               	movf	i1___lwdiv@quotient,w
  6097     0B38  00F0               	movwf	?i1___lwdiv
  6098     0B39                     i1l584:
  6099     0B39  0008               	return
  6100     0B3A                     __end_ofi1___lwdiv:
  6101                           
  6102                           	psect	text27
  6103     0C9E                     __ptext27:	
  6104 ;; *************** function i1___fltol *****************
  6105 ;; Defined at:
  6106 ;;		line 43 in file "C:\Program Files\Microchip\xc8\v2.41\pic\sources\c90\common\fltol.c"
  6107 ;; Parameters:    Size  Location     Type
  6108 ;;  f1              4   32[BANK0 ] unsigned int 
  6109 ;; Auto vars:     Size  Location     Type
  6110 ;;  exp1            1   41[BANK0 ] unsigned char 
  6111 ;;  sign1           1   40[BANK0 ] unsigned char 
  6112 ;; Return value:  Size  Location     Type
  6113 ;;                  4   32[BANK0 ] long 
  6114 ;; Registers used:
  6115 ;;		wreg, status,2, status,0, btemp+1
  6116 ;; Tracked objects:
  6117 ;;		On entry : 0/0
  6118 ;;		On exit  : 0/0
  6119 ;;		Unchanged: 0/0
  6120 ;; Data sizes:     COMMON   BANK0   BANK1   BANK3   BANK2
  6121 ;;      Params:         0       4       0       0       0
  6122 ;;      Locals:         0       2       0       0       0
  6123 ;;      Temps:          0       4       0       0       0
  6124 ;;      Totals:         0      10       0       0       0
  6125 ;;Total ram usage:       10 bytes
  6126 ;; Hardware stack levels used: 1
  6127 ;; This function calls:
  6128 ;;		Nothing
  6129 ;; This function is called by:
  6130 ;;		i1_ServoAngle
  6131 ;; This function uses a non-reentrant model
  6132 ;;
  6133                           
  6134     0C9E                     i1___fltol:	
  6135                           ;psect for function i1___fltol
  6136                           
  6137     0C9E                     i1l2078:	
  6138                           ;incstack = 0
  6139                           ; Regs used in i1___fltol: [wreg+status,2+status,0+btemp+1]
  6140                           
  6141     0C9E  1003               	clrc
  6142     0C9F  1283               	bcf	3,5	;RP0=0, select bank0
  6143     0CA0  1303               	bcf	3,6	;RP1=0, select bank0
  6144     0CA1  0D42               	rlf	i1___fltol@f1+2,w
  6145     0CA2  0D43               	rlf	i1___fltol@f1+3,w
  6146     0CA3  00C9               	movwf	i1___fltol@exp1
  6147     0CA4  0849               	movf	i1___fltol@exp1,w
  6148     0CA5  1D03               	btfss	3,2
  6149     0CA6  2CA8               	goto	u266_21
  6150     0CA7  2CA9               	goto	u266_20
  6151     0CA8                     u266_21:
  6152     0CA8  2CB2               	goto	i1l2084
  6153     0CA9                     u266_20:
  6154     0CA9                     i1l2080:
  6155     0CA9  3000               	movlw	0
  6156     0CAA  00C3               	movwf	?i1___fltol+3
  6157     0CAB  3000               	movlw	0
  6158     0CAC  00C2               	movwf	?i1___fltol+2
  6159     0CAD  3000               	movlw	0
  6160     0CAE  00C1               	movwf	?i1___fltol+1
  6161     0CAF  3000               	movlw	0
  6162     0CB0  00C0               	movwf	?i1___fltol
  6163     0CB1  2D15               	goto	i1l498
  6164     0CB2                     i1l2084:
  6165     0CB2  0840               	movf	i1___fltol@f1,w
  6166     0CB3  00C4               	movwf	??i1___fltol
  6167     0CB4  0841               	movf	i1___fltol@f1+1,w
  6168     0CB5  00C5               	movwf	??i1___fltol+1
  6169     0CB6  0842               	movf	i1___fltol@f1+2,w
  6170     0CB7  00C6               	movwf	??i1___fltol+2
  6171     0CB8  0843               	movf	i1___fltol@f1+3,w
  6172     0CB9  00C7               	movwf	??i1___fltol+3
  6173     0CBA  301F               	movlw	31
  6174     0CBB                     u267_25:
  6175     0CBB  1003               	clrc
  6176     0CBC  0CC7               	rrf	??i1___fltol+3,f
  6177     0CBD  0CC6               	rrf	??i1___fltol+2,f
  6178     0CBE  0CC5               	rrf	??i1___fltol+1,f
  6179     0CBF  0CC4               	rrf	??i1___fltol,f
  6180     0CC0                     u267_20:
  6181     0CC0  3EFF               	addlw	-1
  6182     0CC1  1D03               	skipz
  6183     0CC2  2CBB               	goto	u267_25
  6184     0CC3  0844               	movf	??i1___fltol,w
  6185     0CC4  00C8               	movwf	i1___fltol@sign1
  6186     0CC5                     i1l2086:
  6187     0CC5  17C2               	bsf	i1___fltol@f1+2,7
  6188     0CC6                     i1l2088:
  6189     0CC6  30FF               	movlw	255
  6190     0CC7  05C0               	andwf	i1___fltol@f1,f
  6191     0CC8  30FF               	movlw	255
  6192     0CC9  05C1               	andwf	i1___fltol@f1+1,f
  6193     0CCA  30FF               	movlw	255
  6194     0CCB  05C2               	andwf	i1___fltol@f1+2,f
  6195     0CCC  3000               	movlw	0
  6196     0CCD  05C3               	andwf	i1___fltol@f1+3,f
  6197     0CCE                     i1l2090:
  6198     0CCE  3096               	movlw	150
  6199     0CCF  02C9               	subwf	i1___fltol@exp1,f
  6200     0CD0                     i1l2092:
  6201     0CD0  1FC9               	btfss	i1___fltol@exp1,7
  6202     0CD1  2CD3               	goto	u268_21
  6203     0CD2  2CD4               	goto	u268_20
  6204     0CD3                     u268_21:
  6205     0CD3  2CEE               	goto	i1l2104
  6206     0CD4                     u268_20:
  6207     0CD4                     i1l2094:
  6208     0CD4  0849               	movf	i1___fltol@exp1,w
  6209     0CD5  3A80               	xorlw	128
  6210     0CD6  3E97               	addlw	151
  6211     0CD7  1803               	skipnc
  6212     0CD8  2CDA               	goto	u269_21
  6213     0CD9  2CDB               	goto	u269_20
  6214     0CDA                     u269_21:
  6215     0CDA  2CDC               	goto	i1l2100
  6216     0CDB                     u269_20:
  6217     0CDB  2CA9               	goto	i1l2080
  6218     0CDC                     i1l2100:
  6219     0CDC  3001               	movlw	1
  6220     0CDD                     u270_25:
  6221     0CDD  1003               	clrc
  6222     0CDE  0CC3               	rrf	i1___fltol@f1+3,f
  6223     0CDF  0CC2               	rrf	i1___fltol@f1+2,f
  6224     0CE0  0CC1               	rrf	i1___fltol@f1+1,f
  6225     0CE1  0CC0               	rrf	i1___fltol@f1,f
  6226     0CE2  3EFF               	addlw	-1
  6227     0CE3  1D03               	skipz
  6228     0CE4  2CDD               	goto	u270_25
  6229     0CE5                     i1l2102:
  6230     0CE5  3001               	movlw	1
  6231     0CE6  00FF               	movwf	btemp+1
  6232     0CE7  087F               	movf	btemp+1,w
  6233     0CE8  07C9               	addwf	i1___fltol@exp1,f
  6234     0CE9  1D03               	btfss	3,2
  6235     0CEA  2CEC               	goto	u271_21
  6236     0CEB  2CED               	goto	u271_20
  6237     0CEC                     u271_21:
  6238     0CEC  2CDC               	goto	i1l2100
  6239     0CED                     u271_20:
  6240     0CED  2D05               	goto	i1l2112
  6241     0CEE                     i1l2104:
  6242     0CEE  3020               	movlw	32
  6243     0CEF  0249               	subwf	i1___fltol@exp1,w
  6244     0CF0  1C03               	skipc
  6245     0CF1  2CF3               	goto	u272_21
  6246     0CF2  2CF4               	goto	u272_20
  6247     0CF3                     u272_21:
  6248     0CF3  2D00               	goto	i1l505
  6249     0CF4                     u272_20:
  6250     0CF4  2CA9               	goto	i1l2080
  6251     0CF5                     i1l2110:
  6252     0CF5  3001               	movlw	1
  6253     0CF6  00C4               	movwf	??i1___fltol
  6254     0CF7                     u273_25:
  6255     0CF7  1003               	clrc
  6256     0CF8  0DC0               	rlf	i1___fltol@f1,f
  6257     0CF9  0DC1               	rlf	i1___fltol@f1+1,f
  6258     0CFA  0DC2               	rlf	i1___fltol@f1+2,f
  6259     0CFB  0DC3               	rlf	i1___fltol@f1+3,f
  6260     0CFC  0BC4               	decfsz	??i1___fltol,f
  6261     0CFD  2CF7               	goto	u273_25
  6262     0CFE  3001               	movlw	1
  6263     0CFF  02C9               	subwf	i1___fltol@exp1,f
  6264     0D00                     i1l505:
  6265     0D00  0849               	movf	i1___fltol@exp1,w
  6266     0D01  1D03               	btfss	3,2
  6267     0D02  2D04               	goto	u274_21
  6268     0D03  2D05               	goto	u274_20
  6269     0D04                     u274_21:
  6270     0D04  2CF5               	goto	i1l2110
  6271     0D05                     u274_20:
  6272     0D05                     i1l2112:
  6273     0D05  0848               	movf	i1___fltol@sign1,w
  6274     0D06  1903               	btfsc	3,2
  6275     0D07  2D09               	goto	u275_21
  6276     0D08  2D0A               	goto	u275_20
  6277     0D09                     u275_21:
  6278     0D09  2D15               	goto	i1l508
  6279     0D0A                     u275_20:
  6280     0D0A                     i1l2114:
  6281     0D0A  09C0               	comf	i1___fltol@f1,f
  6282     0D0B  09C1               	comf	i1___fltol@f1+1,f
  6283     0D0C  09C2               	comf	i1___fltol@f1+2,f
  6284     0D0D  09C3               	comf	i1___fltol@f1+3,f
  6285     0D0E  0AC0               	incf	i1___fltol@f1,f
  6286     0D0F  1903               	skipnz
  6287     0D10  0AC1               	incf	i1___fltol@f1+1,f
  6288     0D11  1903               	skipnz
  6289     0D12  0AC2               	incf	i1___fltol@f1+2,f
  6290     0D13  1903               	skipnz
  6291     0D14  0AC3               	incf	i1___fltol@f1+3,f
  6292     0D15                     i1l508:
  6293     0D15                     i1l498:
  6294     0D15  0008               	return
  6295     0D16                     __end_ofi1___fltol:
  6296                           
  6297                           	psect	text28
  6298     0554                     __ptext28:	
  6299 ;; *************** function i1___fldiv *****************
  6300 ;; Defined at:
  6301 ;;		line 8 in file "C:\Program Files\Microchip\xc8\v2.41\pic\sources\c90\common\sprcdiv.c"
  6302 ;; Parameters:    Size  Location     Type
  6303 ;;  a               4    6[BANK0 ] long 
  6304 ;;  b               4   10[BANK0 ] long 
  6305 ;; Auto vars:     Size  Location     Type
  6306 ;;  grs             4   26[BANK0 ] unsigned long 
  6307 ;;  rem             4   19[BANK0 ] unsigned long 
  6308 ;;  new_exp         2   24[BANK0 ] int 
  6309 ;;  aexp            1   31[BANK0 ] unsigned char 
  6310 ;;  bexp            1   30[BANK0 ] unsigned char 
  6311 ;;  sign            1   23[BANK0 ] unsigned char 
  6312 ;; Return value:  Size  Location     Type
  6313 ;;                  4    6[BANK0 ] unsigned char 
  6314 ;; Registers used:
  6315 ;;		wreg, status,2, status,0, btemp+1
  6316 ;; Tracked objects:
  6317 ;;		On entry : 0/0
  6318 ;;		On exit  : 0/0
  6319 ;;		Unchanged: 0/0
  6320 ;; Data sizes:     COMMON   BANK0   BANK1   BANK3   BANK2
  6321 ;;      Params:         0       8       0       0       0
  6322 ;;      Locals:         0      13       0       0       0
  6323 ;;      Temps:          0       5       0       0       0
  6324 ;;      Totals:         0      26       0       0       0
  6325 ;;Total ram usage:       26 bytes
  6326 ;; Hardware stack levels used: 1
  6327 ;; This function calls:
  6328 ;;		Nothing
  6329 ;; This function is called by:
  6330 ;;		i1_ServoAngle
  6331 ;; This function uses a non-reentrant model
  6332 ;;
  6333                           
  6334     0554                     i1___fldiv:	
  6335                           ;psect for function i1___fldiv
  6336                           
  6337     0554                     i1l2142:	
  6338                           ;incstack = 0
  6339                           ; Regs used in i1___fldiv: [wreg+status,2+status,0+btemp+1]
  6340                           
  6341     0554  1283               	bcf	3,5	;RP0=0, select bank0
  6342     0555  1303               	bcf	3,6	;RP1=0, select bank0
  6343     0556  082D               	movf	i1___fldiv@b+3,w
  6344     0557  3980               	andlw	128
  6345     0558  00B7               	movwf	i1___fldiv@sign
  6346     0559                     i1l2144:
  6347     0559  082D               	movf	i1___fldiv@b+3,w
  6348     055A  00AE               	movwf	??i1___fldiv
  6349     055B  072E               	addwf	??i1___fldiv,w
  6350     055C  00BE               	movwf	i1___fldiv@bexp
  6351     055D                     i1l2146:
  6352     055D  1FAC               	btfss	i1___fldiv@b+2,7
  6353     055E  2D60               	goto	u283_21
  6354     055F  2D61               	goto	u283_20
  6355     0560                     u283_21:
  6356     0560  2D62               	goto	i1l2150
  6357     0561                     u283_20:
  6358     0561                     i1l2148:
  6359     0561  143E               	bsf	i1___fldiv@bexp,0
  6360     0562                     i1l2150:
  6361     0562  083E               	movf	i1___fldiv@bexp,w
  6362     0563  1903               	btfsc	3,2
  6363     0564  2D66               	goto	u284_21
  6364     0565  2D67               	goto	u284_20
  6365     0566                     u284_21:
  6366     0566  2D77               	goto	i1l2160
  6367     0567                     u284_20:
  6368     0567                     i1l2152:
  6369     0567  0A3E               	incf	i1___fldiv@bexp,w
  6370     0568  1D03               	btfss	3,2
  6371     0569  2D6B               	goto	u285_21
  6372     056A  2D6C               	goto	u285_20
  6373     056B                     u285_21:
  6374     056B  2D74               	goto	i1l2156
  6375     056C                     u285_20:
  6376     056C                     i1l2154:
  6377     056C  3000               	movlw	0
  6378     056D  00AD               	movwf	i1___fldiv@b+3
  6379     056E  3000               	movlw	0
  6380     056F  00AC               	movwf	i1___fldiv@b+2
  6381     0570  3000               	movlw	0
  6382     0571  00AB               	movwf	i1___fldiv@b+1
  6383     0572  3000               	movlw	0
  6384     0573  00AA               	movwf	i1___fldiv@b
  6385     0574                     i1l2156:
  6386     0574  17AC               	bsf	i1___fldiv@b+2,7
  6387     0575                     i1l2158:
  6388     0575  01AD               	clrf	i1___fldiv@b+3
  6389     0576  2D7F               	goto	i1l2162
  6390     0577                     i1l2160:
  6391     0577  3000               	movlw	0
  6392     0578  00AD               	movwf	i1___fldiv@b+3
  6393     0579  3000               	movlw	0
  6394     057A  00AC               	movwf	i1___fldiv@b+2
  6395     057B  3000               	movlw	0
  6396     057C  00AB               	movwf	i1___fldiv@b+1
  6397     057D  3000               	movlw	0
  6398     057E  00AA               	movwf	i1___fldiv@b
  6399     057F                     i1l2162:
  6400     057F  0829               	movf	i1___fldiv@a+3,w
  6401     0580  3980               	andlw	128
  6402     0581  00FF               	movwf	btemp+1
  6403     0582  087F               	movf	btemp+1,w
  6404     0583  06B7               	xorwf	i1___fldiv@sign,f
  6405     0584                     i1l2164:
  6406     0584  0829               	movf	i1___fldiv@a+3,w
  6407     0585  00AE               	movwf	??i1___fldiv
  6408     0586  072E               	addwf	??i1___fldiv,w
  6409     0587  00BF               	movwf	i1___fldiv@aexp
  6410     0588                     i1l2166:
  6411     0588  1FA8               	btfss	i1___fldiv@a+2,7
  6412     0589  2D8B               	goto	u286_21
  6413     058A  2D8C               	goto	u286_20
  6414     058B                     u286_21:
  6415     058B  2D8D               	goto	i1l2170
  6416     058C                     u286_20:
  6417     058C                     i1l2168:
  6418     058C  143F               	bsf	i1___fldiv@aexp,0
  6419     058D                     i1l2170:
  6420     058D  083F               	movf	i1___fldiv@aexp,w
  6421     058E  1903               	btfsc	3,2
  6422     058F  2D91               	goto	u287_21
  6423     0590  2D92               	goto	u287_20
  6424     0591                     u287_21:
  6425     0591  2DA2               	goto	i1l2180
  6426     0592                     u287_20:
  6427     0592                     i1l2172:
  6428     0592  0A3F               	incf	i1___fldiv@aexp,w
  6429     0593  1D03               	btfss	3,2
  6430     0594  2D96               	goto	u288_21
  6431     0595  2D97               	goto	u288_20
  6432     0596                     u288_21:
  6433     0596  2D9F               	goto	i1l2176
  6434     0597                     u288_20:
  6435     0597                     i1l2174:
  6436     0597  3000               	movlw	0
  6437     0598  00A9               	movwf	i1___fldiv@a+3
  6438     0599  3000               	movlw	0
  6439     059A  00A8               	movwf	i1___fldiv@a+2
  6440     059B  3000               	movlw	0
  6441     059C  00A7               	movwf	i1___fldiv@a+1
  6442     059D  3000               	movlw	0
  6443     059E  00A6               	movwf	i1___fldiv@a
  6444     059F                     i1l2176:
  6445     059F  17A8               	bsf	i1___fldiv@a+2,7
  6446     05A0                     i1l2178:
  6447     05A0  01A9               	clrf	i1___fldiv@a+3
  6448     05A1  2DAA               	goto	i1l661
  6449     05A2                     i1l2180:
  6450     05A2  3000               	movlw	0
  6451     05A3  00A9               	movwf	i1___fldiv@a+3
  6452     05A4  3000               	movlw	0
  6453     05A5  00A8               	movwf	i1___fldiv@a+2
  6454     05A6  3000               	movlw	0
  6455     05A7  00A7               	movwf	i1___fldiv@a+1
  6456     05A8  3000               	movlw	0
  6457     05A9  00A6               	movwf	i1___fldiv@a
  6458     05AA                     i1l661:
  6459     05AA  0829               	movf	i1___fldiv@a+3,w
  6460     05AB  0428               	iorwf	i1___fldiv@a+2,w
  6461     05AC  0427               	iorwf	i1___fldiv@a+1,w
  6462     05AD  0426               	iorwf	i1___fldiv@a,w
  6463     05AE  1D03               	skipz
  6464     05AF  2DB1               	goto	u289_21
  6465     05B0  2DB2               	goto	u289_20
  6466     05B1                     u289_21:
  6467     05B1  2DCB               	goto	i1l2190
  6468     05B2                     u289_20:
  6469     05B2                     i1l2182:
  6470     05B2  3000               	movlw	0
  6471     05B3  00AD               	movwf	i1___fldiv@b+3
  6472     05B4  3000               	movlw	0
  6473     05B5  00AC               	movwf	i1___fldiv@b+2
  6474     05B6  3000               	movlw	0
  6475     05B7  00AB               	movwf	i1___fldiv@b+1
  6476     05B8  3000               	movlw	0
  6477     05B9  00AA               	movwf	i1___fldiv@b
  6478     05BA  3080               	movlw	128
  6479     05BB  04AC               	iorwf	i1___fldiv@b+2,f
  6480     05BC  307F               	movlw	127
  6481     05BD  04AD               	iorwf	i1___fldiv@b+3,f
  6482     05BE                     i1l2184:
  6483     05BE  0837               	movf	i1___fldiv@sign,w
  6484     05BF  00FF               	movwf	btemp+1
  6485     05C0  087F               	movf	btemp+1,w
  6486     05C1  04AD               	iorwf	i1___fldiv@b+3,f
  6487     05C2                     i1l2186:
  6488     05C2  082D               	movf	i1___fldiv@b+3,w
  6489     05C3  00A9               	movwf	?i1___fldiv+3
  6490     05C4  082C               	movf	i1___fldiv@b+2,w
  6491     05C5  00A8               	movwf	?i1___fldiv+2
  6492     05C6  082B               	movf	i1___fldiv@b+1,w
  6493     05C7  00A7               	movwf	?i1___fldiv+1
  6494     05C8  082A               	movf	i1___fldiv@b,w
  6495     05C9  00A6               	movwf	?i1___fldiv
  6496     05CA  2F22               	goto	i1l663
  6497     05CB                     i1l2190:
  6498     05CB  083E               	movf	i1___fldiv@bexp,w
  6499     05CC  1D03               	btfss	3,2
  6500     05CD  2DCF               	goto	u290_21
  6501     05CE  2DD0               	goto	u290_20
  6502     05CF                     u290_21:
  6503     05CF  2DD9               	goto	i1l2196
  6504     05D0                     u290_20:
  6505     05D0                     i1l2192:
  6506     05D0  3000               	movlw	0
  6507     05D1  00A9               	movwf	?i1___fldiv+3
  6508     05D2  3000               	movlw	0
  6509     05D3  00A8               	movwf	?i1___fldiv+2
  6510     05D4  3000               	movlw	0
  6511     05D5  00A7               	movwf	?i1___fldiv+1
  6512     05D6  3000               	movlw	0
  6513     05D7  00A6               	movwf	?i1___fldiv
  6514     05D8  2F22               	goto	i1l663
  6515     05D9                     i1l2196:
  6516     05D9  083E               	movf	i1___fldiv@bexp,w
  6517     05DA  00AE               	movwf	??i1___fldiv
  6518     05DB  01AF               	clrf	??i1___fldiv+1
  6519     05DC  082F               	movf	??i1___fldiv+1,w
  6520     05DD  00B1               	movwf	??i1___fldiv+3
  6521     05DE  083F               	movf	i1___fldiv@aexp,w
  6522     05DF  022E               	subwf	??i1___fldiv,w
  6523     05E0  00B0               	movwf	??i1___fldiv+2
  6524     05E1  1C03               	skipc
  6525     05E2  03B1               	decf	??i1___fldiv+3,f
  6526     05E3  0830               	movf	??i1___fldiv+2,w
  6527     05E4  3E7F               	addlw	127
  6528     05E5  00B8               	movwf	i1___fldiv@new_exp
  6529     05E6  0831               	movf	??i1___fldiv+3,w
  6530     05E7  1803               	skipnc
  6531     05E8  3E01               	addlw	1
  6532     05E9  3E00               	addlw	0
  6533     05EA  00B9               	movwf	i1___fldiv@new_exp+1
  6534     05EB                     i1l2198:
  6535     05EB  082D               	movf	i1___fldiv@b+3,w
  6536     05EC  00B6               	movwf	i1___fldiv@rem+3
  6537     05ED  082C               	movf	i1___fldiv@b+2,w
  6538     05EE  00B5               	movwf	i1___fldiv@rem+2
  6539     05EF  082B               	movf	i1___fldiv@b+1,w
  6540     05F0  00B4               	movwf	i1___fldiv@rem+1
  6541     05F1  082A               	movf	i1___fldiv@b,w
  6542     05F2  00B3               	movwf	i1___fldiv@rem
  6543     05F3                     i1l2200:
  6544     05F3  3000               	movlw	0
  6545     05F4  00AD               	movwf	i1___fldiv@b+3
  6546     05F5  3000               	movlw	0
  6547     05F6  00AC               	movwf	i1___fldiv@b+2
  6548     05F7  3000               	movlw	0
  6549     05F8  00AB               	movwf	i1___fldiv@b+1
  6550     05F9  3000               	movlw	0
  6551     05FA  00AA               	movwf	i1___fldiv@b
  6552     05FB                     i1l2202:
  6553     05FB  3000               	movlw	0
  6554     05FC  00BD               	movwf	i1___fldiv@grs+3
  6555     05FD  3000               	movlw	0
  6556     05FE  00BC               	movwf	i1___fldiv@grs+2
  6557     05FF  3000               	movlw	0
  6558     0600  00BB               	movwf	i1___fldiv@grs+1
  6559     0601  3000               	movlw	0
  6560     0602  00BA               	movwf	i1___fldiv@grs
  6561     0603                     i1l2204:
  6562     0603  01BF               	clrf	i1___fldiv@aexp
  6563     0604  2E4F               	goto	i1l2224
  6564     0605                     i1l2206:
  6565     0605  083F               	movf	i1___fldiv@aexp,w
  6566     0606  1903               	btfsc	3,2
  6567     0607  2E09               	goto	u291_21
  6568     0608  2E0A               	goto	u291_20
  6569     0609                     u291_21:
  6570     0609  2E2A               	goto	i1l2216
  6571     060A                     u291_20:
  6572     060A                     i1l2208:
  6573     060A  3001               	movlw	1
  6574     060B  00AE               	movwf	??i1___fldiv
  6575     060C                     u292_25:
  6576     060C  1003               	clrc
  6577     060D  0DB3               	rlf	i1___fldiv@rem,f
  6578     060E  0DB4               	rlf	i1___fldiv@rem+1,f
  6579     060F  0DB5               	rlf	i1___fldiv@rem+2,f
  6580     0610  0DB6               	rlf	i1___fldiv@rem+3,f
  6581     0611  0BAE               	decfsz	??i1___fldiv,f
  6582     0612  2E0C               	goto	u292_25
  6583     0613  3001               	movlw	1
  6584     0614  00AE               	movwf	??i1___fldiv
  6585     0615                     u293_25:
  6586     0615  1003               	clrc
  6587     0616  0DAA               	rlf	i1___fldiv@b,f
  6588     0617  0DAB               	rlf	i1___fldiv@b+1,f
  6589     0618  0DAC               	rlf	i1___fldiv@b+2,f
  6590     0619  0DAD               	rlf	i1___fldiv@b+3,f
  6591     061A  0BAE               	decfsz	??i1___fldiv,f
  6592     061B  2E15               	goto	u293_25
  6593     061C                     i1l2210:
  6594     061C  1FBD               	btfss	i1___fldiv@grs+3,7
  6595     061D  2E1F               	goto	u294_21
  6596     061E  2E20               	goto	u294_20
  6597     061F                     u294_21:
  6598     061F  2E21               	goto	i1l2214
  6599     0620                     u294_20:
  6600     0620                     i1l2212:
  6601     0620  142A               	bsf	i1___fldiv@b,0
  6602     0621                     i1l2214:
  6603     0621  3001               	movlw	1
  6604     0622  00AE               	movwf	??i1___fldiv
  6605     0623                     u295_25:
  6606     0623  1003               	clrc
  6607     0624  0DBA               	rlf	i1___fldiv@grs,f
  6608     0625  0DBB               	rlf	i1___fldiv@grs+1,f
  6609     0626  0DBC               	rlf	i1___fldiv@grs+2,f
  6610     0627  0DBD               	rlf	i1___fldiv@grs+3,f
  6611     0628  0BAE               	decfsz	??i1___fldiv,f
  6612     0629  2E23               	goto	u295_25
  6613     062A                     i1l2216:
  6614     062A  0829               	movf	i1___fldiv@a+3,w
  6615     062B  0236               	subwf	i1___fldiv@rem+3,w
  6616     062C  1D03               	skipz
  6617     062D  2E38               	goto	u296_25
  6618     062E  0828               	movf	i1___fldiv@a+2,w
  6619     062F  0235               	subwf	i1___fldiv@rem+2,w
  6620     0630  1D03               	skipz
  6621     0631  2E38               	goto	u296_25
  6622     0632  0827               	movf	i1___fldiv@a+1,w
  6623     0633  0234               	subwf	i1___fldiv@rem+1,w
  6624     0634  1D03               	skipz
  6625     0635  2E38               	goto	u296_25
  6626     0636  0826               	movf	i1___fldiv@a,w
  6627     0637  0233               	subwf	i1___fldiv@rem,w
  6628     0638                     u296_25:
  6629     0638  1C03               	skipc
  6630     0639  2E3B               	goto	u296_21
  6631     063A  2E3C               	goto	u296_20
  6632     063B                     u296_21:
  6633     063B  2E4B               	goto	i1l2222
  6634     063C                     u296_20:
  6635     063C                     i1l2218:
  6636     063C  173D               	bsf	i1___fldiv@grs+3,6
  6637     063D                     i1l2220:
  6638     063D  0826               	movf	i1___fldiv@a,w
  6639     063E  02B3               	subwf	i1___fldiv@rem,f
  6640     063F  0827               	movf	i1___fldiv@a+1,w
  6641     0640  1C03               	skipc
  6642     0641  0F27               	incfsz	i1___fldiv@a+1,w
  6643     0642  02B4               	subwf	i1___fldiv@rem+1,f
  6644     0643  0828               	movf	i1___fldiv@a+2,w
  6645     0644  1C03               	skipc
  6646     0645  0F28               	incfsz	i1___fldiv@a+2,w
  6647     0646  02B5               	subwf	i1___fldiv@rem+2,f
  6648     0647  0829               	movf	i1___fldiv@a+3,w
  6649     0648  1C03               	skipc
  6650     0649  0F29               	incfsz	i1___fldiv@a+3,w
  6651     064A  02B6               	subwf	i1___fldiv@rem+3,f
  6652     064B                     i1l2222:
  6653     064B  3001               	movlw	1
  6654     064C  00FF               	movwf	btemp+1
  6655     064D  087F               	movf	btemp+1,w
  6656     064E  07BF               	addwf	i1___fldiv@aexp,f
  6657     064F                     i1l2224:
  6658     064F  301A               	movlw	26
  6659     0650  023F               	subwf	i1___fldiv@aexp,w
  6660     0651  1C03               	skipc
  6661     0652  2E54               	goto	u297_21
  6662     0653  2E55               	goto	u297_20
  6663     0654                     u297_21:
  6664     0654  2E05               	goto	i1l2206
  6665     0655                     u297_20:
  6666     0655                     i1l2226:
  6667     0655  0836               	movf	i1___fldiv@rem+3,w
  6668     0656  0435               	iorwf	i1___fldiv@rem+2,w
  6669     0657  0434               	iorwf	i1___fldiv@rem+1,w
  6670     0658  0433               	iorwf	i1___fldiv@rem,w
  6671     0659  1903               	skipnz
  6672     065A  2E5C               	goto	u298_21
  6673     065B  2E5D               	goto	u298_20
  6674     065C                     u298_21:
  6675     065C  2E7C               	goto	i1l2240
  6676     065D                     u298_20:
  6677     065D                     i1l2228:
  6678     065D  143A               	bsf	i1___fldiv@grs,0
  6679     065E  2E7C               	goto	i1l2240
  6680     065F                     i1l2230:
  6681     065F  3001               	movlw	1
  6682     0660  00AE               	movwf	??i1___fldiv
  6683     0661                     u299_25:
  6684     0661  1003               	clrc
  6685     0662  0DAA               	rlf	i1___fldiv@b,f
  6686     0663  0DAB               	rlf	i1___fldiv@b+1,f
  6687     0664  0DAC               	rlf	i1___fldiv@b+2,f
  6688     0665  0DAD               	rlf	i1___fldiv@b+3,f
  6689     0666  0BAE               	decfsz	??i1___fldiv,f
  6690     0667  2E61               	goto	u299_25
  6691     0668                     i1l2232:
  6692     0668  1FBD               	btfss	i1___fldiv@grs+3,7
  6693     0669  2E6B               	goto	u300_21
  6694     066A  2E6C               	goto	u300_20
  6695     066B                     u300_21:
  6696     066B  2E6D               	goto	i1l2236
  6697     066C                     u300_20:
  6698     066C                     i1l2234:
  6699     066C  142A               	bsf	i1___fldiv@b,0
  6700     066D                     i1l2236:
  6701     066D  3001               	movlw	1
  6702     066E  00AE               	movwf	??i1___fldiv
  6703     066F                     u301_25:
  6704     066F  1003               	clrc
  6705     0670  0DBA               	rlf	i1___fldiv@grs,f
  6706     0671  0DBB               	rlf	i1___fldiv@grs+1,f
  6707     0672  0DBC               	rlf	i1___fldiv@grs+2,f
  6708     0673  0DBD               	rlf	i1___fldiv@grs+3,f
  6709     0674  0BAE               	decfsz	??i1___fldiv,f
  6710     0675  2E6F               	goto	u301_25
  6711     0676                     i1l2238:
  6712     0676  30FF               	movlw	255
  6713     0677  07B8               	addwf	i1___fldiv@new_exp,f
  6714     0678  1803               	skipnc
  6715     0679  0AB9               	incf	i1___fldiv@new_exp+1,f
  6716     067A  30FF               	movlw	255
  6717     067B  07B9               	addwf	i1___fldiv@new_exp+1,f
  6718     067C                     i1l2240:
  6719     067C  1FAC               	btfss	i1___fldiv@b+2,7
  6720     067D  2E7F               	goto	u302_21
  6721     067E  2E80               	goto	u302_20
  6722     067F                     u302_21:
  6723     067F  2E5F               	goto	i1l2230
  6724     0680                     u302_20:
  6725     0680                     i1l2242:
  6726     0680  01BF               	clrf	i1___fldiv@aexp
  6727     0681                     i1l2244:
  6728     0681  1FBD               	btfss	i1___fldiv@grs+3,7
  6729     0682  2E84               	goto	u303_21
  6730     0683  2E85               	goto	u303_20
  6731     0684                     u303_21:
  6732     0684  2EA1               	goto	i1l2252
  6733     0685                     u303_20:
  6734     0685                     i1l2246:
  6735     0685  30FF               	movlw	255
  6736     0686  053A               	andwf	i1___fldiv@grs,w
  6737     0687  00AE               	movwf	??i1___fldiv
  6738     0688  30FF               	movlw	255
  6739     0689  053B               	andwf	i1___fldiv@grs+1,w
  6740     068A  00AF               	movwf	??i1___fldiv+1
  6741     068B  30FF               	movlw	255
  6742     068C  053C               	andwf	i1___fldiv@grs+2,w
  6743     068D  00B0               	movwf	??i1___fldiv+2
  6744     068E  307F               	movlw	127
  6745     068F  053D               	andwf	i1___fldiv@grs+3,w
  6746     0690  00B1               	movwf	??i1___fldiv+3
  6747     0691  0831               	movf	??i1___fldiv+3,w
  6748     0692  0430               	iorwf	??i1___fldiv+2,w
  6749     0693  042F               	iorwf	??i1___fldiv+1,w
  6750     0694  042E               	iorwf	??i1___fldiv,w
  6751     0695  1903               	skipnz
  6752     0696  2E98               	goto	u304_21
  6753     0697  2E99               	goto	u304_20
  6754     0698                     u304_21:
  6755     0698  2E9C               	goto	i1l677
  6756     0699                     u304_20:
  6757     0699                     i1l2248:
  6758     0699  01BF               	clrf	i1___fldiv@aexp
  6759     069A  0ABF               	incf	i1___fldiv@aexp,f
  6760     069B  2EA1               	goto	i1l2252
  6761     069C                     i1l677:
  6762     069C  1C2A               	btfss	i1___fldiv@b,0
  6763     069D  2E9F               	goto	u305_21
  6764     069E  2EA0               	goto	u305_20
  6765     069F                     u305_21:
  6766     069F  2EA1               	goto	i1l2252
  6767     06A0                     u305_20:
  6768     06A0  2E99               	goto	i1l2248
  6769     06A1                     i1l2252:
  6770     06A1  083F               	movf	i1___fldiv@aexp,w
  6771     06A2  1903               	btfsc	3,2
  6772     06A3  2EA5               	goto	u306_21
  6773     06A4  2EA6               	goto	u306_20
  6774     06A5                     u306_21:
  6775     06A5  2ED7               	goto	i1l2262
  6776     06A6                     u306_20:
  6777     06A6                     i1l2254:
  6778     06A6  3001               	movlw	1
  6779     06A7  07AA               	addwf	i1___fldiv@b,f
  6780     06A8  3000               	movlw	0
  6781     06A9  1803               	skipnc
  6782     06AA  3001               	movlw	1
  6783     06AB  07AB               	addwf	i1___fldiv@b+1,f
  6784     06AC  3000               	movlw	0
  6785     06AD  1803               	skipnc
  6786     06AE  3001               	movlw	1
  6787     06AF  07AC               	addwf	i1___fldiv@b+2,f
  6788     06B0  3000               	movlw	0
  6789     06B1  1803               	skipnc
  6790     06B2  3001               	movlw	1
  6791     06B3  07AD               	addwf	i1___fldiv@b+3,f
  6792     06B4                     i1l2256:
  6793     06B4  1C2D               	btfss	i1___fldiv@b+3,0
  6794     06B5  2EB7               	goto	u307_21
  6795     06B6  2EB8               	goto	u307_20
  6796     06B7                     u307_21:
  6797     06B7  2ED7               	goto	i1l2262
  6798     06B8                     u307_20:
  6799     06B8                     i1l2258:
  6800     06B8  082A               	movf	i1___fldiv@b,w
  6801     06B9  00AE               	movwf	??i1___fldiv
  6802     06BA  082B               	movf	i1___fldiv@b+1,w
  6803     06BB  00AF               	movwf	??i1___fldiv+1
  6804     06BC  082C               	movf	i1___fldiv@b+2,w
  6805     06BD  00B0               	movwf	??i1___fldiv+2
  6806     06BE  082D               	movf	i1___fldiv@b+3,w
  6807     06BF  00B1               	movwf	??i1___fldiv+3
  6808     06C0  3001               	movlw	1
  6809     06C1  00B2               	movwf	??i1___fldiv+4
  6810     06C2                     u308_25:
  6811     06C2  0D31               	rlf	??i1___fldiv+3,w
  6812     06C3  0CB1               	rrf	??i1___fldiv+3,f
  6813     06C4  0CB0               	rrf	??i1___fldiv+2,f
  6814     06C5  0CAF               	rrf	??i1___fldiv+1,f
  6815     06C6  0CAE               	rrf	??i1___fldiv,f
  6816     06C7                     u308_20:
  6817     06C7  0BB2               	decfsz	??i1___fldiv+4,f
  6818     06C8  2EC2               	goto	u308_25
  6819     06C9  0831               	movf	??i1___fldiv+3,w
  6820     06CA  00AD               	movwf	i1___fldiv@b+3
  6821     06CB  0830               	movf	??i1___fldiv+2,w
  6822     06CC  00AC               	movwf	i1___fldiv@b+2
  6823     06CD  082F               	movf	??i1___fldiv+1,w
  6824     06CE  00AB               	movwf	i1___fldiv@b+1
  6825     06CF  082E               	movf	??i1___fldiv,w
  6826     06D0  00AA               	movwf	i1___fldiv@b
  6827     06D1                     i1l2260:
  6828     06D1  3001               	movlw	1
  6829     06D2  07B8               	addwf	i1___fldiv@new_exp,f
  6830     06D3  1803               	skipnc
  6831     06D4  0AB9               	incf	i1___fldiv@new_exp+1,f
  6832     06D5  3000               	movlw	0
  6833     06D6  07B9               	addwf	i1___fldiv@new_exp+1,f
  6834     06D7                     i1l2262:
  6835     06D7  0839               	movf	i1___fldiv@new_exp+1,w
  6836     06D8  3A80               	xorlw	128
  6837     06D9  00FF               	movwf	btemp+1
  6838     06DA  3080               	movlw	128
  6839     06DB  027F               	subwf	btemp+1,w
  6840     06DC  1D03               	skipz
  6841     06DD  2EE0               	goto	u309_25
  6842     06DE  30FF               	movlw	255
  6843     06DF  0238               	subwf	i1___fldiv@new_exp,w
  6844     06E0                     u309_25:
  6845     06E0  1C03               	skipc
  6846     06E1  2EE3               	goto	u309_21
  6847     06E2  2EE4               	goto	u309_20
  6848     06E3                     u309_21:
  6849     06E3  2EF2               	goto	i1l2266
  6850     06E4                     u309_20:
  6851     06E4                     i1l2264:
  6852     06E4  30FF               	movlw	255
  6853     06E5  1283               	bcf	3,5	;RP0=0, select bank0
  6854     06E6  1303               	bcf	3,6	;RP1=0, select bank0
  6855     06E7  00B8               	movwf	i1___fldiv@new_exp
  6856     06E8  3000               	movlw	0
  6857     06E9  00B9               	movwf	i1___fldiv@new_exp+1
  6858     06EA  3000               	movlw	0
  6859     06EB  00AD               	movwf	i1___fldiv@b+3
  6860     06EC  3000               	movlw	0
  6861     06ED  00AC               	movwf	i1___fldiv@b+2
  6862     06EE  3000               	movlw	0
  6863     06EF  00AB               	movwf	i1___fldiv@b+1
  6864     06F0  3000               	movlw	0
  6865     06F1  00AA               	movwf	i1___fldiv@b
  6866     06F2                     i1l2266:
  6867     06F2  1283               	bcf	3,5	;RP0=0, select bank0
  6868     06F3  1303               	bcf	3,6	;RP1=0, select bank0
  6869     06F4  0839               	movf	i1___fldiv@new_exp+1,w
  6870     06F5  3A80               	xorlw	128
  6871     06F6  00FF               	movwf	btemp+1
  6872     06F7  3080               	movlw	128
  6873     06F8  027F               	subwf	btemp+1,w
  6874     06F9  1D03               	skipz
  6875     06FA  2EFD               	goto	u310_25
  6876     06FB  3001               	movlw	1
  6877     06FC  0238               	subwf	i1___fldiv@new_exp,w
  6878     06FD                     u310_25:
  6879     06FD  1803               	skipnc
  6880     06FE  2F00               	goto	u310_21
  6881     06FF  2F01               	goto	u310_20
  6882     0700                     u310_21:
  6883     0700  2F0E               	goto	i1l683
  6884     0701                     u310_20:
  6885     0701                     i1l2268:
  6886     0701  1283               	bcf	3,5	;RP0=0, select bank0
  6887     0702  1303               	bcf	3,6	;RP1=0, select bank0
  6888     0703  01B8               	clrf	i1___fldiv@new_exp
  6889     0704  01B9               	clrf	i1___fldiv@new_exp+1
  6890     0705                     i1l2270:
  6891     0705  3000               	movlw	0
  6892     0706  00AD               	movwf	i1___fldiv@b+3
  6893     0707  3000               	movlw	0
  6894     0708  00AC               	movwf	i1___fldiv@b+2
  6895     0709  3000               	movlw	0
  6896     070A  00AB               	movwf	i1___fldiv@b+1
  6897     070B  3000               	movlw	0
  6898     070C  00AA               	movwf	i1___fldiv@b
  6899     070D                     i1l2272:
  6900     070D  01B7               	clrf	i1___fldiv@sign
  6901     070E                     i1l683:
  6902     070E  1283               	bcf	3,5	;RP0=0, select bank0
  6903     070F  1303               	bcf	3,6	;RP1=0, select bank0
  6904     0710  0838               	movf	i1___fldiv@new_exp,w
  6905     0711  00BE               	movwf	i1___fldiv@bexp
  6906     0712                     i1l2274:
  6907     0712  1C3E               	btfss	i1___fldiv@bexp,0
  6908     0713  2F15               	goto	u311_21
  6909     0714  2F16               	goto	u311_20
  6910     0715                     u311_21:
  6911     0715  2F18               	goto	i1l2278
  6912     0716                     u311_20:
  6913     0716                     i1l2276:
  6914     0716  17AC               	bsf	i1___fldiv@b+2,7
  6915     0717  2F1C               	goto	i1l2280
  6916     0718                     i1l2278:
  6917     0718  307F               	movlw	127
  6918     0719  00FF               	movwf	btemp+1
  6919     071A  087F               	movf	btemp+1,w
  6920     071B  05AC               	andwf	i1___fldiv@b+2,f
  6921     071C                     i1l2280:
  6922     071C  083E               	movf	i1___fldiv@bexp,w
  6923     071D  00AE               	movwf	??i1___fldiv
  6924     071E  1003               	clrc
  6925     071F  0C2E               	rrf	??i1___fldiv,w
  6926     0720  00AD               	movwf	i1___fldiv@b+3
  6927     0721  2DBE               	goto	i1l2184
  6928     0722                     i1l663:
  6929     0722  0008               	return
  6930     0723                     __end_ofi1___fldiv:
  6931     007E                     btemp	set	126	;btemp
  6932     007E                     wtemp0	set	126
  6933                           
  6934                           	psect	idloc
  6935                           
  6936                           ;Config register IDLOC0 @ 0x2000
  6937                           ;	unspecified, using default values
  6938     2000                     	org	8192
  6939     2000  3FFF               	dw	16383
  6940                           
  6941                           ;Config register IDLOC1 @ 0x2001
  6942                           ;	unspecified, using default values
  6943     2001                     	org	8193
  6944     2001  3FFF               	dw	16383
  6945                           
  6946                           ;Config register IDLOC2 @ 0x2002
  6947                           ;	unspecified, using default values
  6948     2002                     	org	8194
  6949     2002  3FFF               	dw	16383
  6950                           
  6951                           ;Config register IDLOC3 @ 0x2003
  6952                           ;	unspecified, using default values
  6953     2003                     	org	8195
  6954     2003  3FFF               	dw	16383
  6955                           
  6956                           	psect	config
  6957                           
  6958                           ;Config register CONFIG @ 0x2007
  6959                           ;	Oscillator Selection bits
  6960                           ;	FOSC = HS, HS oscillator
  6961                           ;	Watchdog Timer Enable bit
  6962                           ;	WDTE = OFF, WDT disabled
  6963                           ;	Power-up Timer Enable bit
  6964                           ;	PWRTE = OFF, PWRT disabled
  6965                           ;	Brown-out Reset Enable bit
  6966                           ;	BOREN = ON, BOR enabled
  6967                           ;	Low-Voltage (Single-Supply) In-Circuit Serial Programming Enable bit
  6968                           ;	LVP = ON, RB3/PGM pin has PGM function; low-voltage programming enabled
  6969                           ;	Data EEPROM Memory Code Protection bit
  6970                           ;	CPD = OFF, Data EEPROM code protection off
  6971                           ;	Flash Program Memory Write Enable bits
  6972                           ;	WRT = OFF, Write protection off; all program memory may be written to by EECON control
  6973                           ;	In-Circuit Debugger Mode bit
  6974                           ;	DEBUG = 0x1, unprogrammed default
  6975                           ;	Flash Program Memory Code Protection bit
  6976                           ;	CP = OFF, Code protection off
  6977     2007                     	org	8199
  6978     2007  3FFA               	dw	16378

Data Sizes:
    Strings     63
    Constant    0
    Data        4
    BSS         19
    Persistent  0
    Stack       0

Auto Spaces:
    Space          Size  Autos    Used
    COMMON           14     14      14
    BANK0            80     60      65
    BANK1            80     78      79
    BANK3            96      7      24
    BANK2            96      0       0

Pointer List with Targets:

    sprintf@f	PTR const unsigned char  size(1) Largest target is 15
		 -> STR_3(CODE[15]), 

    sprintf@sp	PTR unsigned char  size(1) Largest target is 17
		 -> rcvStr(BANK3[17]), 

    sprintf@ap	PTR void [1] size(1) Largest target is 2
		 -> ?_sprintf(COMMON[2]), 

    UART_sendString@str	PTR unsigned char  size(2) Largest target is 18
		 -> STR_4(CODE[18]), rcvStr(BANK3[17]), STR_2(CODE[13]), STR_1(CODE[17]), 


Critical Paths under _main in COMMON

    None.

Critical Paths under _ISR in COMMON

    i1_UART_sendString->i1_UART_sendChar
    i1_ServoAngle->i1___xxtofl
    i1___xxtofl->i1___wmul
    i1___fltol->i1___xxtofl
    i1___fldiv->i1___xxtofl

Critical Paths under _main in BANK0

    None.

Critical Paths under _ISR in BANK0

    _ISR->_UART_Pos
    _UART_Pos->i1_ServoAngle
    i1_ServoAngle->i1___fltol
    i1___fltol->i1___fldiv
    i1___fldiv->i1___xxtofl

Critical Paths under _main in BANK1

    _main->_PosControl_Pot
    _UART_sendString->_UART_sendChar
    _Servo_Init->_Compare_Init
    _Compare_Init->___lwdiv
    _PosControl_Pot->___flmul
    ___flmul->___fldiv
    _ServoAngle->___fltol
    ___xxtofl->___wmul
    ___fltol->___fldiv
    ___fldiv->___xxtofl

Critical Paths under _ISR in BANK1

    None.

Critical Paths under _main in BANK3

    _main->_PosControl_Pot

Critical Paths under _ISR in BANK3

    None.

Critical Paths under _main in BANK2

    None.

Critical Paths under _ISR in BANK2

    None.

Call Graph Tables:

 ---------------------------------------------------------------------------------
 (Depth) Function   	        Calls       Base Space   Used Autos Params    Refs
 ---------------------------------------------------------------------------------
 (0) _main                                                 3     3      0    8628
                                             75 BANK1      3     3      0
                           _ADC_Init
                     _PosControl_Pot
                         _Servo_Init
                          _UART_Init
                    _UART_sendString
 ---------------------------------------------------------------------------------
 (1) _UART_sendString                                      2     0      2     293
                                              1 BANK1      2     0      2
                      _UART_sendChar
 ---------------------------------------------------------------------------------
 (2) _UART_sendChar                                        1     1      0      22
                                              0 BANK1      1     1      0
 ---------------------------------------------------------------------------------
 (1) _UART_Init                                            0     0      0       0
 ---------------------------------------------------------------------------------
 (1) _Servo_Init                                           0     0      0     466
                       _Compare_Init
                        _Timer1_Init
 ---------------------------------------------------------------------------------
 (2) _Timer1_Init                                          0     0      0       0
 ---------------------------------------------------------------------------------
 (2) _Compare_Init                                         2     2      0     466
                                              7 BANK1      2     2      0
                            ___lwdiv
 ---------------------------------------------------------------------------------
 (1) _PosControl_Pot                                      10    10      0    7869
                                             72 BANK1      3     3      0
                                              0 BANK3      7     7      0
                           _ADC_Read
                         _ServoAngle
                            ___fldiv
                            ___flmul
                            ___fltol
                           ___xxtofl
 ---------------------------------------------------------------------------------
 (2) ___flmul                                             26    18      8    2417
                                             46 BANK1     26    18      8
                          __Umul8_16
                            ___fldiv (ARG)
                           ___xxtofl (ARG)
 ---------------------------------------------------------------------------------
 (3) __Umul8_16                                            9     7      2     799
                                              0 BANK1      9     7      2
 ---------------------------------------------------------------------------------
 (2) _ServoAngle                                          11    11      0    3057
                                             56 BANK1     11    11      0
                            ___fldiv
                            ___fltol
                            ___lwdiv
                             ___wmul
                           ___xxtofl
 ---------------------------------------------------------------------------------
 (2) ___xxtofl                                            14    10      4     474
                                              6 BANK1     14    10      4
                             ___wmul (ARG)
 ---------------------------------------------------------------------------------
 (3) ___wmul                                               6     2      4     244
                                              0 BANK1      6     2      4
 ---------------------------------------------------------------------------------
 (3) ___lwdiv                                              7     3      4     466
                                              0 BANK1      7     3      4
 ---------------------------------------------------------------------------------
 (2) ___fltol                                             10     6      4     381
                                             46 BANK1     10     6      4
                            ___fldiv (ARG)
                             ___wmul (ARG)
                           ___xxtofl (ARG)
 ---------------------------------------------------------------------------------
 (2) ___fldiv                                             26    18      8    1425
                                             20 BANK1     26    18      8
                             ___wmul (ARG)
                           ___xxtofl (ARG)
 ---------------------------------------------------------------------------------
 (2) _ADC_Read                                             4     2      2      44
                                              0 BANK1      4     2      2
 ---------------------------------------------------------------------------------
 (1) _ADC_Init                                             0     0      0       0
 ---------------------------------------------------------------------------------
 Estimated maximum stack depth 3
 ---------------------------------------------------------------------------------
 (Depth) Function   	        Calls       Base Space   Used Autos Params    Refs
 ---------------------------------------------------------------------------------
 (4) _ISR                                                  6     6      0    2960
                                             54 BANK0      6     6      0
                           _UART_Pos
                            _sprintf
                  i1_UART_sendString
 ---------------------------------------------------------------------------------
 (6) _sprintf                                             20    17      3     315
                                              0 COMMON     8     5      3
 ---------------------------------------------------------------------------------
 (5) _UART_Pos                                             1     1      0    2500
                                             53 BANK0      1     1      0
                       i1_ServoAngle
                  i1_UART_sendString
 ---------------------------------------------------------------------------------
 (5) i1_UART_sendString                                    2     0      2     145
                                              1 COMMON     2     0      2
                    i1_UART_sendChar
 ---------------------------------------------------------------------------------
 (6) i1_UART_sendChar                                      1     1      0      22
                                              0 COMMON     1     1      0
 ---------------------------------------------------------------------------------
 (6) i1_ServoAngle                                        11    11      0    2201
                                             42 BANK0     11    11      0
                          i1___fldiv
                          i1___fltol
                          i1___lwdiv
                           i1___wmul
                         i1___xxtofl
 ---------------------------------------------------------------------------------
 (7) i1___xxtofl                                          14    10      4     348
                                              6 COMMON     8     4      4
                                              0 BANK0      6     6      0
                           i1___wmul (ARG)
 ---------------------------------------------------------------------------------
 (7) i1___wmul                                             6     2      4     144
                                              0 COMMON     6     2      4
 ---------------------------------------------------------------------------------
 (7) i1___lwdiv                                            7     3      4     214
                                              0 COMMON     7     3      4
 ---------------------------------------------------------------------------------
 (7) i1___fltol                                           10     6      4     255
                                             32 BANK0     10     6      4
                          i1___fldiv (ARG)
                           i1___wmul (ARG)
                         i1___xxtofl (ARG)
 ---------------------------------------------------------------------------------
 (7) i1___fldiv                                           26    18      8    1173
                                              6 BANK0     26    18      8
                           i1___wmul (ARG)
                         i1___xxtofl (ARG)
 ---------------------------------------------------------------------------------
 Estimated maximum stack depth 7
 ---------------------------------------------------------------------------------

 Call Graph Graphs:

 _main (ROOT)
   _ADC_Init
   _PosControl_Pot
     _ADC_Read
     _ServoAngle
       ___fldiv
         ___wmul (ARG)
         ___xxtofl (ARG)
           ___wmul (ARG)
       ___fltol
         ___fldiv (ARG)
         ___wmul (ARG)
         ___xxtofl (ARG)
       ___lwdiv
       ___wmul
       ___xxtofl
     ___fldiv
     ___flmul
       __Umul8_16
       ___fldiv (ARG)
       ___xxtofl (ARG)
     ___fltol
     ___xxtofl
   _Servo_Init
     _Compare_Init
       ___lwdiv
     _Timer1_Init
   _UART_Init
   _UART_sendString
     _UART_sendChar

 _ISR (ROOT)
   _UART_Pos
     i1_ServoAngle
       i1___fldiv
         i1___wmul (ARG)
         i1___xxtofl (ARG)
           i1___wmul (ARG)
       i1___fltol
         i1___fldiv (ARG)
         i1___wmul (ARG)
         i1___xxtofl (ARG)
       i1___lwdiv
       i1___wmul
       i1___xxtofl
     i1_UART_sendString
       i1_UART_sendChar
   _sprintf
   i1_UART_sendString

 Address spaces:
Name               Size   Autos  Total    Cost      Usage
BANK3               60      7      18       9       25.0%
BITBANK3            60      0       0       8        0.0%
SFR3                 0      0       0       4        0.0%
BITSFR3              0      0       0       4        0.0%
BANK2               60      0       0      11        0.0%
BITBANK2            60      0       0      10        0.0%
SFR2                 0      0       0       5        0.0%
BITSFR2              0      0       0       5        0.0%
BANK1               50     4E      4F       7       98.8%
BITBANK1            50      0       0       6        0.0%
SFR1                 0      0       0       2        0.0%
BITSFR1              0      0       0       2        0.0%
BANK0               50     3C      41       5       81.2%
BITBANK0            50      0       0       4        0.0%
SFR0                 0      0       0       1        0.0%
BITSFR0              0      0       0       1        0.0%
COMMON               E      E       E       1      100.0%
BITCOMMON            E      0       0       0        0.0%
CODE                 0      0       0       0        0.0%
DATA                 0      0      B6      12        0.0%
ABS                  0      0      B6       3        0.0%
NULL                 0      0       0       0        0.0%
STACK                0      0       0       2        0.0%
EEDATA             100      0       0       0        0.0%


Microchip Technology PIC Macro Assembler V2.41 build 20230208172133 
Symbol Table                                                                                   Sun Jun 18 10:07:50 2023

             ___fldiv@aexp 00CD               ___fldiv@bexp 00CC                          pc 0002  
             ___fldiv@sign 00C5                i1___fldiv@a 0026                i1___fldiv@b 002A  
                       l62 0F45                         fsr 0004        ___wmul@multiplicand 00A2  
         i1___wmul@product 0074        __Umul8_16@word_mpld 00A6                 i1___xxtofl 0F46  
                      l112 07F7                        l202 0941                        l130 0A4D  
                      l115 094F                        l206 0A84                        l118 095A  
                      l207 0A7A                        l312 09D6                        l314 09EE  
                      l181 097C                        l175 096B                        l505 0D78  
                      l185 0E9D                        l178 0ABC                        l508 0D8D  
                      l701 0384                        l720 0A05                        l722 0A17  
                      l707 02F4                        l661 03DB                        l663 0553  
                      l584 0B7F                        l745 0747                        l498 0D8D  
                      l683 053F                        l747 07DC                        l677 04CD  
                      l758 07A6                        l759 07B2                        _GIE 005F  
                      _RC2 003A                        _ISR 0BD6                        _RX9 00C6  
                      _TX9 04C6                        fsr0 0004                        indf 0000  
             i1___fltol@f1 0040               ___flmul@aexp 00E0               ___flmul@bexp 00E1  
             ___flmul@sign 00DB               ___flmul@temp 00E6               ___flmul@prod 00E2  
                     ?_ISR 0070              i1___fldiv@grs 003A              i1___fldiv@rem 0033  
             ___fltol@exp1 00D7                       l2000 09F4                       l2002 09FB  
                     l2020 074F                       l2012 0726                       l2004 09FF  
                     l2030 0768                       l2014 072B                       l2006 0A0E  
                     l2040 0791                       l2032 076F                       l2024 0758  
                     l2016 072F                       l2008 0A13                       l2050 07CA  
                     l2042 079C                       l2034 0773                       l2026 075B  
                     l2018 073F                       l2052 07CF                       l2044 07A0  
                     l2036 0781                       l2028 075F                       l2054 07D3  
                     l2046 07AA                       l2038 078A                       l2056 07D4  
                     l2048 07B4                       l2400 0062                       l2410 0078  
                     l2402 006A                       l2340 0E93                       l2500 0329  
                     l2420 0094                       l2412 007D                       l2404 006F  
                     l2350 0A71                       l2342 0A51                       l2510 0360  
                     l2502 032F                       l2430 00B5                       l2422 0099  
                     l2414 0082                       l2406 0073                       l2352 0A77  
                     l2344 0A57                       l1800 0D46                       l2336 0E0D  
                     l2512 0362                       l2520 0378                       l2504 033C  
                     l2440 013F                       l2432 00C2                       l2424 009E  
                     l2416 008A                       l2408 0077                       l2360 0954  
                     l2354 0A7E                       l1810 0D54                       l1802 0D48  
                     l2338 0E13                       l2522 037C                       l2514 036E  
                     l2506 0347                       l2450 019D                       l2442 015B  
                     l2434 00DD                       l2418 008C                       l2370 0964  
                     l2362 095B                       l2348 0A5A                       l1900 03FC  
                     l1820 0D6D                       l1812 0D5D                       l1804 0D4C  
                     l2516 0372                       l2508 0356                       l2460 0227  
                     l2452 01BA                       l2444 0164                       l2436 00F9  
                     l2428 00A7                       l2380 0A85                       l2372 0965  
                     l2364 0961                       l1910 0424                       l1902 0401  
                     l1822 0D7D                       l1814 0D66                       l1830 0B44  
                     l2518 0373                       l2470 02B7                       l2462 0252  
                     l2454 01D1                       l2446 0172                       l2438 0123  
                     l2390 004D                       l2382 0A8B                       l2374 0966  
                     l2366 0962                       l2630 07E4                       l2358 094F  
                     l1920 044D                       l1912 042C                       l1824 0D82  
                     l1840 0B67                       l1832 0B47                       l2472 02C0  
                     l2480 02D4                       l2464 0278                       l2456 01EE  
                     l2448 018F                       l2392 004E                       l2384 0040  
                     l2376 0969                       l2368 0963                       l2640 07ED  
                     l2632 07E5                       l2624 07DD                       l1930 046E  
                     l1922 0451                       l1914 0434                       l1906 040A  
                     l1842 0B6D                       l1834 0B4E                       l1826 0B3A  
                     l2482 02D8                       l2474 02C4                       l2466 02A0  
                     l2458 0219                       l2394 0053                       l2386 0045  
                     l2378 096A                       l2650 096C                       l2642 07EE  
                     l2634 07E8                       l2626 07E1                       l1940 0490  
                     l1932 047C                       l1924 0452                       l1916 0436  
                     l1908 041C                       l1860 0393                       l1852 0385  
                     l1844 0B6E                       l1836 0B52                       l1828 0B3E  
                     l1780 09DD                       l2492 02F9                       l2484 02D9  
                     l2476 02C5                       l2468 02A9                       l2396 0058  
                     l2388 0049                       l2652 0972                       l2644 07F1  
                     l2636 07EB                       l2628 07E3                       l2580 0A37  
                     l1942 0499                       l1950 04AD                       l1918 043B  
                     l1926 045B                       l1934 0480                       l1862 0398  
                     l1870 03A8                       l1854 038A                       l1790 0D21  
                     l1846 0B75                       l1838 0B56                       l1782 09E4  
                     l1774 09C8                       l2494 02FE                       l2486 02DD  
                     l2478 02CE                       l2398 0060                       l2590 0F30  
                     l2582 0E9E                       l2654 0977                       l2646 07F4  
                     l2638 07EC                       l2574 0A18                       l2648 0939  
                     l1952 04B1                       l1944 049D                       l1936 0486  
                     l1928 046D                       l1880 03BE                       l1872 03B0  
                     l1864 039D                       l1856 038E                       l1848 0B7B  
                     l1784 09EA                       l1776 09CC                       l2496 030C  
                     l2488 02F1                       l2592 0F36                       l2584 0EA1  
                     l2576 0A19                       l1970 0502                       l1962 04D2  
                     l1954 04B2                       l1946 049E                       l1938 048E  
                     l1882 03C3                       l1890 03D3                       l1874 03B5  
                     l1866 03A5                       l1858 0392                       l1794 0D2A  
                     l1778 09D0                       l2498 0310                       l2586 0EB3  
                     l2578 0A2F                       l2690 0ACC                       l1980 0536  
                     l1964 04D7                       l1972 0508                       l1956 04B6  
                     l1948 04A7                       l1892 03E3                       l1884 03C8  
                     l1876 03B9                       l1868 03A6                       l1796 0D3D  
                     l1788 0D16                       l2588 0F0F                       l2692 0ADB  
                     l1990 054D                       l1982 053E                       l1974 0515  
                     l1966 04E5                       l1958 04CA                       l1894 03EF  
                     l1886 03D0                       l1878 03BD                       l1798 0D3E  
                     l2694 0AE6                       l2686 0ABD                       l1984 0543  
                     l1976 0523                       l1968 04E9                       l1896 03F3  
                     l1888 03D1                       l2696 0AED                       l2688 0AC7  
                     l1986 0547                       l1978 0532                       l1988 0549  
                     l1998 09F2                       STR_1 0822                       STR_2 0842  
                     STR_3 0833                       STR_4 0810    __end_ofi1_UART_sendChar 094C  
                     _BRGH 04C2                       _CREN 00C4                       u2000 0D4C  
                     u2001 0D4B                       u2010 0D53                       u2011 0D52  
                     u2100 0B56                       u2101 0B55                       u2030 0D65  
                     u2031 0D64                       u2200 03C8                       u2040 0D6C  
                     u2120 0B67                       u2201 03C7                       u2041 0D6B  
                     u2025 0D55                       u2121 0B66                       u2210 03E3  
                     u2211 03E2                       u2115 0B57                       u2300 048E  
                     u2220 0401                       u2060 0D7D                       u2140 0B7B  
                     u2301 048D                       u2221 0400                       u2061 0D7C  
                     u2141 0B7A                       u2125 0B63                       u2230 043B  
                     u2150 0392                       u2070 0D82                       u2231 043A  
                     u2151 0391                       u2071 0D81                       u2055 0D6F  
                     u2135 0B6F                       u2400 04F8                       u2320 049D  
                     u2160 0398                       u2080 0B44                       u2321 049C  
                     u2161 0397                       u2081 0B43                       u2410 0515  
                     u2170 039D                       u2411 0514                       u2315 0492  
                     u2171 039C                       u2420 0532                       u2340 04B1  
                     u2260 0451                       u2180 03BD                       u3300 0954  
                     u2421 0531                       u2405 04F3                       u2341 04B0  
                     u2261 0450                       u2245 043D                       u2181 03BC  
                     u3301 0953                       u2430 0547                       u2350 04B6  
                     u2190 03C3                       u2510 076E                       u3310 004D  
                     u2431 0546                       u2415 0511                       u2351 04B5  
                     u2335 04A0                       u2255 0446                       u2191 03C2  
                     u2095 0B48                       u2511 076D                       u3311 004C  
                     u2360 04CA                       u2280 046D                       u2600 07D3  
                     u2440 09FF                       u3320 0053                       u2425 052E  
                     u2361 04C9                       u2281 046C                       u2601 07D2  
                     u2505 0760                       u2441 09FE                       u3401 0107  
                     u3321 0052                       u2370 04D1                       u2290 0486  
                     u2530 0790                       u3402 010E                       u3330 0058  
                     u2371 04D0                       u2291 0485                       u2275 0454  
                     u2531 078F                       u3411 0131                       u3403 0115  
                     u3331 0057                       u2380 04D7                       u3260 0E13  
                     u2460 0A13                       u3500 025E                       u3412 0138  
                     u3340 0077                       u2381 04D6                       u2285 0469  
                     u2525 0782                       u3261 0E12                       u2461 0A12  
                     u3421 014D                       u3413 013F                       u3341 0076  
                     u3270 0A57                       u2390 04E9                       u2550 07A0  
                     u2470 072B                       u3422 0154                       u3350 007D  
                     u3271 0A56                       u2391 04E8                       u2551 079F  
                     u2471 072A                       u2455 0A06                       u3511 026A  
                     u3423 015B                       u3351 007C                       u2560 07A6  
                     u2480 072F                       u3600 02F1                       u3520 0286  
                     u3512 0271                       u3360 0082                       u2561 07A5  
                     u2545 0795                       u2481 072E                       u3601 02F0  
                     u3513 0278                       u3505 0259                       u3441 0181  
                     u3361 0081                       u3290 0A7E                       u2570 07AA  
                     u2490 074F                       u3610 02F8                       u3442 0188  
                     u3370 0099                       u3291 0A7D                       u2571 07A9  
                     u2491 074E                       u3611 02F7                       u3531 0292  
                     u3451 01AC                       u3443 018F                       u3435 015D  
                     u3371 0098                       u1940 09D0                       u2580 07BF  
                     u3620 02FE                       u3532 0299                       u3452 01B3  
                     u3380 009E                       u3285 0A65                       u1941 09CF  
                     u3621 02FD                       u3533 02A0                       u3525 0281  
                     u3453 01BA                       u3381 009D                       u2590 07CF  
                     u3630 0310                       u2591 07CE                       u3631 030F  
                     u3471 01E0                       u3391 00EB                       u3640 031F  
                     u3560 02C4                       u3472 01E7                       u3392 00F2  
                     u2585 07BA                       u3561 02C3                       u3545 02A2  
                     u3481 020B                       u3473 01EE                       u3465 01BC  
                     u3393 00F9                       u1970 09EA                       u3650 033C  
                     u3482 0212                       u1971 09E9                       u1955 09D7  
                     u3651 033B                       u3555 02B9                       u3491 0236  
                     u3483 0219                       _PEIE 005E                       u1980 0D21  
                     u3660 0356                       u3580 02D8                       u3492 023D  
                     u1981 0D20                       u1965 09DE                       u3661 0355  
                     u3645 031A                       u3581 02D7                       u3493 0244  
                     u1990 0D38                       u3670 0372                       u3590 02DD  
                     u3671 0371                       u3655 0338                       u3591 02DC  
                     u3575 02C7                       u3840 0AED                       u3665 0352  
                     u3841 0AEC                       u3770 0A4D                       u1995 0D33  
                     u3771 0A4C                       _RCIE 0465                       _RCIF 0065  
                     i1l70 0C13                       i1l72 0C1F                       u3857 0AD4  
                     i1l59 0C9D                       u3867 0F3E                       u3877 0A75  
                     _OERR 00C1                       _TMR1 000E                       _SPEN 00C7  
                     _TXEN 04C5                       _TXIF 0064                       _SYNC 04C4  
   __end_of_PosControl_Pot 0F46                       _main 0ABD                       _mode 00EE  
                     btemp 007E           __end_of_ADC_Init 0942           __end_of_ADC_Read 0A85  
                     start 0012            ___fldiv@new_exp 00C6                      ??_ISR 0056  
           i1___fldiv@aexp 003F             i1___fldiv@bexp 003E             i1___fldiv@sign 0037  
            ___fltol@sign1 00D6                      ?_main 0070            __end_of___fldiv 0554  
                    _CCPR1 0015            __end_of___flmul 0385            __end_of___fltol 0D8E  
          __end_of___lwdiv 0B80                      i1l130 09C7                      i1l115 0943  
                    i1l118 094B                      i1l312 0989                      i1l314 09A1  
                    i1l308 0BD5                      i1l505 0D00                      i1l185 0E09  
                    i1l508 0D15                      i1l661 05AA                      i1l663 0722  
                    i1l584 0B39                      i1l745 0F6A                      i1l498 0D15  
                    i1l683 070E                      i1l747 0FFF                      i1l677 069C  
                    i1l758 0FC9                      i1l759 0FD5                      _RCREG 001A  
                    _TIME1 005E                      _SPBRG 0099                      _TXREG 0019  
         __end_of_UART_Pos 0C9E                      pclath 000A           __end_ofi1___wmul 09A2  
           i1___fltol@exp1 0049            ?_PosControl_Pot 0070                      status 0003  
      i1___wmul@multiplier 0070                      wtemp0 007E            __end_of_sprintf 0BD6  
          _UART_sendString 0A18            __initialization 0015               __end_of_main 0AF6  
                   ??_main 00EB                ?i1___xxtofl 0076          PosControl_Pot@adc 01A5  
     __end_of_Compare_Init 0ABD                     _ADCON0 001F                     _ADCON1 009F  
                   _CCP1M0 00B8                     _CCP1M1 00B9                     _CCP1M2 00BA  
                   _CCP1M3 00BB                     _ADRESH 001E                     _ADRESL 009E  
         ?i1_UART_sendChar 0070                     i1l2100 0CDC                     i1l2110 0CF5  
                   i1l2102 0CE5                     i1l2200 05F3                     i1l2112 0D05  
                   i1l2104 0CEE                     i1l2120 0AFE                     i1l2210 061C  
                   i1l2202 05FB                     i1l2114 0D0A                     i1l2130 0B21  
                   i1l2122 0B01                     i1l2220 063D                     i1l2212 0620  
                   i1l2204 0603                     i1l2132 0B27                     i1l2124 0B08  
                   i1l2116 0AF6                     i1l2300 0F7B                     i1l2060 0943  
                   i1l2230 065F                     i1l2222 064B                     i1l2214 0621  
                   i1l2206 0605                     i1l2150 0562                     i1l2142 0554  
                   i1l2134 0B28                     i1l2126 0B0C                     i1l2118 0AF8  
                   i1l2070 0990                     i1l2310 0F96                     i1l2302 0F7E  
                   i1l2062 0949                     i1l2232 0668                     i1l2240 067C  
                   i1l2208 060A                     i1l2216 062A                     i1l2224 064F  
                   i1l2152 0567                     i1l2160 0577                     i1l2144 0559  
                   i1l2080 0CA9                     i1l2136 0B2F                     i1l2128 0B10  
                   i1l2072 0997                     i1l2064 097D                     i1l2320 0FC3  
                   i1l2312 0FA4                     i1l2304 0F82                     i1l2242 0680  
                   i1l2234 066C                     i1l2226 0655                     i1l2218 063C  
                   i1l2170 058D                     i1l2162 057F                     i1l2154 056C  
                   i1l2146 055D                     i1l2090 0CCE                     i1l2138 0B35  
                   i1l2074 099D                     i1l2066 097F                     i1l2330 0FF6  
                   i1l2322 0FCD                     i1l2314 0FAD                     i1l2306 0F8B  
                   i1l2260 06D1                     i1l2252 06A1                     i1l2244 0681  
                   i1l2236 066D                     i1l2228 065D                     i1l2172 0592  
                   i1l2180 05A2                     i1l2164 0584                     i1l2156 0574  
                   i1l2148 0561                     i1l2092 0CD0                     i1l2084 0CB2  
                   i1l2068 0983                     i1l2332 0FF7                     i1l2324 0FD7  
                   i1l2316 0FB4                     i1l2308 0F92                     i1l2270 0705  
                   i1l2254 06A6                     i1l2262 06D7                     i1l2246 0685  
                   i1l2238 0676                     i1l2182 05B2                     i1l2190 05CB  
                   i1l2174 0597                     i1l2166 0588                     i1l2158 0575  
                   i1l2094 0CD4                     i1l2086 0CC5                     i1l2078 0C9E  
                   i1l2326 0FED                     i1l2318 0FBF                     i1l2280 071C  
                   i1l2272 070D                     i1l2264 06E4                     i1l2256 06B4  
                   i1l2248 0699                     i1l2192 05D0                     i1l2184 05BE  
                   i1l2176 059F                     i1l2168 058C                     i1l2088 0CC6  
                   i1l2328 0FF2                     i1l2600 0B8F                     i1l2274 0712  
                   i1l2266 06F2                     i1l2258 06B8                     i1l2186 05C2  
                   i1l2178 05A0                     i1l2290 0F4E                     i1l2530 09B1  
                   i1l2602 0B94                     i1l2276 0716                     i1l2268 0701  
                   i1l2196 05D9                     i1l2292 0F52                     i1l2532 09B7  
                   i1l2540 0C2F                     i1l2604 0B95                     i1l2612 0BA7  
                   i1l2278 0718                     i1l2198 05EB                     i1l2294 0F62  
                   i1l2534 0D91                     i1l2526 09A2                     i1l2550 0C4F  
                   i1l2542 0C35                     i1l2606 0B99                     i1l2614 0BC1  
                   i1l2296 0F72                     i1l2288 0F49                     i1l2536 0D97  
                   i1l2528 09A3                     i1l2560 0C70                     i1l2552 0C56  
                   i1l2544 0C3C                     i1l2616 0BD1                     i1l2608 0B9D  
                   i1l2538 0E05                     i1l2562 0C76                     i1l2554 0C5C  
                   i1l2546 0C42                     i1l2564 0C7D                     i1l2556 0C63  
                   i1l2548 0C49                     i1l2572 0C94                     i1l2660 0BDE  
                   i1l2566 0C83                     i1l2558 0C69                     i1l2718 0BB9  
                   i1l2670 0BE7                     i1l2662 0BDF                     i1l2568 0C8A  
                   i1l2680 0C07                     i1l2672 0BEB                     i1l2664 0BE0  
                   i1l2656 0BD6                     i1l2594 0B81                     i1l2682 0C0F  
                   i1l2674 0BED                     i1l2666 0BE2                     i1l2658 0BDA  
                   i1l2596 0B84                     i1l2684 0C17                     i1l2676 0BEF  
                   i1l2668 0BE3                     i1l2598 0B8A                     i1l2678 0BFE  
                   u300_20 066C                     u300_21 066B                     u301_25 066F  
                   u310_20 0701                     u302_20 0680                     u310_21 0700  
                   u302_21 067F                     u310_25 06FD                     u311_20 0716  
                   u303_20 0685                     u311_21 0715                     u303_21 0684  
                   u304_20 0699                     u320_20 0FC3                     u312_20 0F4E  
                   u304_21 0698                     u320_21 0FC2                     u312_21 0F4D  
                   u305_20 06A0                     u321_20 0FC9                     u313_20 0F52  
                   u305_21 069F                     u321_21 0FC8                     u313_21 0F51  
                   u306_20 06A6                     u322_20 0FCD                     u314_20 0F72  
                   u306_21 06A5                     u322_21 0FCC                     u314_21 0F71  
                   u307_20 06B8                     u323_20 0FE2                     u307_21 06B7  
                   u323_25 0FDD                     u315_25 0F83                     u308_20 06C7  
                   u324_20 0FF2                     u316_20 0F91                     u324_21 0FF1  
                   u316_21 0F90                     u308_25 06C2                     u309_20 06E4  
                   u325_20 0FF6                     u261_20 0949                     u309_21 06E3  
                   u325_21 0FF5                     u261_21 0948                     u309_25 06E0  
                   u317_25 0FA5                     u262_20 0983                     u318_20 0FB3  
                   u262_21 0982                     u318_21 0FB2                     u270_25 0CDD  
                   u271_20 0CED                     u271_21 0CEC                     u263_25 098A  
                   u319_25 0FB8                     u272_20 0CF4                     u280_20 0B21  
                   u272_21 0CF3                     u280_21 0B20                     u280_25 0B1D  
                   u264_25 0991                     u265_20 099D                     u265_21 099C  
                   u273_25 0CF7                     u281_25 0B29                     u290_20 05D0  
                   u274_20 0D05                     u266_20 0CA9                     u282_20 0B35  
                   u370_20 0C35                     u290_21 05CF                     u274_21 0D04  
                   u266_21 0CA8                     u282_21 0B34                     u370_21 0C34  
                   u291_20 060A                     u283_20 0561                     u275_20 0D0A  
                   u267_20 0CC0                     u371_20 0C42                     u291_21 0609  
                   u283_21 0560                     u275_21 0D09                     u371_21 0C41  
                   u267_25 0CBB                     u284_20 0567                     u268_20 0CD4  
                   u276_20 0AFE                     u372_20 0C4F                     u380_20 0BDA  
                   u284_21 0566                     u268_21 0CD3                     u276_21 0AFD  
                   u372_21 0C4E                     u380_21 0BD9                     u292_25 060C  
                   u285_20 056C                     u269_20 0CDB                     u373_20 0C5C  
                   u381_20 0BE7                     u285_21 056B                     u269_21 0CDA  
                   u373_21 0C5B                     u381_21 0BE6                     u293_25 0615  
                   u277_25 0B02                     u294_20 0620                     u286_20 058C  
                   u278_20 0B10                     u374_20 0C69                     u382_20 0BEB  
                   u294_21 061F                     u286_21 058B                     u278_21 0B0F  
                   u374_21 0C68                     u382_21 0BEA                     u287_20 0592  
                   u375_20 0C76                     u383_20 0C0F                     u287_21 0591  
                   u375_21 0C75                     u383_21 0C0E                     u295_25 0623  
                   u279_25 0B11                     u296_20 063C                     u288_20 0597  
                   u368_20 09C7                     u376_20 0C83                     u296_21 063B  
                   u288_21 0596                     u368_21 09C6                     u376_21 0C82  
                   u296_25 0638                     u297_20 0655                     u289_20 05B2  
                   u369_20 0D97                     u297_21 0654                     u289_21 05B1  
                   u369_21 0D96                     u298_20 065D                     u378_20 0B8A  
                   u298_21 065C                     u378_21 0B89                     u379_20 0BD1  
                   u379_21 0BD0                     u299_25 0661                     _TMR1IE 0460  
                   _TMR1IF 0060                     _TMR1CS 0081                     _TMR1ON 0080  
                   _TRISC2 043A           __end_of___xxtofl 07DD              ??_Timer1_Init 00A0  
        __end_of_UART_Init 07F8                     ___wmul 09C8                  ??___fldiv 00BC  
                ??___flmul 00D6                  ??___fltol 00D2                 _ServoAngle 0E0A  
                ??___lwdiv 00A4                 _Servo_Init 096C                     _rcvStr 0190  
        __end_ofi1___fldiv 0723          __end_ofi1___fltol 0D16          __end_ofi1___lwdiv 0B3A  
                ?_ADC_Init 0070                  ?_ADC_Read 00A0                     saved_w 007E  
          i1___fltol@sign1 0048                  ??_sprintf 0073               ___xxtofl@arg 00B0  
  __end_of_UART_sendString 0A4E               ___xxtofl@exp 00AF               ___xxtofl@val 00A6  
        UART_sendChar@data 00A0    __end_of__initialization 003C                 ___fltol@f1 00CE  
           __pcstackCOMMON 0070               __pidataBANK0 0935                  ?_UART_Pos 0070  
      __end_of_Timer1_Init 096C                  ?i1___wmul 0070                 ??_ADC_Init 00A0  
               ??_ADC_Read 00A2      __end_of_UART_sendChar 095B                 __pbssBANK0 0060  
               __pbssBANK1 00EE                 __pbssBANK3 0190             i1___xxtofl@arg 0022  
           i1___xxtofl@exp 0021             i1___xxtofl@val 0076          __end_of__Umul8_16 0A18  
               __pmaintext 0ABD                    ?___wmul 00A0    PosControl_Pot@adc_angle 01A7  
               ??_UART_Pos 007E                ?_ServoAngle 0070                 __pintentry 0004  
              ?_Servo_Init 0070                    _CCP1CON 0017                 ??i1___wmul 0074  
                  _T1CKPS0 0084                    _T1CKPS1 0085                  ?___xxtofl 00A6  
                  _GO_DONE 00FA           ??_PosControl_Pot 00E8                 __stringtab 0800  
         ?_UART_sendString 00A1            ServoAngle@angle 00E2                _Timer1_Init 095B  
             _Compare_Init 0A85                    ___fldiv 0385                    ___flmul 0040  
                  ___fltol 0D16                    ___lwdiv 0B3A               ??i1___xxtofl 007A  
                  __ptext1 0A18                    __ptext2 094C                    __ptext3 07DD  
                  __ptext4 096C                    __ptext5 095B                    __ptext6 0A85  
                  __ptext7 0E9E                    __ptext8 0040                    __ptext9 09EF  
                  _command 0060                UART_Pos@com 0055          i1___lwdiv@divisor 0070  
        i1___lwdiv@counter 0076                 ??___xxtofl 00AA                    _sprintf 0B80  
                  clrloop0 07F9       end_of_initialization 003C         __end_ofi1___xxtofl 1000  
     i1UART_sendString@str 0071      i1___wmul@multiplicand 0072                  _UART_Init 07DD  
            ___xxtofl@sign 00AE                  _TRISCbits 0087                  i1___fldiv 0554  
              ___fldiv@grs 00C8                  i1___fltol 0C9E                ___fldiv@rem 00C1  
                i1___lwdiv 0AF6              ?i1_ServoAngle 0070                ___flmul@grs 00DC  
           __end_of___wmul 09EF                 ?_UART_Init 0070        start_initialization 0015  
              __end_of_ISR 0C2C                 ?i1___fldiv 0026                 ?i1___fltol 0040  
           ??i1_ServoAngle 004A                 ?i1___lwdiv 0070      PosControl_Pot@adc_val 01A1  
                 ??___wmul 00A4               ??_ServoAngle 00D8                  __Umul8_16 09EF  
             ??_Servo_Init 00A9                __pdataBANK0 005C        i1UART_sendChar@data 0070  
                ___fldiv@a 00B4                  ___fldiv@b 00B8                  ___flmul@a 00D2  
                ___flmul@b 00CE                  ___latbits 0002              __pcstackBANK0 0020  
            __pcstackBANK1 00A0              __pcstackBANK3 01A1            i1___xxtofl@sign 0020  
       __end_of_ServoAngle 0E9E         __end_of_Servo_Init 097D          i1___fldiv@new_exp 0038  
             ?_Timer1_Init 0070           ___lwdiv@dividend 00A2                   ?___fldiv 00B4  
                 ?___flmul 00CE                   ?___fltol 00CE                 ?__Umul8_16 00A0  
                 ?___lwdiv 00A0                ??_UART_Init 00A0          ??i1_UART_sendChar 0070  
                __pstrings 0800                   _ADC_Init 0939                   _ADC_Read 0A4E  
              ADC_Read@ANC 00A3                ??i1___fldiv 002E                ??i1___fltol 0044  
         ___lwdiv@quotient 00A4                ??i1___lwdiv 0074                   ?_sprintf 0070  
                 _DC_RANGE 005C          interrupt_function 0004             ___wmul@product 00A4  
        i1_UART_sendString 09A2                  clear_ram0 07F8         ?i1_UART_sendString 0071  
       UART_sendString@str 00A1                   _UART_Pos 0C2C       __end_ofi1_ServoAngle 0E0A  
      ??i1_UART_sendString 0073                 _ADCON0bits 001F                __stringbase 080F  
        ___wmul@multiplier 00A0                   i1___wmul 097D              _UART_sendChar 094C  
__end_ofi1_UART_sendString 09C8               ServoAngle@dc 00E0                ??__Umul8_16 00A2  
       __end_of__stringtab 0810                   ___xxtofl 0723            ___lwdiv@divisor 00A0  
          ___lwdiv@counter 00A6                   __ptext10 0E0A                   __ptext11 0723  
                 __ptext20 0C2C                   __ptext12 09C8                   __ptext21 09A2  
                 __ptext13 0B3A                   __ptext22 0942                   __ptext14 0D16  
                 __ptext23 0D8E                   __ptext15 0385                   __ptext24 0F46  
                 __ptext16 0A4E                   __ptext25 097D                   __ptext17 0939  
                 __ptext26 0AF6                   __ptext18 0BD6                   __ptext27 0C9E  
                 __ptext19 0B80                   __ptext28 0554             ?_UART_sendChar 0070  
       i1___lwdiv@dividend 0072             i1ServoAngle@dc 0052          ??_UART_sendString 00A3  
       i1___lwdiv@quotient 0074                   intlevel1 0000                  sprintf@ap 0075  
                sprintf@sp 0077            i1_UART_sendChar 0942                  stringcode 080A  
            ?_Compare_Init 0070     __Umul8_16@multiplicand 00A0                   sprintf@c 0076  
                 sprintf@f 0070                   stringdir 080A                   stringtab 0800  
          ??_UART_sendChar 00A0               i1_ServoAngle 0D8E          i1ServoAngle@angle 0054  
     __Umul8_16@multiplier 00A8             _PosControl_Pot 0E9E             ??_Compare_Init 00A7  
        __Umul8_16@product 00A4  
