

Microchip MPLAB XC8 Assembler V2.41 build 20230208172133 
                                                                                               Sat Aug 26 18:20:00 2023

Microchip MPLAB XC8 C Compiler v2.41 (Free license) build 20230208172133 Og1 
     1                           	processor	16F877A
     2                           	pagewidth 120
     3                           	opt	flic
     4                           	psect	idataBANK0,global,class=CODE,delta=2,noexec
     5                           	psect	strings,global,class=STRING,delta=2,noexec
     6                           	psect	cinit,global,class=CODE,merge=1,delta=2
     7                           	psect	bssBANK0,global,class=BANK0,space=1,delta=1,noexec
     8                           	psect	dataBANK0,global,class=BANK0,space=1,delta=1,noexec
     9                           	psect	bssBANK1,global,class=BANK1,space=1,delta=1,noexec
    10                           	psect	cstackBANK3,global,class=BANK3,space=1,delta=1,noexec
    11                           	psect	cstackBANK1,global,class=BANK1,space=1,delta=1,noexec
    12                           	psect	cstackCOMMON,global,class=COMMON,space=1,delta=1,noexec
    13                           	psect	cstackBANK0,global,class=BANK0,space=1,delta=1,noexec
    14                           	psect	maintext,global,class=CODE,split=1,delta=2
    15                           	psect	text1,local,class=CODE,merge=1,delta=2
    16                           	psect	text2,local,class=CODE,merge=1,delta=2
    17                           	psect	text3,local,class=CODE,merge=1,delta=2
    18                           	psect	text4,local,class=CODE,merge=1,delta=2
    19                           	psect	text5,local,class=CODE,merge=1,delta=2
    20                           	psect	text6,local,class=CODE,merge=1,delta=2,group=1
    21                           	psect	text7,local,class=CODE,merge=1,delta=2,group=1
    22                           	psect	text8,local,class=CODE,merge=1,delta=2,group=1
    23                           	psect	text9,local,class=CODE,merge=1,delta=2,group=1
    24                           	psect	text10,local,class=CODE,merge=1,delta=2,group=1
    25                           	psect	text11,local,class=CODE,merge=1,delta=2,group=1
    26                           	psect	text12,local,class=CODE,merge=1,delta=2,group=1
    27                           	psect	text13,local,class=CODE,merge=1,delta=2
    28                           	psect	text14,local,class=CODE,merge=1,delta=2
    29                           	psect	text15,local,class=CODE,merge=1,delta=2
    30                           	psect	text16,local,class=CODE,merge=1,delta=2
    31                           	psect	text17,local,class=CODE,merge=1,delta=2
    32                           	psect	intentry,global,class=CODE,delta=2
    33                           	psect	text18,local,class=CODE,merge=1,delta=2
    34                           	psect	text19,local,class=CODE,merge=1,delta=2
    35                           	psect	text20,local,class=CODE,merge=1,delta=2
    36                           	psect	text21,local,class=CODE,merge=1,delta=2
    37                           	psect	text22,local,class=CODE,merge=1,delta=2
    38                           	psect	text23,local,class=CODE,merge=1,delta=2
    39                           	psect	text24,local,class=CODE,merge=1,delta=2
    40                           	psect	text25,local,class=CODE,merge=1,delta=2
    41                           	psect	text26,local,class=CODE,merge=1,delta=2
    42                           	psect	text27,local,class=CODE,merge=1,delta=2
    43                           	psect	text28,local,class=CODE,merge=1,delta=2
    44                           	psect	idloc,global,abs,ovrld,class=IDLOC,space=5,delta=2,noexec
    45                           	psect	config,global,abs,ovrld,class=CONFIG,space=4,delta=2,noexec
    46                           	dabs	1,0x7E,2
    47     0000                     
    48                           ; Version 2.40
    49                           ; Generated 17/11/2021 GMT
    50                           ; 
    51                           ; Copyright © 2021, Microchip Technology Inc. and its subsidiaries ("Microchip")
    52                           ; All rights reserved.
    53                           ; 
    54                           ; This software is developed by Microchip Technology Inc. and its subsidiaries ("Microch
      +                          ip").
    55                           ; 
    56                           ; Redistribution and use in source and binary forms, with or without modification, are
    57                           ; permitted provided that the following conditions are met:
    58                           ; 
    59                           ;     1. Redistributions of source code must retain the above copyright notice, this lis
      +                          t of
    60                           ;        conditions and the following disclaimer.
    61                           ; 
    62                           ;     2. Redistributions in binary form must reproduce the above copyright notice, this 
      +                          list
    63                           ;        of conditions and the following disclaimer in the documentation and/or other
    64                           ;        materials provided with the distribution. Publication is not required when
    65                           ;        this file is used in an embedded application.
    66                           ; 
    67                           ;     3. Microchip's name may not be used to endorse or promote products derived from th
      +                          is
    68                           ;        software without specific prior written permission.
    69                           ; 
    70                           ; THIS SOFTWARE IS PROVIDED BY MICROCHIP "AS IS" AND ANY EXPRESS OR IMPLIED WARRANTIES,
    71                           ; INCLUDING, BUT NOT LIMITED TO, THE IMPLIED WARRANTIES OF MERCHANTABILITY AND FITNESS F
      +                          OR
    72                           ; PURPOSE ARE DISCLAIMED.  IN NO EVENT SHALL MICROCHIP BE LIABLE FOR ANY DIRECT, INDIREC
      +                          T,
    73                           ; INCIDENTAL, SPECIAL, EXEMPLARY, OR CONSEQUENTIAL DAMAGES (INCLUDING BUT NOT LIMITED TO
    74                           ; PROCUREMENT OF SUBSTITUTE GOODS OR SERVICES; LOSS OF USE, DATA OR PROFITS; OR BUSINESS
    75                           ; INTERRUPTION) HOWSOEVER CAUSED AND ON ANY THEORY OF LIABILITY, WHETHER IN CONTRACT, ST
      +                          RICT
    76                           ; LIABILITY, OR TORT (INCLUDING NEGLIGENCE OR OTHERWISE) ARISING IN ANY WAY OUT OF THE U
      +                          SE OF
    77                           ; THIS SOFTWARE, EVEN IF ADVISED OF THE POSSIBILITY OF SUCH DAMAGE.
    78                           ; 
    79                           ; 
    80                           ; Code-generator required, PIC16F877A Definitions
    81                           ; 
    82                           ; SFR Addresses
    83     0000                     	;# 
    84     0001                     	;# 
    85     0002                     	;# 
    86     0003                     	;# 
    87     0004                     	;# 
    88     0005                     	;# 
    89     0006                     	;# 
    90     0007                     	;# 
    91     0008                     	;# 
    92     0009                     	;# 
    93     000A                     	;# 
    94     000B                     	;# 
    95     000C                     	;# 
    96     000D                     	;# 
    97     000E                     	;# 
    98     000E                     	;# 
    99     000F                     	;# 
   100     0010                     	;# 
   101     0011                     	;# 
   102     0012                     	;# 
   103     0013                     	;# 
   104     0014                     	;# 
   105     0015                     	;# 
   106     0015                     	;# 
   107     0016                     	;# 
   108     0017                     	;# 
   109     0018                     	;# 
   110     0019                     	;# 
   111     001A                     	;# 
   112     001B                     	;# 
   113     001B                     	;# 
   114     001C                     	;# 
   115     001D                     	;# 
   116     001E                     	;# 
   117     001F                     	;# 
   118     0081                     	;# 
   119     0085                     	;# 
   120     0086                     	;# 
   121     0087                     	;# 
   122     0088                     	;# 
   123     0089                     	;# 
   124     008C                     	;# 
   125     008D                     	;# 
   126     008E                     	;# 
   127     0091                     	;# 
   128     0092                     	;# 
   129     0093                     	;# 
   130     0094                     	;# 
   131     0098                     	;# 
   132     0099                     	;# 
   133     009C                     	;# 
   134     009D                     	;# 
   135     009E                     	;# 
   136     009F                     	;# 
   137     010C                     	;# 
   138     010D                     	;# 
   139     010E                     	;# 
   140     010F                     	;# 
   141     018C                     	;# 
   142     018D                     	;# 
   143     0000                     	;# 
   144     0001                     	;# 
   145     0002                     	;# 
   146     0003                     	;# 
   147     0004                     	;# 
   148     0005                     	;# 
   149     0006                     	;# 
   150     0007                     	;# 
   151     0008                     	;# 
   152     0009                     	;# 
   153     000A                     	;# 
   154     000B                     	;# 
   155     000C                     	;# 
   156     000D                     	;# 
   157     000E                     	;# 
   158     000E                     	;# 
   159     000F                     	;# 
   160     0010                     	;# 
   161     0011                     	;# 
   162     0012                     	;# 
   163     0013                     	;# 
   164     0014                     	;# 
   165     0015                     	;# 
   166     0015                     	;# 
   167     0016                     	;# 
   168     0017                     	;# 
   169     0018                     	;# 
   170     0019                     	;# 
   171     001A                     	;# 
   172     001B                     	;# 
   173     001B                     	;# 
   174     001C                     	;# 
   175     001D                     	;# 
   176     001E                     	;# 
   177     001F                     	;# 
   178     0081                     	;# 
   179     0085                     	;# 
   180     0086                     	;# 
   181     0087                     	;# 
   182     0088                     	;# 
   183     0089                     	;# 
   184     008C                     	;# 
   185     008D                     	;# 
   186     008E                     	;# 
   187     0091                     	;# 
   188     0092                     	;# 
   189     0093                     	;# 
   190     0094                     	;# 
   191     0098                     	;# 
   192     0099                     	;# 
   193     009C                     	;# 
   194     009D                     	;# 
   195     009E                     	;# 
   196     009F                     	;# 
   197     010C                     	;# 
   198     010D                     	;# 
   199     010E                     	;# 
   200     010F                     	;# 
   201     018C                     	;# 
   202     018D                     	;# 
   203     0000                     	;# 
   204     0001                     	;# 
   205     0002                     	;# 
   206     0003                     	;# 
   207     0004                     	;# 
   208     0005                     	;# 
   209     0006                     	;# 
   210     0007                     	;# 
   211     0008                     	;# 
   212     0009                     	;# 
   213     000A                     	;# 
   214     000B                     	;# 
   215     000C                     	;# 
   216     000D                     	;# 
   217     000E                     	;# 
   218     000E                     	;# 
   219     000F                     	;# 
   220     0010                     	;# 
   221     0011                     	;# 
   222     0012                     	;# 
   223     0013                     	;# 
   224     0014                     	;# 
   225     0015                     	;# 
   226     0015                     	;# 
   227     0016                     	;# 
   228     0017                     	;# 
   229     0018                     	;# 
   230     0019                     	;# 
   231     001A                     	;# 
   232     001B                     	;# 
   233     001B                     	;# 
   234     001C                     	;# 
   235     001D                     	;# 
   236     001E                     	;# 
   237     001F                     	;# 
   238     0081                     	;# 
   239     0085                     	;# 
   240     0086                     	;# 
   241     0087                     	;# 
   242     0088                     	;# 
   243     0089                     	;# 
   244     008C                     	;# 
   245     008D                     	;# 
   246     008E                     	;# 
   247     0091                     	;# 
   248     0092                     	;# 
   249     0093                     	;# 
   250     0094                     	;# 
   251     0098                     	;# 
   252     0099                     	;# 
   253     009C                     	;# 
   254     009D                     	;# 
   255     009E                     	;# 
   256     009F                     	;# 
   257     010C                     	;# 
   258     010D                     	;# 
   259     010E                     	;# 
   260     010F                     	;# 
   261     018C                     	;# 
   262     018D                     	;# 
   263     0000                     	;# 
   264     0001                     	;# 
   265     0002                     	;# 
   266     0003                     	;# 
   267     0004                     	;# 
   268     0005                     	;# 
   269     0006                     	;# 
   270     0007                     	;# 
   271     0008                     	;# 
   272     0009                     	;# 
   273     000A                     	;# 
   274     000B                     	;# 
   275     000C                     	;# 
   276     000D                     	;# 
   277     000E                     	;# 
   278     000E                     	;# 
   279     000F                     	;# 
   280     0010                     	;# 
   281     0011                     	;# 
   282     0012                     	;# 
   283     0013                     	;# 
   284     0014                     	;# 
   285     0015                     	;# 
   286     0015                     	;# 
   287     0016                     	;# 
   288     0017                     	;# 
   289     0018                     	;# 
   290     0019                     	;# 
   291     001A                     	;# 
   292     001B                     	;# 
   293     001B                     	;# 
   294     001C                     	;# 
   295     001D                     	;# 
   296     001E                     	;# 
   297     001F                     	;# 
   298     0081                     	;# 
   299     0085                     	;# 
   300     0086                     	;# 
   301     0087                     	;# 
   302     0088                     	;# 
   303     0089                     	;# 
   304     008C                     	;# 
   305     008D                     	;# 
   306     008E                     	;# 
   307     0091                     	;# 
   308     0092                     	;# 
   309     0093                     	;# 
   310     0094                     	;# 
   311     0098                     	;# 
   312     0099                     	;# 
   313     009C                     	;# 
   314     009D                     	;# 
   315     009E                     	;# 
   316     009F                     	;# 
   317     010C                     	;# 
   318     010D                     	;# 
   319     010E                     	;# 
   320     010F                     	;# 
   321     018C                     	;# 
   322     018D                     	;# 
   323     0000                     	;# 
   324     0001                     	;# 
   325     0002                     	;# 
   326     0003                     	;# 
   327     0004                     	;# 
   328     0005                     	;# 
   329     0006                     	;# 
   330     0007                     	;# 
   331     0008                     	;# 
   332     0009                     	;# 
   333     000A                     	;# 
   334     000B                     	;# 
   335     000C                     	;# 
   336     000D                     	;# 
   337     000E                     	;# 
   338     000E                     	;# 
   339     000F                     	;# 
   340     0010                     	;# 
   341     0011                     	;# 
   342     0012                     	;# 
   343     0013                     	;# 
   344     0014                     	;# 
   345     0015                     	;# 
   346     0015                     	;# 
   347     0016                     	;# 
   348     0017                     	;# 
   349     0018                     	;# 
   350     0019                     	;# 
   351     001A                     	;# 
   352     001B                     	;# 
   353     001B                     	;# 
   354     001C                     	;# 
   355     001D                     	;# 
   356     001E                     	;# 
   357     001F                     	;# 
   358     0081                     	;# 
   359     0085                     	;# 
   360     0086                     	;# 
   361     0087                     	;# 
   362     0088                     	;# 
   363     0089                     	;# 
   364     008C                     	;# 
   365     008D                     	;# 
   366     008E                     	;# 
   367     0091                     	;# 
   368     0092                     	;# 
   369     0093                     	;# 
   370     0094                     	;# 
   371     0098                     	;# 
   372     0099                     	;# 
   373     009C                     	;# 
   374     009D                     	;# 
   375     009E                     	;# 
   376     009F                     	;# 
   377     010C                     	;# 
   378     010D                     	;# 
   379     010E                     	;# 
   380     010F                     	;# 
   381     018C                     	;# 
   382     018D                     	;# 
   383     0000                     	;# 
   384     0001                     	;# 
   385     0002                     	;# 
   386     0003                     	;# 
   387     0004                     	;# 
   388     0005                     	;# 
   389     0006                     	;# 
   390     0007                     	;# 
   391     0008                     	;# 
   392     0009                     	;# 
   393     000A                     	;# 
   394     000B                     	;# 
   395     000C                     	;# 
   396     000D                     	;# 
   397     000E                     	;# 
   398     000E                     	;# 
   399     000F                     	;# 
   400     0010                     	;# 
   401     0011                     	;# 
   402     0012                     	;# 
   403     0013                     	;# 
   404     0014                     	;# 
   405     0015                     	;# 
   406     0015                     	;# 
   407     0016                     	;# 
   408     0017                     	;# 
   409     0018                     	;# 
   410     0019                     	;# 
   411     001A                     	;# 
   412     001B                     	;# 
   413     001B                     	;# 
   414     001C                     	;# 
   415     001D                     	;# 
   416     001E                     	;# 
   417     001F                     	;# 
   418     0081                     	;# 
   419     0085                     	;# 
   420     0086                     	;# 
   421     0087                     	;# 
   422     0088                     	;# 
   423     0089                     	;# 
   424     008C                     	;# 
   425     008D                     	;# 
   426     008E                     	;# 
   427     0091                     	;# 
   428     0092                     	;# 
   429     0093                     	;# 
   430     0094                     	;# 
   431     0098                     	;# 
   432     0099                     	;# 
   433     009C                     	;# 
   434     009D                     	;# 
   435     009E                     	;# 
   436     009F                     	;# 
   437     010C                     	;# 
   438     010D                     	;# 
   439     010E                     	;# 
   440     010F                     	;# 
   441     018C                     	;# 
   442     018D                     	;# 
   443                           
   444                           	psect	idataBANK0
   445     09CE                     __pidataBANK0:
   446                           
   447                           ;initializer for _DC_RANGE
   448     09CE  3410               	retlw	16
   449     09CF  3427               	retlw	39
   450                           
   451                           ;initializer for _TIME1
   452     09D0  34F0               	retlw	240
   453     09D1  34D8               	retlw	216
   454     0015                     _CCPR1	set	21
   455     000E                     _TMR1	set	14
   456     0017                     _CCP1CON	set	23
   457     0010                     _T1CON	set	16
   458     001A                     _RCREG	set	26
   459     0019                     _TXREG	set	25
   460     001E                     _ADRESH	set	30
   461     001F                     _ADCON0bits	set	31
   462     001F                     _ADCON0	set	31
   463     003A                     _RC2	set	58
   464     00B8                     _CCP1M0	set	184
   465     00B9                     _CCP1M1	set	185
   466     00BA                     _CCP1M2	set	186
   467     00BB                     _CCP1M3	set	187
   468     0065                     _RCIF	set	101
   469     0083                     _T1OSCEN	set	131
   470     0060                     _TMR1IF	set	96
   471     0080                     _TMR1ON	set	128
   472     0081                     _TMR1CS	set	129
   473     00C1                     _OERR	set	193
   474     005F                     _GIE	set	95
   475     005E                     _PEIE	set	94
   476     00C4                     _CREN	set	196
   477     00C6                     _RX9	set	198
   478     00C7                     _SPEN	set	199
   479     00FA                     _GO_DONE	set	250
   480     0099                     _SPBRG	set	153
   481     009E                     _ADRESL	set	158
   482     009F                     _ADCON1	set	159
   483     043A                     _TRISC2	set	1082
   484     0460                     _TMR1IE	set	1120
   485     04C1                     _TRMT	set	1217
   486     0465                     _RCIE	set	1125
   487     04C2                     _BRGH	set	1218
   488     04C5                     _TXEN	set	1221
   489     04C6                     _TX9	set	1222
   490     04C4                     _SYNC	set	1220
   491     043F                     _TRISC7	set	1087
   492     043E                     _TRISC6	set	1086
   493     044A                     _TRISE2	set	1098
   494     0449                     _TRISE1	set	1097
   495     0448                     _TRISE0	set	1096
   496     042D                     _TRISA5	set	1069
   497     042B                     _TRISA3	set	1067
   498     042A                     _TRISA2	set	1066
   499     0429                     _TRISA1	set	1065
   500     0428                     _TRISA0	set	1064
   501                           
   502                           	psect	strings
   503     0800                     __pstrings:
   504     0800                     stringtab:
   505     0800                     __stringtab:
   506     0800                     stringcode:	
   507                           ;	String table - string pointers are 1 byte each
   508                           
   509     0800                     stringdir:
   510     0800  3008               	movlw	high stringdir
   511     0801  008A               	movwf	10
   512     0802  0804               	movf	4,w
   513     0803  0A84               	incf	4,f
   514     0804  0782               	addwf	2,f
   515     0805                     __stringbase:
   516     0805  3400               	retlw	0
   517     0806                     __end_of__stringtab:
   518     0806                     STR_1:
   519     0806  3449               	retlw	73	;'I'
   520     0807  346E               	retlw	110	;'n'
   521     0808  3476               	retlw	118	;'v'
   522     0809  3461               	retlw	97	;'a'
   523     080A  346C               	retlw	108	;'l'
   524     080B  3469               	retlw	105	;'i'
   525     080C  3464               	retlw	100	;'d'
   526     080D  3420               	retlw	32	;' '
   527     080E  3469               	retlw	105	;'i'
   528     080F  346E               	retlw	110	;'n'
   529     0810  3470               	retlw	112	;'p'
   530     0811  3475               	retlw	117	;'u'
   531     0812  3474               	retlw	116	;'t'
   532     0813  3421               	retlw	33	;'!'
   533     0814  340D               	retlw	13
   534     0815  340A               	retlw	10
   535     0816  3400               	retlw	0
   536     0817                     STR_2:
   537     0817  3443               	retlw	67	;'C'
   538     0818  346F               	retlw	111	;'o'
   539     0819  346D               	retlw	109	;'m'
   540     081A  3470               	retlw	112	;'p'
   541     081B  346C               	retlw	108	;'l'
   542     081C  3465               	retlw	101	;'e'
   543     081D  3474               	retlw	116	;'t'
   544     081E  3465               	retlw	101	;'e'
   545     081F  3464               	retlw	100	;'d'
   546     0820  3421               	retlw	33	;'!'
   547     0821  340D               	retlw	13
   548     0822  340A               	retlw	10
   549     0823  3400               	retlw	0
   550                           
   551                           	psect	cinit
   552     0015                     start_initialization:	
   553                           ; #config settings
   554                           
   555     0015                     __initialization:
   556                           
   557                           ; Initialize objects allocated to BANK0
   558     0015  120A  158A  21CE  120A  118A  	fcall	__pidataBANK0	;fetch initializer
   559     001A  00E0               	movwf	__pdataBANK0& (0+127)
   560     001B  120A  158A  21CF  120A  118A  	fcall	__pidataBANK0+1	;fetch initializer
   561     0020  00E1               	movwf	(__pdataBANK0+1)& (0+127)
   562     0021  120A  158A  21D0  120A  118A  	fcall	__pidataBANK0+2	;fetch initializer
   563     0026  00E2               	movwf	(__pdataBANK0+2)& (0+127)
   564     0027  120A  158A  21D1  120A  118A  	fcall	__pidataBANK0+3	;fetch initializer
   565     002C  00E3               	movwf	(__pdataBANK0+3)& (0+127)
   566                           
   567                           ; Clear objects allocated to BANK1
   568     002D  1683               	bsf	3,5	;RP0=1, select bank1
   569     002E  1303               	bcf	3,6	;RP1=0, select bank1
   570     002F  01EF               	clrf	__pbssBANK1& (0+127)
   571                           
   572                           ; Clear objects allocated to BANK0
   573     0030  1283               	bcf	3,5	;RP0=0, select bank0
   574     0031  1303               	bcf	3,6	;RP1=0, select bank0
   575     0032  01DB               	clrf	__pbssBANK0& (0+127)
   576     0033  01DC               	clrf	(__pbssBANK0+1)& (0+127)
   577     0034  01DD               	clrf	(__pbssBANK0+2)& (0+127)
   578     0035  01DE               	clrf	(__pbssBANK0+3)& (0+127)
   579     0036  01DF               	clrf	(__pbssBANK0+4)& (0+127)
   580     0037                     end_of_initialization:	
   581                           ;End of C runtime variable initialization code
   582                           
   583     0037                     __end_of__initialization:
   584     0037  0183               	clrf	3
   585     0038  120A  158A  2ACA   	ljmp	_main	;jump to C main() function
   586                           
   587                           	psect	bssBANK0
   588     005B                     __pbssBANK0:
   589     005B                     _uart_str_idx@PIC16F877A_UART$F183:
   590     005B                     	ds	2
   591     005D                     _uart_str_idx:
   592     005D                     	ds	2
   593     005F                     _mode:
   594     005F                     	ds	1
   595                           
   596                           	psect	dataBANK0
   597     0060                     __pdataBANK0:
   598     0060                     _DC_RANGE:
   599     0060                     	ds	2
   600     0062                     _TIME1:
   601     0062                     	ds	2
   602                           
   603                           	psect	bssBANK1
   604     00EF                     __pbssBANK1:
   605     00EF                     _adc_channels:
   606     00EF                     	ds	1
   607                           
   608                           	psect	cstackBANK3
   609     0190                     __pcstackBANK3:
   610     0190                     ??_main:
   611                           
   612                           ; 1 bytes @ 0x0
   613     0190                     	ds	3
   614                           
   615                           	psect	cstackBANK1
   616     00A0                     __pcstackBANK1:
   617     00A0                     ?_ADC_setInput:
   618     00A0                     ??_UARTTransRcvInit:	
   619                           ; 1 bytes @ 0x0
   620                           
   621     00A0                     ??_timer1TimerInit:	
   622                           ; 1 bytes @ 0x0
   623                           
   624     00A0                     ?__Umul8_16:	
   625                           ; 1 bytes @ 0x0
   626                           
   627     00A0                     ?_ADC_Read:	
   628                           ; 2 bytes @ 0x0
   629                           
   630     00A0                     ?___wmul:	
   631                           ; 2 bytes @ 0x0
   632                           
   633     00A0                     ?___lwdiv:	
   634                           ; 2 bytes @ 0x0
   635                           
   636     00A0                     ADC_setInput@len:	
   637                           ; 2 bytes @ 0x0
   638                           
   639     00A0                     __Umul8_16@multiplicand:	
   640                           ; 1 bytes @ 0x0
   641                           
   642     00A0                     ___wmul@multiplier:	
   643                           ; 1 bytes @ 0x0
   644                           
   645     00A0                     ___lwdiv@divisor:	
   646                           ; 2 bytes @ 0x0
   647                           
   648                           
   649                           ; 2 bytes @ 0x0
   650     00A0                     	ds	1
   651     00A1                     ??_ADC_setInput:
   652     00A1                     timer1TimerInit@prescaler:	
   653                           ; 1 bytes @ 0x1
   654                           
   655                           
   656                           ; 1 bytes @ 0x1
   657     00A1                     	ds	1
   658     00A2                     ??__Umul8_16:
   659     00A2                     ??_ADC_Read:	
   660                           ; 1 bytes @ 0x2
   661                           
   662     00A2                     ___wmul@multiplicand:	
   663                           ; 1 bytes @ 0x2
   664                           
   665     00A2                     ___lwdiv@dividend:	
   666                           ; 2 bytes @ 0x2
   667                           
   668                           
   669                           ; 2 bytes @ 0x2
   670     00A2                     	ds	1
   671     00A3                     ADC_Read@adc_channel:
   672                           
   673                           ; 1 bytes @ 0x3
   674     00A3                     	ds	1
   675     00A4                     ??___wmul:
   676     00A4                     ??___lwdiv:	
   677                           ; 1 bytes @ 0x4
   678                           
   679     00A4                     ADC_setInput@adc_channel:	
   680                           ; 1 bytes @ 0x4
   681                           
   682     00A4                     ___wmul@product:	
   683                           ; 1 bytes @ 0x4
   684                           
   685     00A4                     ___lwdiv@quotient:	
   686                           ; 2 bytes @ 0x4
   687                           
   688     00A4                     __Umul8_16@product:	
   689                           ; 2 bytes @ 0x4
   690                           
   691                           
   692                           ; 2 bytes @ 0x4
   693     00A4                     	ds	1
   694     00A5                     ADC_setInput@i:
   695                           
   696                           ; 1 bytes @ 0x5
   697     00A5                     	ds	1
   698     00A6                     ?_ADC_Init:
   699     00A6                     ?___xxtofl:	
   700                           ; 1 bytes @ 0x6
   701                           
   702     00A6                     ADC_Init@len:	
   703                           ; 4 bytes @ 0x6
   704                           
   705     00A6                     ___lwdiv@counter:	
   706                           ; 1 bytes @ 0x6
   707                           
   708     00A6                     __Umul8_16@word_mpld:	
   709                           ; 1 bytes @ 0x6
   710                           
   711     00A6                     ___xxtofl@val:	
   712                           ; 2 bytes @ 0x6
   713                           
   714                           
   715                           ; 4 bytes @ 0x6
   716     00A6                     	ds	1
   717     00A7                     ??_ADC_Init:
   718     00A7                     ??_compareInit:	
   719                           ; 1 bytes @ 0x7
   720                           
   721     00A7                     ADC_Init@adc_channel:	
   722                           ; 1 bytes @ 0x7
   723                           
   724                           
   725                           ; 1 bytes @ 0x7
   726     00A7                     	ds	1
   727     00A8                     __Umul8_16@multiplier:
   728                           
   729                           ; 1 bytes @ 0x8
   730     00A8                     	ds	1
   731     00A9                     ??_servoInit:
   732                           
   733                           ; 1 bytes @ 0x9
   734     00A9                     	ds	1
   735     00AA                     ??___xxtofl:
   736                           
   737                           ; 1 bytes @ 0xA
   738     00AA                     	ds	4
   739     00AE                     ___xxtofl@sign:
   740                           
   741                           ; 1 bytes @ 0xE
   742     00AE                     	ds	1
   743     00AF                     ___xxtofl@exp:
   744                           
   745                           ; 1 bytes @ 0xF
   746     00AF                     	ds	1
   747     00B0                     ___xxtofl@arg:
   748                           
   749                           ; 4 bytes @ 0x10
   750     00B0                     	ds	4
   751     00B4                     ?___fldiv:
   752     00B4                     ___fldiv@a:	
   753                           ; 4 bytes @ 0x14
   754                           
   755                           
   756                           ; 4 bytes @ 0x14
   757     00B4                     	ds	4
   758     00B8                     ___fldiv@b:
   759                           
   760                           ; 4 bytes @ 0x18
   761     00B8                     	ds	4
   762     00BC                     ??___fldiv:
   763                           
   764                           ; 1 bytes @ 0x1C
   765     00BC                     	ds	5
   766     00C1                     ___fldiv@rem:
   767                           
   768                           ; 4 bytes @ 0x21
   769     00C1                     	ds	4
   770     00C5                     ___fldiv@sign:
   771                           
   772                           ; 1 bytes @ 0x25
   773     00C5                     	ds	1
   774     00C6                     ___fldiv@new_exp:
   775                           
   776                           ; 2 bytes @ 0x26
   777     00C6                     	ds	2
   778     00C8                     ___fldiv@grs:
   779                           
   780                           ; 4 bytes @ 0x28
   781     00C8                     	ds	4
   782     00CC                     ___fldiv@bexp:
   783                           
   784                           ; 1 bytes @ 0x2C
   785     00CC                     	ds	1
   786     00CD                     ___fldiv@aexp:
   787                           
   788                           ; 1 bytes @ 0x2D
   789     00CD                     	ds	1
   790     00CE                     ?___fltol:
   791     00CE                     ?___flmul:	
   792                           ; 4 bytes @ 0x2E
   793                           
   794     00CE                     ___fltol@f1:	
   795                           ; 4 bytes @ 0x2E
   796                           
   797     00CE                     ___flmul@b:	
   798                           ; 4 bytes @ 0x2E
   799                           
   800                           
   801                           ; 4 bytes @ 0x2E
   802     00CE                     	ds	4
   803     00D2                     ??___fltol:
   804     00D2                     ___flmul@a:	
   805                           ; 1 bytes @ 0x32
   806                           
   807                           
   808                           ; 4 bytes @ 0x32
   809     00D2                     	ds	4
   810     00D6                     ??___flmul:
   811     00D6                     ___fltol@sign1:	
   812                           ; 1 bytes @ 0x36
   813                           
   814                           
   815                           ; 1 bytes @ 0x36
   816     00D6                     	ds	1
   817     00D7                     ___fltol@exp1:
   818                           
   819                           ; 1 bytes @ 0x37
   820     00D7                     	ds	1
   821     00D8                     ??_servoAngle:
   822                           
   823                           ; 1 bytes @ 0x38
   824     00D8                     	ds	3
   825     00DB                     ___flmul@sign:
   826                           
   827                           ; 1 bytes @ 0x3B
   828     00DB                     	ds	1
   829     00DC                     ___flmul@grs:
   830                           
   831                           ; 4 bytes @ 0x3C
   832     00DC                     	ds	4
   833     00E0                     ___flmul@aexp:
   834     00E0                     servoAngle@duty_cycle:	
   835                           ; 1 bytes @ 0x40
   836                           
   837                           
   838                           ; 2 bytes @ 0x40
   839     00E0                     	ds	1
   840     00E1                     ___flmul@bexp:
   841                           
   842                           ; 1 bytes @ 0x41
   843     00E1                     	ds	1
   844     00E2                     servoAngle@angle:
   845     00E2                     ___flmul@prod:	
   846                           ; 1 bytes @ 0x42
   847                           
   848                           
   849                           ; 4 bytes @ 0x42
   850     00E2                     	ds	4
   851     00E6                     ___flmul@temp:
   852                           
   853                           ; 2 bytes @ 0x46
   854     00E6                     	ds	2
   855     00E8                     ??_adcPosControl:
   856     00E8                     adcPosControl@adc_val:	
   857                           ; 1 bytes @ 0x48
   858                           
   859                           
   860                           ; 4 bytes @ 0x48
   861     00E8                     	ds	4
   862     00EC                     adcPosControl@pot_value:
   863                           
   864                           ; 2 bytes @ 0x4C
   865     00EC                     	ds	2
   866     00EE                     adcPosControl@adc_angle:
   867                           
   868                           ; 1 bytes @ 0x4E
   869     00EE                     	ds	1
   870                           
   871                           	psect	cstackCOMMON
   872     0070                     __pcstackCOMMON:
   873     0070                     ?_servoShiftHigh:
   874     0070                     ??_servoShiftHigh:	
   875                           ; 1 bytes @ 0x0
   876                           
   877     0070                     ?_positionControl:	
   878                           ; 1 bytes @ 0x0
   879                           
   880     0070                     ?_servoInit:	
   881                           ; 1 bytes @ 0x0
   882                           
   883     0070                     ?_adcPosControl:	
   884                           ; 1 bytes @ 0x0
   885                           
   886     0070                     ?_servoAngle:	
   887                           ; 1 bytes @ 0x0
   888                           
   889     0070                     ?_UARTTransRcvInit:	
   890                           ; 1 bytes @ 0x0
   891                           
   892     0070                     ?_UARTsendChar:	
   893                           ; 1 bytes @ 0x0
   894                           
   895     0070                     ??_UARTsendChar:	
   896                           ; 1 bytes @ 0x0
   897                           
   898     0070                     ?_UARTsendString:	
   899                           ; 1 bytes @ 0x0
   900                           
   901     0070                     ?_UARTrcvChar:	
   902                           ; 1 bytes @ 0x0
   903                           
   904     0070                     ??_UARTrcvChar:	
   905                           ; 1 bytes @ 0x0
   906                           
   907     0070                     ?_timer1TimerInit:	
   908                           ; 1 bytes @ 0x0
   909                           
   910     0070                     ?_ISR:	
   911                           ; 1 bytes @ 0x0
   912                           
   913     0070                     ?_main:	
   914                           ; 1 bytes @ 0x0
   915                           
   916     0070                     ?_compareInit:	
   917                           ; 1 bytes @ 0x0
   918                           
   919     0070                     ?i1_servoAngle:	
   920                           ; 1 bytes @ 0x0
   921                           
   922     0070                     ?i1___wmul:	
   923                           ; 1 bytes @ 0x0
   924                           
   925     0070                     ?i1___lwdiv:	
   926                           ; 2 bytes @ 0x0
   927                           
   928     0070                     UARTsendChar@c:	
   929                           ; 2 bytes @ 0x0
   930                           
   931     0070                     UARTrcvChar@c:	
   932                           ; 1 bytes @ 0x0
   933                           
   934     0070                     i1___wmul@multiplier:	
   935                           ; 1 bytes @ 0x0
   936                           
   937     0070                     i1___lwdiv@divisor:	
   938                           ; 2 bytes @ 0x0
   939                           
   940                           
   941                           ; 2 bytes @ 0x0
   942     0070                     	ds	1
   943     0071                     ??_UARTsendString:
   944     0071                     UARTsendString@i:	
   945                           ; 1 bytes @ 0x1
   946                           
   947                           
   948                           ; 2 bytes @ 0x1
   949     0071                     	ds	1
   950     0072                     i1___wmul@multiplicand:
   951     0072                     i1___lwdiv@dividend:	
   952                           ; 2 bytes @ 0x2
   953                           
   954                           
   955                           ; 2 bytes @ 0x2
   956     0072                     	ds	1
   957     0073                     UARTsendString@str:
   958                           
   959                           ; 1 bytes @ 0x3
   960     0073                     	ds	1
   961     0074                     ??i1___wmul:
   962     0074                     ??i1___lwdiv:	
   963                           ; 1 bytes @ 0x4
   964                           
   965     0074                     i1___wmul@product:	
   966                           ; 1 bytes @ 0x4
   967                           
   968     0074                     i1___lwdiv@quotient:	
   969                           ; 2 bytes @ 0x4
   970                           
   971                           
   972                           ; 2 bytes @ 0x4
   973     0074                     	ds	2
   974     0076                     ?i1___xxtofl:
   975     0076                     i1___lwdiv@counter:	
   976                           ; 4 bytes @ 0x6
   977                           
   978     0076                     i1___xxtofl@val:	
   979                           ; 1 bytes @ 0x6
   980                           
   981                           
   982                           ; 4 bytes @ 0x6
   983     0076                     	ds	4
   984     007A                     ??i1___xxtofl:
   985                           
   986                           ; 1 bytes @ 0xA
   987     007A                     	ds	4
   988     007E                     ??_positionControl:
   989                           
   990                           	psect	cstackBANK0
   991     0020                     __pcstackBANK0:	
   992                           ; 1 bytes @ 0xE
   993                           
   994     0020                     i1___xxtofl@sign:
   995                           
   996                           ; 1 bytes @ 0x0
   997     0020                     	ds	1
   998     0021                     i1___xxtofl@exp:
   999                           
  1000                           ; 1 bytes @ 0x1
  1001     0021                     	ds	1
  1002     0022                     i1___xxtofl@arg:
  1003                           
  1004                           ; 4 bytes @ 0x2
  1005     0022                     	ds	4
  1006     0026                     ?i1___fldiv:
  1007     0026                     i1___fldiv@a:	
  1008                           ; 4 bytes @ 0x6
  1009                           
  1010                           
  1011                           ; 4 bytes @ 0x6
  1012     0026                     	ds	4
  1013     002A                     i1___fldiv@b:
  1014                           
  1015                           ; 4 bytes @ 0xA
  1016     002A                     	ds	4
  1017     002E                     ??i1___fldiv:
  1018                           
  1019                           ; 1 bytes @ 0xE
  1020     002E                     	ds	5
  1021     0033                     i1___fldiv@rem:
  1022                           
  1023                           ; 4 bytes @ 0x13
  1024     0033                     	ds	4
  1025     0037                     i1___fldiv@sign:
  1026                           
  1027                           ; 1 bytes @ 0x17
  1028     0037                     	ds	1
  1029     0038                     i1___fldiv@new_exp:
  1030                           
  1031                           ; 2 bytes @ 0x18
  1032     0038                     	ds	2
  1033     003A                     i1___fldiv@grs:
  1034                           
  1035                           ; 4 bytes @ 0x1A
  1036     003A                     	ds	4
  1037     003E                     i1___fldiv@bexp:
  1038                           
  1039                           ; 1 bytes @ 0x1E
  1040     003E                     	ds	1
  1041     003F                     i1___fldiv@aexp:
  1042                           
  1043                           ; 1 bytes @ 0x1F
  1044     003F                     	ds	1
  1045     0040                     ?i1___fltol:
  1046     0040                     i1___fltol@f1:	
  1047                           ; 4 bytes @ 0x20
  1048                           
  1049                           
  1050                           ; 4 bytes @ 0x20
  1051     0040                     	ds	4
  1052     0044                     ??i1___fltol:
  1053                           
  1054                           ; 1 bytes @ 0x24
  1055     0044                     	ds	4
  1056     0048                     i1___fltol@sign1:
  1057                           
  1058                           ; 1 bytes @ 0x28
  1059     0048                     	ds	1
  1060     0049                     i1___fltol@exp1:
  1061                           
  1062                           ; 1 bytes @ 0x29
  1063     0049                     	ds	1
  1064     004A                     ??i1_servoAngle:
  1065                           
  1066                           ; 1 bytes @ 0x2A
  1067     004A                     	ds	8
  1068     0052                     i1servoAngle@duty_cycle:
  1069                           
  1070                           ; 2 bytes @ 0x32
  1071     0052                     	ds	2
  1072     0054                     i1servoAngle@angle:
  1073                           
  1074                           ; 1 bytes @ 0x34
  1075     0054                     	ds	1
  1076     0055                     positionControl@com:
  1077                           
  1078                           ; 1 bytes @ 0x35
  1079     0055                     	ds	1
  1080     0056                     ??_ISR:
  1081                           
  1082                           ; 1 bytes @ 0x36
  1083     0056                     	ds	4
  1084     005A                     ISR@command:
  1085                           
  1086                           ; 1 bytes @ 0x3A
  1087     005A                     	ds	1
  1088                           
  1089                           	psect	maintext
  1090     0ACA                     __pmaintext:	
  1091 ;;
  1092 ;;Main: autosize = 0, tempsize = 3, incstack = 0, save=0
  1093 ;;
  1094 ;; *************** function _main *****************
  1095 ;; Defined at:
  1096 ;;		line 51 in file "PIC16F877A_ServoMotor_Compare.c"
  1097 ;; Parameters:    Size  Location     Type
  1098 ;;		None
  1099 ;; Auto vars:     Size  Location     Type
  1100 ;;		None
  1101 ;; Return value:  Size  Location     Type
  1102 ;;                  1    wreg      void 
  1103 ;; Registers used:
  1104 ;;		wreg, fsr0l, fsr0h, status,2, status,0, btemp+1, pclath, cstack
  1105 ;; Tracked objects:
  1106 ;;		On entry : B00/0
  1107 ;;		On exit  : 0/0
  1108 ;;		Unchanged: 0/0
  1109 ;; Data sizes:     COMMON   BANK0   BANK1   BANK3   BANK2
  1110 ;;      Params:         0       0       0       0       0
  1111 ;;      Locals:         0       0       0       0       0
  1112 ;;      Temps:          0       0       0       3       0
  1113 ;;      Totals:         0       0       0       3       0
  1114 ;;Total ram usage:        3 bytes
  1115 ;; Hardware stack levels required when called: 7
  1116 ;; This function calls:
  1117 ;;		_ADC_Init
  1118 ;;		_UARTTransRcvInit
  1119 ;;		_adcPosControl
  1120 ;;		_servoInit
  1121 ;; This function is called by:
  1122 ;;		Startup code after reset
  1123 ;; This function uses a non-reentrant model
  1124 ;;
  1125                           
  1126     0ACA                     _main:	
  1127                           ;psect for function _main
  1128                           
  1129     0ACA                     l2700:	
  1130                           ;incstack = 0
  1131                           ; Regs used in _main: [wreg-fsr0h+status,2+status,0+btemp+1+pclath+cstack]
  1132                           
  1133                           
  1134                           ;PIC16F877A_ServoMotor_Compare.c: 53:     UARTTransRcvInit();
  1135     0ACA  120A  158A  223A  120A  158A  	fcall	_UARTTransRcvInit
  1136     0ACF                     l2702:
  1137                           
  1138                           ;PIC16F877A_ServoMotor_Compare.c: 55:     ADC_Init(adc_channels, 1);
  1139     0ACF  1683               	bsf	3,5	;RP0=1, select bank1
  1140     0AD0  1303               	bcf	3,6	;RP1=0, select bank1
  1141     0AD1  01A6               	clrf	ADC_Init@len^(0+128)
  1142     0AD2  0AA6               	incf	ADC_Init@len^(0+128),f
  1143     0AD3  30EF               	movlw	(low (_adc_channels| 0))& (0+255)
  1144     0AD4  120A  158A  21F5  120A  158A  	fcall	_ADC_Init
  1145     0AD9                     l2704:
  1146                           
  1147                           ;PIC16F877A_ServoMotor_Compare.c: 57:     servoInit();
  1148     0AD9  120A  158A  2209  120A  158A  	fcall	_servoInit
  1149     0ADE                     l2706:
  1150                           
  1151                           ;PIC16F877A_ServoMotor_Compare.c: 61:     {;PIC16F877A_ServoMotor_Compare.c: 62:        
      +                           if(mode == 0){
  1152     0ADE  1283               	bcf	3,5	;RP0=0, select bank0
  1153     0ADF  1303               	bcf	3,6	;RP1=0, select bank0
  1154     0AE0  085F               	movf	_mode,w
  1155     0AE1  1D03               	btfss	3,2
  1156     0AE2  2AE4               	goto	u3851
  1157     0AE3  2AE5               	goto	u3850
  1158     0AE4                     u3851:
  1159     0AE4  2ADE               	goto	l2706
  1160     0AE5                     u3850:
  1161     0AE5                     l2708:
  1162                           
  1163                           ;PIC16F877A_ServoMotor_Compare.c: 63:             adcPosControl();
  1164     0AE5  120A  158A  2472  120A  158A  	fcall	_adcPosControl
  1165     0AEA                     l2710:
  1166                           
  1167                           ;PIC16F877A_ServoMotor_Compare.c: 64:             _delay((unsigned long)((250)*(16000000
      +                          /4000.0)));
  1168     0AEA  3006               	movlw	6
  1169     0AEB  1683               	bsf	3,5	;RP0=1, select bank3
  1170     0AEC  1703               	bsf	3,6	;RP1=1, select bank3
  1171     0AED  0092               	movwf	(??_main^(0+384)+2)
  1172     0AEE  3013               	movlw	19
  1173     0AEF  0091               	movwf	(??_main^(0+384)+1)
  1174     0AF0  30AD               	movlw	173
  1175     0AF1  0090               	movwf	??_main^(0+384)
  1176     0AF2                     u3867:
  1177     0AF2  0B90               	decfsz	??_main^(0+384),f
  1178     0AF3  2AF2               	goto	u3867
  1179     0AF4  0B91               	decfsz	(??_main^(0+384)+1),f
  1180     0AF5  2AF2               	goto	u3867
  1181     0AF6  0B92               	decfsz	(??_main^(0+384)+2),f
  1182     0AF7  2AF2               	goto	u3867
  1183     0AF8  2ADE               	goto	l2706
  1184     0AF9  120A  118A  2812   	ljmp	start
  1185     0AFC                     __end_of_main:
  1186                           
  1187                           	psect	text1
  1188     0A09                     __ptext1:	
  1189 ;; *************** function _servoInit *****************
  1190 ;; Defined at:
  1191 ;;		line 16 in file "ServoMotor_Compare.c"
  1192 ;; Parameters:    Size  Location     Type
  1193 ;;		None
  1194 ;; Auto vars:     Size  Location     Type
  1195 ;;		None
  1196 ;; Return value:  Size  Location     Type
  1197 ;;                  1    wreg      void 
  1198 ;; Registers used:
  1199 ;;		wreg, status,2, status,0, btemp+1, pclath, cstack
  1200 ;; Tracked objects:
  1201 ;;		On entry : 0/0
  1202 ;;		On exit  : 0/0
  1203 ;;		Unchanged: 0/0
  1204 ;; Data sizes:     COMMON   BANK0   BANK1   BANK3   BANK2
  1205 ;;      Params:         0       0       0       0       0
  1206 ;;      Locals:         0       0       0       0       0
  1207 ;;      Temps:          0       0       0       0       0
  1208 ;;      Totals:         0       0       0       0       0
  1209 ;;Total ram usage:        0 bytes
  1210 ;; Hardware stack levels used: 1
  1211 ;; Hardware stack levels required when called: 6
  1212 ;; This function calls:
  1213 ;;		_compareInit
  1214 ;;		_timer1TimerInit
  1215 ;; This function is called by:
  1216 ;;		_main
  1217 ;; This function uses a non-reentrant model
  1218 ;;
  1219                           
  1220     0A09                     _servoInit:	
  1221                           ;psect for function _servoInit
  1222                           
  1223     0A09                     l2646:	
  1224                           ;incstack = 0
  1225                           ; Regs used in _servoInit: [wreg+status,2+status,0+btemp+1+pclath+cstack]
  1226                           
  1227                           
  1228                           ;ServoMotor_Compare.c: 19:     TRISC2 = 0;
  1229     0A09  1683               	bsf	3,5	;RP0=1, select bank1
  1230     0A0A  1303               	bcf	3,6	;RP1=0, select bank1
  1231     0A0B  1107               	bcf	7,2	;volatile
  1232                           
  1233                           ;ServoMotor_Compare.c: 20:     RC2 = 1;
  1234     0A0C  1283               	bcf	3,5	;RP0=0, select bank0
  1235     0A0D  1303               	bcf	3,6	;RP1=0, select bank0
  1236     0A0E  1507               	bsf	7,2	;volatile
  1237     0A0F                     l2648:
  1238                           
  1239                           ;ServoMotor_Compare.c: 22:     TMR1 = TIME1;
  1240     0A0F  0863               	movf	_TIME1+1,w
  1241     0A10  008F               	movwf	15	;volatile
  1242     0A11  0862               	movf	_TIME1,w
  1243     0A12  008E               	movwf	14	;volatile
  1244     0A13                     l2650:
  1245                           
  1246                           ;ServoMotor_Compare.c: 23:     timer1TimerInit(TIMER1_DIV_8);
  1247     0A13  3003               	movlw	3
  1248     0A14  120A  158A  221F  120A  158A  	fcall	_timer1TimerInit
  1249     0A19                     l2652:
  1250                           
  1251                           ;ServoMotor_Compare.c: 25:     compareInit();
  1252     0A19  120A  158A  2368  120A  158A  	fcall	_compareInit
  1253     0A1E                     l257:
  1254     0A1E  0008               	return
  1255     0A1F                     __end_of_servoInit:
  1256                           
  1257                           	psect	text2
  1258     0A1F                     __ptext2:	
  1259 ;; *************** function _timer1TimerInit *****************
  1260 ;; Defined at:
  1261 ;;		line 4 in file "PIC16F877A_timer_1.c"
  1262 ;; Parameters:    Size  Location     Type
  1263 ;;  prescaler       1    wreg     unsigned char 
  1264 ;; Auto vars:     Size  Location     Type
  1265 ;;  prescaler       1    1[BANK1 ] unsigned char 
  1266 ;; Return value:  Size  Location     Type
  1267 ;;                  1    wreg      void 
  1268 ;; Registers used:
  1269 ;;		wreg, status,2, status,0, btemp+1
  1270 ;; Tracked objects:
  1271 ;;		On entry : 0/0
  1272 ;;		On exit  : 0/0
  1273 ;;		Unchanged: 0/0
  1274 ;; Data sizes:     COMMON   BANK0   BANK1   BANK3   BANK2
  1275 ;;      Params:         0       0       0       0       0
  1276 ;;      Locals:         0       0       1       0       0
  1277 ;;      Temps:          0       0       1       0       0
  1278 ;;      Totals:         0       0       2       0       0
  1279 ;;Total ram usage:        2 bytes
  1280 ;; Hardware stack levels used: 1
  1281 ;; Hardware stack levels required when called: 4
  1282 ;; This function calls:
  1283 ;;		Nothing
  1284 ;; This function is called by:
  1285 ;;		_servoInit
  1286 ;; This function uses a non-reentrant model
  1287 ;;
  1288                           
  1289     0A1F                     _timer1TimerInit:	
  1290                           ;psect for function _timer1TimerInit
  1291                           
  1292                           
  1293                           ;incstack = 0
  1294                           ; Regs used in _timer1TimerInit: [wreg+status,2+status,0+btemp+1]
  1295                           ;timer1TimerInit@prescaler stored from wreg
  1296     0A1F  1683               	bsf	3,5	;RP0=1, select bank1
  1297     0A20  1303               	bcf	3,6	;RP1=0, select bank1
  1298     0A21  00A1               	movwf	timer1TimerInit@prescaler^(0+128)
  1299     0A22                     l2408:
  1300                           
  1301                           ;PIC16F877A_timer_1.c: 4: void timer1TimerInit(uint8_t prescaler);PIC16F877A_timer_1.c: 
      +                          5: {;PIC16F877A_timer_1.c: 7:     T1CON |= prescaler << 4;
  1302     0A22  0821               	movf	timer1TimerInit@prescaler^(0+128),w	;volatile
  1303     0A23  00A0               	movwf	??_timer1TimerInit^(0+128)
  1304     0A24  3003               	movlw	3
  1305     0A25                     u3325:
  1306     0A25  1003               	clrc
  1307     0A26  0DA0               	rlf	??_timer1TimerInit^(0+128),f
  1308     0A27  3EFF               	addlw	-1
  1309     0A28  1D03               	skipz
  1310     0A29  2A25               	goto	u3325
  1311     0A2A  1003               	clrc
  1312     0A2B  0D20               	rlf	??_timer1TimerInit^(0+128),w
  1313     0A2C  00FF               	movwf	btemp+1
  1314     0A2D  087F               	movf	btemp+1,w
  1315     0A2E  1283               	bcf	3,5	;RP0=0, select bank0
  1316     0A2F  1303               	bcf	3,6	;RP1=0, select bank0
  1317     0A30  0490               	iorwf	16,f	;volatile
  1318     0A31                     l2410:
  1319                           
  1320                           ;PIC16F877A_timer_1.c: 9:     TMR1CS = 0;
  1321     0A31  1090               	bcf	16,1	;volatile
  1322     0A32                     l2412:
  1323                           
  1324                           ;PIC16F877A_timer_1.c: 11:     TMR1ON = 1;
  1325     0A32  1410               	bsf	16,0	;volatile
  1326     0A33                     l2414:
  1327                           
  1328                           ;PIC16F877A_timer_1.c: 13:     TMR1IF = 0;
  1329     0A33  100C               	bcf	12,0	;volatile
  1330     0A34                     l2416:
  1331                           
  1332                           ;PIC16F877A_timer_1.c: 14:     TMR1IE = 1;
  1333     0A34  1683               	bsf	3,5	;RP0=1, select bank1
  1334     0A35  1303               	bcf	3,6	;RP1=0, select bank1
  1335     0A36  140C               	bsf	12,0	;volatile
  1336     0A37                     l2418:
  1337                           
  1338                           ;PIC16F877A_timer_1.c: 15:     PEIE = 1;
  1339     0A37  170B               	bsf	11,6	;volatile
  1340     0A38                     l2420:
  1341                           
  1342                           ;PIC16F877A_timer_1.c: 16:     GIE = 1;
  1343     0A38  178B               	bsf	11,7	;volatile
  1344     0A39                     l147:
  1345     0A39  0008               	return
  1346     0A3A                     __end_of_timer1TimerInit:
  1347                           
  1348                           	psect	text3
  1349     0B68                     __ptext3:	
  1350 ;; *************** function _compareInit *****************
  1351 ;; Defined at:
  1352 ;;		line 4 in file "ServoMotor_Compare.c"
  1353 ;; Parameters:    Size  Location     Type
  1354 ;;		None
  1355 ;; Auto vars:     Size  Location     Type
  1356 ;;		None
  1357 ;; Return value:  Size  Location     Type
  1358 ;;                  1    wreg      void 
  1359 ;; Registers used:
  1360 ;;		wreg, status,2, status,0, btemp+1, pclath, cstack
  1361 ;; Tracked objects:
  1362 ;;		On entry : 0/0
  1363 ;;		On exit  : 0/0
  1364 ;;		Unchanged: 0/0
  1365 ;; Data sizes:     COMMON   BANK0   BANK1   BANK3   BANK2
  1366 ;;      Params:         0       0       0       0       0
  1367 ;;      Locals:         0       0       0       0       0
  1368 ;;      Temps:          0       0       2       0       0
  1369 ;;      Totals:         0       0       2       0       0
  1370 ;;Total ram usage:        2 bytes
  1371 ;; Hardware stack levels used: 1
  1372 ;; Hardware stack levels required when called: 5
  1373 ;; This function calls:
  1374 ;;		___lwdiv
  1375 ;; This function is called by:
  1376 ;;		_servoInit
  1377 ;; This function uses a non-reentrant model
  1378 ;;
  1379                           
  1380     0B68                     _compareInit:	
  1381                           ;psect for function _compareInit
  1382                           
  1383     0B68                     l2428:	
  1384                           ;incstack = 0
  1385                           ; Regs used in _compareInit: [wreg+status,2+status,0+btemp+1+pclath+cstack]
  1386                           
  1387                           
  1388                           ;ServoMotor_Compare.c: 7:     CCP1M3 = 1;
  1389     0B68  1283               	bcf	3,5	;RP0=0, select bank0
  1390     0B69  1303               	bcf	3,6	;RP1=0, select bank0
  1391     0B6A  1597               	bsf	23,3	;volatile
  1392                           
  1393                           ;ServoMotor_Compare.c: 8:     CCP1M2 = 0;
  1394     0B6B  1117               	bcf	23,2	;volatile
  1395                           
  1396                           ;ServoMotor_Compare.c: 9:     CCP1M1 = 0;
  1397     0B6C  1097               	bcf	23,1	;volatile
  1398                           
  1399                           ;ServoMotor_Compare.c: 10:     CCP1M0 = 1;
  1400     0B6D  1417               	bsf	23,0	;volatile
  1401     0B6E                     l2430:
  1402                           
  1403                           ;ServoMotor_Compare.c: 12:     CCPR1 = TIME1 + (DC_RANGE / 20);
  1404     0B6E  3014               	movlw	20
  1405     0B6F  1683               	bsf	3,5	;RP0=1, select bank1
  1406     0B70  1303               	bcf	3,6	;RP1=0, select bank1
  1407     0B71  00A0               	movwf	___lwdiv@divisor^(0+128)
  1408     0B72  3000               	movlw	0
  1409     0B73  00A1               	movwf	(___lwdiv@divisor^(0+128)+1)
  1410     0B74  1283               	bcf	3,5	;RP0=0, select bank0
  1411     0B75  1303               	bcf	3,6	;RP1=0, select bank0
  1412     0B76  0861               	movf	_DC_RANGE+1,w
  1413     0B77  1683               	bsf	3,5	;RP0=1, select bank1
  1414     0B78  1303               	bcf	3,6	;RP1=0, select bank1
  1415     0B79  00A3               	movwf	(___lwdiv@dividend+1)^(0+128)
  1416     0B7A  1283               	bcf	3,5	;RP0=0, select bank0
  1417     0B7B  1303               	bcf	3,6	;RP1=0, select bank0
  1418     0B7C  0860               	movf	_DC_RANGE,w
  1419     0B7D  1683               	bsf	3,5	;RP0=1, select bank1
  1420     0B7E  1303               	bcf	3,6	;RP1=0, select bank1
  1421     0B7F  00A2               	movwf	___lwdiv@dividend^(0+128)
  1422     0B80  120A  158A  23E4  120A  158A  	fcall	___lwdiv
  1423     0B85  1283               	bcf	3,5	;RP0=0, select bank0
  1424     0B86  1303               	bcf	3,6	;RP1=0, select bank0
  1425     0B87  0862               	movf	_TIME1,w
  1426     0B88  1683               	bsf	3,5	;RP0=1, select bank1
  1427     0B89  1303               	bcf	3,6	;RP1=0, select bank1
  1428     0B8A  0720               	addwf	?___lwdiv^(0+128),w
  1429     0B8B  00A7               	movwf	??_compareInit^(0+128)
  1430     0B8C  1283               	bcf	3,5	;RP0=0, select bank0
  1431     0B8D  1303               	bcf	3,6	;RP1=0, select bank0
  1432     0B8E  0863               	movf	_TIME1+1,w
  1433     0B8F  1803               	skipnc
  1434     0B90  0A63               	incf	_TIME1+1,w
  1435     0B91  1683               	bsf	3,5	;RP0=1, select bank1
  1436     0B92  1303               	bcf	3,6	;RP1=0, select bank1
  1437     0B93  0721               	addwf	(?___lwdiv+1)^(0+128),w
  1438     0B94  00A8               	movwf	(??_compareInit+1)^(0+128)
  1439     0B95  0827               	movf	??_compareInit^(0+128),w
  1440     0B96  1283               	bcf	3,5	;RP0=0, select bank0
  1441     0B97  1303               	bcf	3,6	;RP1=0, select bank0
  1442     0B98  0095               	movwf	21	;volatile
  1443     0B99  1683               	bsf	3,5	;RP0=1, select bank1
  1444     0B9A  1303               	bcf	3,6	;RP1=0, select bank1
  1445     0B9B  0828               	movf	(??_compareInit+1)^(0+128),w
  1446     0B9C  1283               	bcf	3,5	;RP0=0, select bank0
  1447     0B9D  1303               	bcf	3,6	;RP1=0, select bank0
  1448     0B9E  0096               	movwf	22	;volatile
  1449     0B9F                     l254:
  1450     0B9F  0008               	return
  1451     0BA0                     __end_of_compareInit:
  1452                           
  1453                           	psect	text4
  1454     0C72                     __ptext4:	
  1455 ;; *************** function _adcPosControl *****************
  1456 ;; Defined at:
  1457 ;;		line 96 in file "PIC16F877A_ServoMotor_Compare.c"
  1458 ;; Parameters:    Size  Location     Type
  1459 ;;		None
  1460 ;; Auto vars:     Size  Location     Type
  1461 ;;  adc_val         4   72[BANK1 ] float 
  1462 ;;  pot_value       2   76[BANK1 ] unsigned int 
  1463 ;;  adc_angle       1   78[BANK1 ] unsigned char 
  1464 ;; Return value:  Size  Location     Type
  1465 ;;                  1    wreg      void 
  1466 ;; Registers used:
  1467 ;;		wreg, status,2, status,0, btemp+1, pclath, cstack
  1468 ;; Tracked objects:
  1469 ;;		On entry : 0/0
  1470 ;;		On exit  : 0/0
  1471 ;;		Unchanged: 0/0
  1472 ;; Data sizes:     COMMON   BANK0   BANK1   BANK3   BANK2
  1473 ;;      Params:         0       0       0       0       0
  1474 ;;      Locals:         0       0       7       0       0
  1475 ;;      Temps:          0       0       0       0       0
  1476 ;;      Totals:         0       0       7       0       0
  1477 ;;Total ram usage:        7 bytes
  1478 ;; Hardware stack levels used: 1
  1479 ;; Hardware stack levels required when called: 6
  1480 ;; This function calls:
  1481 ;;		_ADC_Read
  1482 ;;		___fldiv
  1483 ;;		___flmul
  1484 ;;		___fltol
  1485 ;;		___xxtofl
  1486 ;;		_servoAngle
  1487 ;; This function is called by:
  1488 ;;		_main
  1489 ;; This function uses a non-reentrant model
  1490 ;;
  1491                           
  1492     0C72                     _adcPosControl:	
  1493                           ;psect for function _adcPosControl
  1494                           
  1495     0C72                     l2654:	
  1496                           ;incstack = 0
  1497                           ; Regs used in _adcPosControl: [wreg+status,2+status,0+btemp+1+pclath+cstack]
  1498                           
  1499                           
  1500                           ;PIC16F877A_ServoMotor_Compare.c: 99:     uint16_t pot_value = ADC_Read(0);
  1501     0C72  3000               	movlw	0
  1502     0C73  120A  158A  2331  120A  158A  	fcall	_ADC_Read
  1503     0C78  1683               	bsf	3,5	;RP0=1, select bank1
  1504     0C79  1303               	bcf	3,6	;RP1=0, select bank1
  1505     0C7A  0821               	movf	(?_ADC_Read+1)^(0+128),w
  1506     0C7B  00ED               	movwf	(adcPosControl@pot_value+1)^(0+128)
  1507     0C7C  0820               	movf	?_ADC_Read^(0+128),w
  1508     0C7D  00EC               	movwf	adcPosControl@pot_value^(0+128)
  1509                           
  1510                           ;PIC16F877A_ServoMotor_Compare.c: 101:     float adc_val = (pot_value / 1023.0f) * 180;
  1511     0C7E  3043               	movlw	67
  1512     0C7F  00D1               	movwf	(___flmul@b+3)^(0+128)
  1513     0C80  3034               	movlw	52
  1514     0C81  00D0               	movwf	(___flmul@b+2)^(0+128)
  1515     0C82  3000               	movlw	0
  1516     0C83  00CF               	movwf	(___flmul@b+1)^(0+128)
  1517     0C84  3000               	movlw	0
  1518     0C85  00CE               	movwf	___flmul@b^(0+128)
  1519     0C86  3044               	movlw	68
  1520     0C87  00B7               	movwf	(___fldiv@a+3)^(0+128)
  1521     0C88  307F               	movlw	127
  1522     0C89  00B6               	movwf	(___fldiv@a+2)^(0+128)
  1523     0C8A  30C0               	movlw	192
  1524     0C8B  00B5               	movwf	(___fldiv@a+1)^(0+128)
  1525     0C8C  3000               	movlw	0
  1526     0C8D  00B4               	movwf	___fldiv@a^(0+128)
  1527     0C8E  086C               	movf	adcPosControl@pot_value^(0+128),w
  1528     0C8F  00A6               	movwf	___xxtofl@val^(0+128)
  1529     0C90  086D               	movf	(adcPosControl@pot_value+1)^(0+128),w
  1530     0C91  00A7               	movwf	(___xxtofl@val^(0+128)+1)
  1531     0C92  01A8               	clrf	(___xxtofl@val^(0+128)+2)
  1532     0C93  01A9               	clrf	(___xxtofl@val^(0+128)+3)
  1533     0C94  3000               	movlw	0
  1534     0C95  120A  118A  271E  120A  158A  	fcall	___xxtofl
  1535     0C9A  1683               	bsf	3,5	;RP0=1, select bank1
  1536     0C9B  1303               	bcf	3,6	;RP1=0, select bank1
  1537     0C9C  0829               	movf	(?___xxtofl+3)^(0+128),w
  1538     0C9D  00BB               	movwf	(___fldiv@b+3)^(0+128)
  1539     0C9E  0828               	movf	(?___xxtofl+2)^(0+128),w
  1540     0C9F  00BA               	movwf	(___fldiv@b+2)^(0+128)
  1541     0CA0  0827               	movf	(?___xxtofl+1)^(0+128),w
  1542     0CA1  00B9               	movwf	(___fldiv@b+1)^(0+128)
  1543     0CA2  0826               	movf	?___xxtofl^(0+128),w
  1544     0CA3  00B8               	movwf	___fldiv@b^(0+128)
  1545     0CA4  120A  118A  2380  120A  158A  	fcall	___fldiv
  1546     0CA9  1683               	bsf	3,5	;RP0=1, select bank1
  1547     0CAA  1303               	bcf	3,6	;RP1=0, select bank1
  1548     0CAB  0837               	movf	(?___fldiv+3)^(0+128),w
  1549     0CAC  00D5               	movwf	(___flmul@a+3)^(0+128)
  1550     0CAD  0836               	movf	(?___fldiv+2)^(0+128),w
  1551     0CAE  00D4               	movwf	(___flmul@a+2)^(0+128)
  1552     0CAF  0835               	movf	(?___fldiv+1)^(0+128),w
  1553     0CB0  00D3               	movwf	(___flmul@a+1)^(0+128)
  1554     0CB1  0834               	movf	?___fldiv^(0+128),w
  1555     0CB2  00D2               	movwf	___flmul@a^(0+128)
  1556     0CB3  120A  118A  203B  120A  158A  	fcall	___flmul
  1557     0CB8  1683               	bsf	3,5	;RP0=1, select bank1
  1558     0CB9  1303               	bcf	3,6	;RP1=0, select bank1
  1559     0CBA  0851               	movf	(?___flmul+3)^(0+128),w
  1560     0CBB  00EB               	movwf	(adcPosControl@adc_val+3)^(0+128)
  1561     0CBC  0850               	movf	(?___flmul+2)^(0+128),w
  1562     0CBD  00EA               	movwf	(adcPosControl@adc_val+2)^(0+128)
  1563     0CBE  084F               	movf	(?___flmul+1)^(0+128),w
  1564     0CBF  00E9               	movwf	(adcPosControl@adc_val+1)^(0+128)
  1565     0CC0  084E               	movf	?___flmul^(0+128),w
  1566     0CC1  00E8               	movwf	adcPosControl@adc_val^(0+128)
  1567                           
  1568                           ;PIC16F877A_ServoMotor_Compare.c: 102:     uint8_t adc_angle = (uint8_t)adc_val;
  1569     0CC2  086B               	movf	(adcPosControl@adc_val+3)^(0+128),w
  1570     0CC3  00D1               	movwf	(___fltol@f1+3)^(0+128)
  1571     0CC4  086A               	movf	(adcPosControl@adc_val+2)^(0+128),w
  1572     0CC5  00D0               	movwf	(___fltol@f1+2)^(0+128)
  1573     0CC6  0869               	movf	(adcPosControl@adc_val+1)^(0+128),w
  1574     0CC7  00CF               	movwf	(___fltol@f1+1)^(0+128)
  1575     0CC8  0868               	movf	adcPosControl@adc_val^(0+128),w
  1576     0CC9  00CE               	movwf	___fltol@f1^(0+128)
  1577     0CCA  120A  158A  25BE  120A  158A  	fcall	___fltol
  1578     0CCF  1683               	bsf	3,5	;RP0=1, select bank1
  1579     0CD0  1303               	bcf	3,6	;RP1=0, select bank1
  1580     0CD1  084E               	movf	?___fltol^(0+128),w
  1581     0CD2  00EE               	movwf	adcPosControl@adc_angle^(0+128)
  1582                           
  1583                           ;PIC16F877A_ServoMotor_Compare.c: 103:     servoAngle(adc_angle);
  1584     0CD3  086E               	movf	adcPosControl@adc_angle^(0+128),w
  1585     0CD4  120A  158A  26B2  120A  158A  	fcall	_servoAngle
  1586     0CD9                     l227:
  1587     0CD9  0008               	return
  1588     0CDA                     __end_of_adcPosControl:
  1589                           
  1590                           	psect	text5
  1591     0EB2                     __ptext5:	
  1592 ;; *************** function _servoAngle *****************
  1593 ;; Defined at:
  1594 ;;		line 29 in file "ServoMotor_Compare.c"
  1595 ;; Parameters:    Size  Location     Type
  1596 ;;  angle           1    wreg     unsigned char 
  1597 ;; Auto vars:     Size  Location     Type
  1598 ;;  angle           1   66[BANK1 ] unsigned char 
  1599 ;;  duty_cycle      2   64[BANK1 ] unsigned int 
  1600 ;; Return value:  Size  Location     Type
  1601 ;;                  1    wreg      void 
  1602 ;; Registers used:
  1603 ;;		wreg, status,2, status,0, btemp+1, pclath, cstack
  1604 ;; Tracked objects:
  1605 ;;		On entry : 0/0
  1606 ;;		On exit  : 0/0
  1607 ;;		Unchanged: 0/0
  1608 ;; Data sizes:     COMMON   BANK0   BANK1   BANK3   BANK2
  1609 ;;      Params:         0       0       0       0       0
  1610 ;;      Locals:         0       0       3       0       0
  1611 ;;      Temps:          0       0       8       0       0
  1612 ;;      Totals:         0       0      11       0       0
  1613 ;;Total ram usage:       11 bytes
  1614 ;; Hardware stack levels used: 1
  1615 ;; Hardware stack levels required when called: 5
  1616 ;; This function calls:
  1617 ;;		___fldiv
  1618 ;;		___fltol
  1619 ;;		___lwdiv
  1620 ;;		___wmul
  1621 ;;		___xxtofl
  1622 ;; This function is called by:
  1623 ;;		_adcPosControl
  1624 ;; This function uses a non-reentrant model
  1625 ;;
  1626                           
  1627     0EB2                     _servoAngle:	
  1628                           ;psect for function _servoAngle
  1629                           
  1630                           
  1631                           ;incstack = 0
  1632                           ; Regs used in _servoAngle: [wreg+status,2+status,0+btemp+1+pclath+cstack]
  1633                           ;servoAngle@angle stored from wreg
  1634     0EB2  1683               	bsf	3,5	;RP0=1, select bank1
  1635     0EB3  1303               	bcf	3,6	;RP1=0, select bank1
  1636     0EB4  00E2               	movwf	servoAngle@angle^(0+128)
  1637     0EB5                     l2422:
  1638                           
  1639                           ;ServoMotor_Compare.c: 29: void servoAngle(uint8_t angle);ServoMotor_Compare.c: 30: {;Se
      +                          rvoMotor_Compare.c: 31:     if(angle <= 180)
  1640     0EB5  30B5               	movlw	181
  1641     0EB6  0262               	subwf	servoAngle@angle^(0+128),w
  1642     0EB7  1803               	skipnc
  1643     0EB8  2EBA               	goto	u3331
  1644     0EB9  2EBB               	goto	u3330
  1645     0EBA                     u3331:
  1646     0EBA  2F45               	goto	l261
  1647     0EBB                     u3330:
  1648     0EBB                     l2424:
  1649                           
  1650                           ;ServoMotor_Compare.c: 32:     {;ServoMotor_Compare.c: 33:         uint16_t duty_cycle =
      +                           (uint16_t)((100 * angle) / 36.0) + TIME1 + (DC_RANGE / 20);
  1651     0EBB  3064               	movlw	100
  1652     0EBC  00A2               	movwf	___wmul@multiplicand^(0+128)
  1653     0EBD  3000               	movlw	0
  1654     0EBE  00A3               	movwf	(___wmul@multiplicand^(0+128)+1)
  1655     0EBF  0862               	movf	servoAngle@angle^(0+128),w
  1656     0EC0  00D8               	movwf	??_servoAngle^(0+128)
  1657     0EC1  01D9               	clrf	(??_servoAngle^(0+128)+1)
  1658     0EC2  0858               	movf	??_servoAngle^(0+128),w
  1659     0EC3  00A0               	movwf	___wmul@multiplier^(0+128)
  1660     0EC4  0859               	movf	(??_servoAngle+1)^(0+128),w
  1661     0EC5  00A1               	movwf	(___wmul@multiplier+1)^(0+128)
  1662     0EC6  120A  118A  27D8  120A  158A  	fcall	___wmul
  1663     0ECB  1683               	bsf	3,5	;RP0=1, select bank1
  1664     0ECC  1303               	bcf	3,6	;RP1=0, select bank1
  1665     0ECD  0820               	movf	?___wmul^(0+128),w
  1666     0ECE  00A6               	movwf	___xxtofl@val^(0+128)
  1667     0ECF  0821               	movf	(?___wmul+1)^(0+128),w
  1668     0ED0  00A7               	movwf	(___xxtofl@val+1)^(0+128)
  1669     0ED1  3000               	movlw	0
  1670     0ED2  1BA7               	btfsc	(___xxtofl@val+1)^(0+128),7
  1671     0ED3  30FF               	movlw	255
  1672     0ED4  00A8               	movwf	(___xxtofl@val+2)^(0+128)
  1673     0ED5  00A9               	movwf	(___xxtofl@val+3)^(0+128)
  1674     0ED6  3001               	movlw	1
  1675     0ED7  120A  118A  271E  120A  158A  	fcall	___xxtofl
  1676     0EDC  1683               	bsf	3,5	;RP0=1, select bank1
  1677     0EDD  1303               	bcf	3,6	;RP1=0, select bank1
  1678     0EDE  0829               	movf	(?___xxtofl+3)^(0+128),w
  1679     0EDF  00BB               	movwf	(___fldiv@b+3)^(0+128)
  1680     0EE0  0828               	movf	(?___xxtofl+2)^(0+128),w
  1681     0EE1  00BA               	movwf	(___fldiv@b+2)^(0+128)
  1682     0EE2  0827               	movf	(?___xxtofl+1)^(0+128),w
  1683     0EE3  00B9               	movwf	(___fldiv@b+1)^(0+128)
  1684     0EE4  0826               	movf	?___xxtofl^(0+128),w
  1685     0EE5  00B8               	movwf	___fldiv@b^(0+128)
  1686     0EE6  3042               	movlw	66
  1687     0EE7  00B7               	movwf	(___fldiv@a+3)^(0+128)
  1688     0EE8  3010               	movlw	16
  1689     0EE9  00B6               	movwf	(___fldiv@a+2)^(0+128)
  1690     0EEA  3000               	movlw	0
  1691     0EEB  00B5               	movwf	(___fldiv@a+1)^(0+128)
  1692     0EEC  3000               	movlw	0
  1693     0EED  00B4               	movwf	___fldiv@a^(0+128)
  1694     0EEE  120A  118A  2380  120A  158A  	fcall	___fldiv
  1695     0EF3  1683               	bsf	3,5	;RP0=1, select bank1
  1696     0EF4  1303               	bcf	3,6	;RP1=0, select bank1
  1697     0EF5  0837               	movf	(?___fldiv+3)^(0+128),w
  1698     0EF6  00D1               	movwf	(___fltol@f1+3)^(0+128)
  1699     0EF7  0836               	movf	(?___fldiv+2)^(0+128),w
  1700     0EF8  00D0               	movwf	(___fltol@f1+2)^(0+128)
  1701     0EF9  0835               	movf	(?___fldiv+1)^(0+128),w
  1702     0EFA  00CF               	movwf	(___fltol@f1+1)^(0+128)
  1703     0EFB  0834               	movf	?___fldiv^(0+128),w
  1704     0EFC  00CE               	movwf	___fltol@f1^(0+128)
  1705     0EFD  120A  158A  25BE  120A  158A  	fcall	___fltol
  1706     0F02  1683               	bsf	3,5	;RP0=1, select bank1
  1707     0F03  1303               	bcf	3,6	;RP1=0, select bank1
  1708     0F04  084E               	movf	?___fltol^(0+128),w
  1709     0F05  00DA               	movwf	(??_servoAngle+2)^(0+128)
  1710     0F06  084F               	movf	(?___fltol+1)^(0+128),w
  1711     0F07  00DB               	movwf	((??_servoAngle+2)^(0+128)+1)
  1712     0F08  0850               	movf	(?___fltol+2)^(0+128),w
  1713     0F09  00DC               	movwf	((??_servoAngle+2)^(0+128)+2)
  1714     0F0A  0851               	movf	(?___fltol+3)^(0+128),w
  1715     0F0B  00DD               	movwf	((??_servoAngle+2)^(0+128)+3)
  1716     0F0C  3014               	movlw	20
  1717     0F0D  00A0               	movwf	___lwdiv@divisor^(0+128)
  1718     0F0E  3000               	movlw	0
  1719     0F0F  00A1               	movwf	(___lwdiv@divisor^(0+128)+1)
  1720     0F10  1283               	bcf	3,5	;RP0=0, select bank0
  1721     0F11  1303               	bcf	3,6	;RP1=0, select bank0
  1722     0F12  0861               	movf	_DC_RANGE+1,w
  1723     0F13  1683               	bsf	3,5	;RP0=1, select bank1
  1724     0F14  1303               	bcf	3,6	;RP1=0, select bank1
  1725     0F15  00A3               	movwf	(___lwdiv@dividend+1)^(0+128)
  1726     0F16  1283               	bcf	3,5	;RP0=0, select bank0
  1727     0F17  1303               	bcf	3,6	;RP1=0, select bank0
  1728     0F18  0860               	movf	_DC_RANGE,w
  1729     0F19  1683               	bsf	3,5	;RP0=1, select bank1
  1730     0F1A  1303               	bcf	3,6	;RP1=0, select bank1
  1731     0F1B  00A2               	movwf	___lwdiv@dividend^(0+128)
  1732     0F1C  120A  158A  23E4  120A  158A  	fcall	___lwdiv
  1733     0F21  1683               	bsf	3,5	;RP0=1, select bank1
  1734     0F22  1303               	bcf	3,6	;RP1=0, select bank1
  1735     0F23  0820               	movf	?___lwdiv^(0+128),w
  1736     0F24  075A               	addwf	(??_servoAngle+2)^(0+128),w
  1737     0F25  00DE               	movwf	(??_servoAngle+6)^(0+128)
  1738     0F26  0821               	movf	(?___lwdiv+1)^(0+128),w
  1739     0F27  1803               	skipnc
  1740     0F28  0A21               	incf	(?___lwdiv+1)^(0+128),w
  1741     0F29  075B               	addwf	(??_servoAngle+3)^(0+128),w
  1742     0F2A  00DF               	movwf	(??_servoAngle+7)^(0+128)
  1743     0F2B  1283               	bcf	3,5	;RP0=0, select bank0
  1744     0F2C  1303               	bcf	3,6	;RP1=0, select bank0
  1745     0F2D  0862               	movf	_TIME1,w
  1746     0F2E  1683               	bsf	3,5	;RP0=1, select bank1
  1747     0F2F  1303               	bcf	3,6	;RP1=0, select bank1
  1748     0F30  075E               	addwf	(??_servoAngle+6)^(0+128),w
  1749     0F31  00E0               	movwf	servoAngle@duty_cycle^(0+128)
  1750     0F32  1283               	bcf	3,5	;RP0=0, select bank0
  1751     0F33  1303               	bcf	3,6	;RP1=0, select bank0
  1752     0F34  0863               	movf	_TIME1+1,w
  1753     0F35  1803               	skipnc
  1754     0F36  0A63               	incf	_TIME1+1,w
  1755     0F37  1683               	bsf	3,5	;RP0=1, select bank1
  1756     0F38  1303               	bcf	3,6	;RP1=0, select bank1
  1757     0F39  075F               	addwf	(??_servoAngle+7)^(0+128),w
  1758     0F3A  00E1               	movwf	(servoAngle@duty_cycle+1)^(0+128)
  1759     0F3B                     l2426:
  1760                           
  1761                           ;ServoMotor_Compare.c: 34:         CCPR1 = duty_cycle;
  1762     0F3B  0861               	movf	(servoAngle@duty_cycle+1)^(0+128),w
  1763     0F3C  1283               	bcf	3,5	;RP0=0, select bank0
  1764     0F3D  1303               	bcf	3,6	;RP1=0, select bank0
  1765     0F3E  0096               	movwf	22	;volatile
  1766     0F3F  1683               	bsf	3,5	;RP0=1, select bank1
  1767     0F40  1303               	bcf	3,6	;RP1=0, select bank1
  1768     0F41  0860               	movf	servoAngle@duty_cycle^(0+128),w
  1769     0F42  1283               	bcf	3,5	;RP0=0, select bank0
  1770     0F43  1303               	bcf	3,6	;RP1=0, select bank0
  1771     0F44  0095               	movwf	21	;volatile
  1772     0F45                     l261:
  1773     0F45  0008               	return
  1774     0F46                     __end_of_servoAngle:
  1775                           
  1776                           	psect	text6
  1777     071E                     __ptext6:	
  1778 ;; *************** function ___xxtofl *****************
  1779 ;; Defined at:
  1780 ;;		line 10 in file "C:\Program Files\Microchip\xc8\v2.41\pic\sources\c90\common\xxtofl.c"
  1781 ;; Parameters:    Size  Location     Type
  1782 ;;  sign            1    wreg     unsigned char 
  1783 ;;  val             4    6[BANK1 ] long 
  1784 ;; Auto vars:     Size  Location     Type
  1785 ;;  sign            1   14[BANK1 ] unsigned char 
  1786 ;;  arg             4   16[BANK1 ] unsigned long 
  1787 ;;  exp             1   15[BANK1 ] unsigned char 
  1788 ;; Return value:  Size  Location     Type
  1789 ;;                  4    6[BANK1 ] unsigned char 
  1790 ;; Registers used:
  1791 ;;		wreg, status,2, status,0, btemp+1
  1792 ;; Tracked objects:
  1793 ;;		On entry : 0/0
  1794 ;;		On exit  : 0/0
  1795 ;;		Unchanged: 0/0
  1796 ;; Data sizes:     COMMON   BANK0   BANK1   BANK3   BANK2
  1797 ;;      Params:         0       0       4       0       0
  1798 ;;      Locals:         0       0       6       0       0
  1799 ;;      Temps:          0       0       4       0       0
  1800 ;;      Totals:         0       0      14       0       0
  1801 ;;Total ram usage:       14 bytes
  1802 ;; Hardware stack levels used: 1
  1803 ;; Hardware stack levels required when called: 4
  1804 ;; This function calls:
  1805 ;;		Nothing
  1806 ;; This function is called by:
  1807 ;;		_adcPosControl
  1808 ;;		_servoAngle
  1809 ;;		_ADC_lm35toDeg
  1810 ;; This function uses a non-reentrant model
  1811 ;;
  1812                           
  1813     071E                     ___xxtofl:	
  1814                           ;psect for function ___xxtofl
  1815                           
  1816                           
  1817                           ;incstack = 0
  1818                           ; Regs used in ___xxtofl: [wreg+status,2+status,0+btemp+1]
  1819                           ;___xxtofl@sign stored from wreg
  1820     071E  1683               	bsf	3,5	;RP0=1, select bank1
  1821     071F  1303               	bcf	3,6	;RP1=0, select bank1
  1822     0720  00AE               	movwf	___xxtofl@sign^(0+128)
  1823     0721                     l2048:
  1824     0721  082E               	movf	___xxtofl@sign^(0+128),w
  1825     0722  1903               	btfsc	3,2
  1826     0723  2F25               	goto	u2491
  1827     0724  2F26               	goto	u2490
  1828     0725                     u2491:
  1829     0725  2F3A               	goto	l2054
  1830     0726                     u2490:
  1831     0726                     l2050:
  1832     0726  1FA9               	btfss	(___xxtofl@val+3)^(0+128),7
  1833     0727  2F29               	goto	u2501
  1834     0728  2F2A               	goto	u2500
  1835     0729                     u2501:
  1836     0729  2F3A               	goto	l2054
  1837     072A                     u2500:
  1838     072A                     l2052:
  1839     072A  0926               	comf	___xxtofl@val^(0+128),w
  1840     072B  00B0               	movwf	___xxtofl@arg^(0+128)
  1841     072C  0927               	comf	(___xxtofl@val^(0+128)+1),w
  1842     072D  00B1               	movwf	(___xxtofl@arg+1)^(0+128)
  1843     072E  0928               	comf	(___xxtofl@val^(0+128)+2),w
  1844     072F  00B2               	movwf	(___xxtofl@arg+2)^(0+128)
  1845     0730  0929               	comf	(___xxtofl@val^(0+128)+3),w
  1846     0731  00B3               	movwf	(___xxtofl@arg+3)^(0+128)
  1847     0732  0AB0               	incf	___xxtofl@arg^(0+128),f
  1848     0733  1903               	skipnz
  1849     0734  0AB1               	incf	(___xxtofl@arg+1)^(0+128),f
  1850     0735  1903               	skipnz
  1851     0736  0AB2               	incf	(___xxtofl@arg+2)^(0+128),f
  1852     0737  1903               	skipnz
  1853     0738  0AB3               	incf	(___xxtofl@arg+3)^(0+128),f
  1854     0739  2F42               	goto	l783
  1855     073A                     l2054:
  1856     073A  0829               	movf	(___xxtofl@val+3)^(0+128),w
  1857     073B  00B3               	movwf	(___xxtofl@arg+3)^(0+128)
  1858     073C  0828               	movf	(___xxtofl@val+2)^(0+128),w
  1859     073D  00B2               	movwf	(___xxtofl@arg+2)^(0+128)
  1860     073E  0827               	movf	(___xxtofl@val+1)^(0+128),w
  1861     073F  00B1               	movwf	(___xxtofl@arg+1)^(0+128)
  1862     0740  0826               	movf	___xxtofl@val^(0+128),w
  1863     0741  00B0               	movwf	___xxtofl@arg^(0+128)
  1864     0742                     l783:
  1865     0742  0829               	movf	(___xxtofl@val+3)^(0+128),w
  1866     0743  0428               	iorwf	(___xxtofl@val+2)^(0+128),w
  1867     0744  0427               	iorwf	(___xxtofl@val+1)^(0+128),w
  1868     0745  0426               	iorwf	___xxtofl@val^(0+128),w
  1869     0746  1D03               	skipz
  1870     0747  2F49               	goto	u2511
  1871     0748  2F4A               	goto	u2510
  1872     0749                     u2511:
  1873     0749  2F53               	goto	l2060
  1874     074A                     u2510:
  1875     074A                     l2056:
  1876     074A  3000               	movlw	0
  1877     074B  00A9               	movwf	(?___xxtofl+3)^(0+128)
  1878     074C  3000               	movlw	0
  1879     074D  00A8               	movwf	(?___xxtofl+2)^(0+128)
  1880     074E  3000               	movlw	0
  1881     074F  00A7               	movwf	(?___xxtofl+1)^(0+128)
  1882     0750  3000               	movlw	0
  1883     0751  00A6               	movwf	?___xxtofl^(0+128)
  1884     0752  2FD7               	goto	l785
  1885     0753                     l2060:
  1886     0753  3096               	movlw	150
  1887     0754  00AF               	movwf	___xxtofl@exp^(0+128)
  1888     0755  2F63               	goto	l2066
  1889     0756                     l2062:
  1890     0756  3001               	movlw	1
  1891     0757  00FF               	movwf	btemp+1
  1892     0758  087F               	movf	btemp+1,w
  1893     0759  07AF               	addwf	___xxtofl@exp^(0+128),f
  1894     075A                     l2064:
  1895     075A  3001               	movlw	1
  1896     075B                     u2525:
  1897     075B  1003               	clrc
  1898     075C  0CB3               	rrf	(___xxtofl@arg+3)^(0+128),f
  1899     075D  0CB2               	rrf	(___xxtofl@arg+2)^(0+128),f
  1900     075E  0CB1               	rrf	(___xxtofl@arg+1)^(0+128),f
  1901     075F  0CB0               	rrf	___xxtofl@arg^(0+128),f
  1902     0760  3EFF               	addlw	-1
  1903     0761  1D03               	skipz
  1904     0762  2F5B               	goto	u2525
  1905     0763                     l2066:
  1906     0763  30FE               	movlw	254
  1907     0764  0533               	andwf	(___xxtofl@arg+3)^(0+128),w
  1908     0765  1D03               	btfss	3,2
  1909     0766  2F68               	goto	u2531
  1910     0767  2F69               	goto	u2530
  1911     0768                     u2531:
  1912     0768  2F56               	goto	l2062
  1913     0769                     u2530:
  1914     0769  2F85               	goto	l2074
  1915     076A                     l2068:
  1916     076A  3001               	movlw	1
  1917     076B  00FF               	movwf	btemp+1
  1918     076C  087F               	movf	btemp+1,w
  1919     076D  07AF               	addwf	___xxtofl@exp^(0+128),f
  1920     076E                     l2070:
  1921     076E  3001               	movlw	1
  1922     076F  07B0               	addwf	___xxtofl@arg^(0+128),f
  1923     0770  3000               	movlw	0
  1924     0771  1803               	skipnc
  1925     0772  3001               	movlw	1
  1926     0773  07B1               	addwf	(___xxtofl@arg+1)^(0+128),f
  1927     0774  3000               	movlw	0
  1928     0775  1803               	skipnc
  1929     0776  3001               	movlw	1
  1930     0777  07B2               	addwf	(___xxtofl@arg+2)^(0+128),f
  1931     0778  3000               	movlw	0
  1932     0779  1803               	skipnc
  1933     077A  3001               	movlw	1
  1934     077B  07B3               	addwf	(___xxtofl@arg+3)^(0+128),f
  1935     077C                     l2072:
  1936     077C  3001               	movlw	1
  1937     077D                     u2545:
  1938     077D  1003               	clrc
  1939     077E  0CB3               	rrf	(___xxtofl@arg+3)^(0+128),f
  1940     077F  0CB2               	rrf	(___xxtofl@arg+2)^(0+128),f
  1941     0780  0CB1               	rrf	(___xxtofl@arg+1)^(0+128),f
  1942     0781  0CB0               	rrf	___xxtofl@arg^(0+128),f
  1943     0782  3EFF               	addlw	-1
  1944     0783  1D03               	skipz
  1945     0784  2F7D               	goto	u2545
  1946     0785                     l2074:
  1947     0785  30FF               	movlw	255
  1948     0786  0533               	andwf	(___xxtofl@arg+3)^(0+128),w
  1949     0787  1D03               	btfss	3,2
  1950     0788  2F8A               	goto	u2551
  1951     0789  2F8B               	goto	u2550
  1952     078A                     u2551:
  1953     078A  2F6A               	goto	l2068
  1954     078B                     u2550:
  1955     078B  2F97               	goto	l2078
  1956     078C                     l2076:
  1957     078C  3001               	movlw	1
  1958     078D  02AF               	subwf	___xxtofl@exp^(0+128),f
  1959     078E  3001               	movlw	1
  1960     078F  00AA               	movwf	??___xxtofl^(0+128)
  1961     0790                     u2565:
  1962     0790  1003               	clrc
  1963     0791  0DB0               	rlf	___xxtofl@arg^(0+128),f
  1964     0792  0DB1               	rlf	(___xxtofl@arg+1)^(0+128),f
  1965     0793  0DB2               	rlf	(___xxtofl@arg+2)^(0+128),f
  1966     0794  0DB3               	rlf	(___xxtofl@arg+3)^(0+128),f
  1967     0795  0BAA               	decfsz	??___xxtofl^(0+128),f
  1968     0796  2F90               	goto	u2565
  1969     0797                     l2078:
  1970     0797  1BB2               	btfsc	(___xxtofl@arg+2)^(0+128),7
  1971     0798  2F9A               	goto	u2571
  1972     0799  2F9B               	goto	u2570
  1973     079A                     u2571:
  1974     079A  2FA1               	goto	l796
  1975     079B                     u2570:
  1976     079B                     l2080:
  1977     079B  3002               	movlw	2
  1978     079C  022F               	subwf	___xxtofl@exp^(0+128),w
  1979     079D  1803               	skipnc
  1980     079E  2FA0               	goto	u2581
  1981     079F  2FA1               	goto	u2580
  1982     07A0                     u2581:
  1983     07A0  2F8C               	goto	l2076
  1984     07A1                     u2580:
  1985     07A1                     l796:
  1986     07A1  182F               	btfsc	___xxtofl@exp^(0+128),0
  1987     07A2  2FA4               	goto	u2591
  1988     07A3  2FA5               	goto	u2590
  1989     07A4                     u2591:
  1990     07A4  2FAD               	goto	l797
  1991     07A5                     u2590:
  1992     07A5                     l2082:
  1993     07A5  30FF               	movlw	255
  1994     07A6  05B0               	andwf	___xxtofl@arg^(0+128),f
  1995     07A7  30FF               	movlw	255
  1996     07A8  05B1               	andwf	(___xxtofl@arg+1)^(0+128),f
  1997     07A9  307F               	movlw	127
  1998     07AA  05B2               	andwf	(___xxtofl@arg+2)^(0+128),f
  1999     07AB  30FF               	movlw	255
  2000     07AC  05B3               	andwf	(___xxtofl@arg+3)^(0+128),f
  2001     07AD                     l797:
  2002     07AD  1003               	clrc
  2003     07AE  0CAF               	rrf	___xxtofl@exp^(0+128),f
  2004     07AF                     l2084:
  2005     07AF  082F               	movf	___xxtofl@exp^(0+128),w
  2006     07B0  00AA               	movwf	??___xxtofl^(0+128)
  2007     07B1  01AB               	clrf	(??___xxtofl^(0+128)+1)
  2008     07B2  01AC               	clrf	(??___xxtofl^(0+128)+2)
  2009     07B3  01AD               	clrf	(??___xxtofl^(0+128)+3)
  2010     07B4  3018               	movlw	24
  2011     07B5                     u2605:
  2012     07B5  1003               	clrc
  2013     07B6  0DAA               	rlf	??___xxtofl^(0+128),f
  2014     07B7  0DAB               	rlf	(??___xxtofl^(0+128)+1),f
  2015     07B8  0DAC               	rlf	(??___xxtofl^(0+128)+2),f
  2016     07B9  0DAD               	rlf	(??___xxtofl^(0+128)+3),f
  2017     07BA                     u2600:
  2018     07BA  3EFF               	addlw	-1
  2019     07BB  1D03               	skipz
  2020     07BC  2FB5               	goto	u2605
  2021     07BD  082A               	movf	??___xxtofl^(0+128),w
  2022     07BE  04B0               	iorwf	___xxtofl@arg^(0+128),f
  2023     07BF  082B               	movf	(??___xxtofl+1)^(0+128),w
  2024     07C0  04B1               	iorwf	(___xxtofl@arg+1)^(0+128),f
  2025     07C1  082C               	movf	(??___xxtofl+2)^(0+128),w
  2026     07C2  04B2               	iorwf	(___xxtofl@arg+2)^(0+128),f
  2027     07C3  082D               	movf	(??___xxtofl+3)^(0+128),w
  2028     07C4  04B3               	iorwf	(___xxtofl@arg+3)^(0+128),f
  2029     07C5                     l2086:
  2030     07C5  082E               	movf	___xxtofl@sign^(0+128),w
  2031     07C6  1903               	btfsc	3,2
  2032     07C7  2FC9               	goto	u2611
  2033     07C8  2FCA               	goto	u2610
  2034     07C9                     u2611:
  2035     07C9  2FCF               	goto	l2092
  2036     07CA                     u2610:
  2037     07CA                     l2088:
  2038     07CA  1FA9               	btfss	(___xxtofl@val+3)^(0+128),7
  2039     07CB  2FCD               	goto	u2621
  2040     07CC  2FCE               	goto	u2620
  2041     07CD                     u2621:
  2042     07CD  2FCF               	goto	l2092
  2043     07CE                     u2620:
  2044     07CE                     l2090:
  2045     07CE  17B3               	bsf	(___xxtofl@arg^(0+128)+3),7
  2046     07CF                     l2092:
  2047     07CF  0833               	movf	(___xxtofl@arg+3)^(0+128),w
  2048     07D0  00A9               	movwf	(?___xxtofl+3)^(0+128)
  2049     07D1  0832               	movf	(___xxtofl@arg+2)^(0+128),w
  2050     07D2  00A8               	movwf	(?___xxtofl+2)^(0+128)
  2051     07D3  0831               	movf	(___xxtofl@arg+1)^(0+128),w
  2052     07D4  00A7               	movwf	(?___xxtofl+1)^(0+128)
  2053     07D5  0830               	movf	___xxtofl@arg^(0+128),w
  2054     07D6  00A6               	movwf	?___xxtofl^(0+128)
  2055     07D7                     l785:
  2056     07D7  0008               	return
  2057     07D8                     __end_of___xxtofl:
  2058                           
  2059                           	psect	text7
  2060     07D8                     __ptext7:	
  2061 ;; *************** function ___wmul *****************
  2062 ;; Defined at:
  2063 ;;		line 15 in file "C:\Program Files\Microchip\xc8\v2.41\pic\sources\c90\common\Umul16.c"
  2064 ;; Parameters:    Size  Location     Type
  2065 ;;  multiplier      2    0[BANK1 ] unsigned int 
  2066 ;;  multiplicand    2    2[BANK1 ] unsigned int 
  2067 ;; Auto vars:     Size  Location     Type
  2068 ;;  product         2    4[BANK1 ] unsigned int 
  2069 ;; Return value:  Size  Location     Type
  2070 ;;                  2    0[BANK1 ] unsigned int 
  2071 ;; Registers used:
  2072 ;;		wreg, status,2, status,0
  2073 ;; Tracked objects:
  2074 ;;		On entry : 0/0
  2075 ;;		On exit  : 0/0
  2076 ;;		Unchanged: 0/0
  2077 ;; Data sizes:     COMMON   BANK0   BANK1   BANK3   BANK2
  2078 ;;      Params:         0       0       4       0       0
  2079 ;;      Locals:         0       0       2       0       0
  2080 ;;      Temps:          0       0       0       0       0
  2081 ;;      Totals:         0       0       6       0       0
  2082 ;;Total ram usage:        6 bytes
  2083 ;; Hardware stack levels used: 1
  2084 ;; Hardware stack levels required when called: 4
  2085 ;; This function calls:
  2086 ;;		Nothing
  2087 ;; This function is called by:
  2088 ;;		_servoAngle
  2089 ;;		_ADC_lm35toDeg
  2090 ;; This function uses a non-reentrant model
  2091 ;;
  2092                           
  2093     07D8                     ___wmul:	
  2094                           ;psect for function ___wmul
  2095                           
  2096     07D8                     l1810:	
  2097                           ;incstack = 0
  2098                           ; Regs used in ___wmul: [wreg+status,2+status,0]
  2099                           
  2100     07D8  1683               	bsf	3,5	;RP0=1, select bank1
  2101     07D9  1303               	bcf	3,6	;RP1=0, select bank1
  2102     07DA  01A4               	clrf	___wmul@product^(0+128)
  2103     07DB  01A5               	clrf	(___wmul@product+1)^(0+128)
  2104     07DC                     l1812:
  2105     07DC  1C20               	btfss	___wmul@multiplier^(0+128),0
  2106     07DD  2FDF               	goto	u1961
  2107     07DE  2FE0               	goto	u1960
  2108     07DF                     u1961:
  2109     07DF  2FE6               	goto	l350
  2110     07E0                     u1960:
  2111     07E0                     l1814:
  2112     07E0  0822               	movf	___wmul@multiplicand^(0+128),w
  2113     07E1  07A4               	addwf	___wmul@product^(0+128),f
  2114     07E2  1803               	skipnc
  2115     07E3  0AA5               	incf	(___wmul@product+1)^(0+128),f
  2116     07E4  0823               	movf	(___wmul@multiplicand+1)^(0+128),w
  2117     07E5  07A5               	addwf	(___wmul@product+1)^(0+128),f
  2118     07E6                     l350:
  2119     07E6  3001               	movlw	1
  2120     07E7                     u1975:
  2121     07E7  1003               	clrc
  2122     07E8  0DA2               	rlf	___wmul@multiplicand^(0+128),f
  2123     07E9  0DA3               	rlf	(___wmul@multiplicand+1)^(0+128),f
  2124     07EA  3EFF               	addlw	-1
  2125     07EB  1D03               	skipz
  2126     07EC  2FE7               	goto	u1975
  2127     07ED                     l1816:
  2128     07ED  3001               	movlw	1
  2129     07EE                     u1985:
  2130     07EE  1003               	clrc
  2131     07EF  0CA1               	rrf	(___wmul@multiplier+1)^(0+128),f
  2132     07F0  0CA0               	rrf	___wmul@multiplier^(0+128),f
  2133     07F1  3EFF               	addlw	-1
  2134     07F2  1D03               	skipz
  2135     07F3  2FEE               	goto	u1985
  2136     07F4                     l1818:
  2137     07F4  0820               	movf	___wmul@multiplier^(0+128),w
  2138     07F5  0421               	iorwf	(___wmul@multiplier+1)^(0+128),w
  2139     07F6  1D03               	btfss	3,2
  2140     07F7  2FF9               	goto	u1991
  2141     07F8  2FFA               	goto	u1990
  2142     07F9                     u1991:
  2143     07F9  2FDC               	goto	l1812
  2144     07FA                     u1990:
  2145     07FA                     l1820:
  2146     07FA  0825               	movf	(___wmul@product+1)^(0+128),w
  2147     07FB  00A1               	movwf	(?___wmul+1)^(0+128)
  2148     07FC  0824               	movf	___wmul@product^(0+128),w
  2149     07FD  00A0               	movwf	?___wmul^(0+128)
  2150     07FE                     l352:
  2151     07FE  0008               	return
  2152     07FF                     __end_of___wmul:
  2153                           
  2154                           	psect	text8
  2155     0BE4                     __ptext8:	
  2156 ;; *************** function ___lwdiv *****************
  2157 ;; Defined at:
  2158 ;;		line 5 in file "C:\Program Files\Microchip\xc8\v2.41\pic\sources\c90\common\lwdiv.c"
  2159 ;; Parameters:    Size  Location     Type
  2160 ;;  divisor         2    0[BANK1 ] unsigned int 
  2161 ;;  dividend        2    2[BANK1 ] unsigned int 
  2162 ;; Auto vars:     Size  Location     Type
  2163 ;;  quotient        2    4[BANK1 ] unsigned int 
  2164 ;;  counter         1    6[BANK1 ] unsigned char 
  2165 ;; Return value:  Size  Location     Type
  2166 ;;                  2    0[BANK1 ] unsigned int 
  2167 ;; Registers used:
  2168 ;;		wreg, status,2, status,0, btemp+1
  2169 ;; Tracked objects:
  2170 ;;		On entry : 0/0
  2171 ;;		On exit  : 0/0
  2172 ;;		Unchanged: 0/0
  2173 ;; Data sizes:     COMMON   BANK0   BANK1   BANK3   BANK2
  2174 ;;      Params:         0       0       4       0       0
  2175 ;;      Locals:         0       0       3       0       0
  2176 ;;      Temps:          0       0       0       0       0
  2177 ;;      Totals:         0       0       7       0       0
  2178 ;;Total ram usage:        7 bytes
  2179 ;; Hardware stack levels used: 1
  2180 ;; Hardware stack levels required when called: 4
  2181 ;; This function calls:
  2182 ;;		Nothing
  2183 ;; This function is called by:
  2184 ;;		_compareInit
  2185 ;;		_servoAngle
  2186 ;; This function uses a non-reentrant model
  2187 ;;
  2188                           
  2189     0BE4                     ___lwdiv:	
  2190                           ;psect for function ___lwdiv
  2191                           
  2192     0BE4                     l1862:	
  2193                           ;incstack = 0
  2194                           ; Regs used in ___lwdiv: [wreg+status,2+status,0+btemp+1]
  2195                           
  2196     0BE4  1683               	bsf	3,5	;RP0=1, select bank1
  2197     0BE5  1303               	bcf	3,6	;RP1=0, select bank1
  2198     0BE6  01A4               	clrf	___lwdiv@quotient^(0+128)
  2199     0BE7  01A5               	clrf	(___lwdiv@quotient+1)^(0+128)
  2200     0BE8                     l1864:
  2201     0BE8  0820               	movf	___lwdiv@divisor^(0+128),w
  2202     0BE9  0421               	iorwf	(___lwdiv@divisor+1)^(0+128),w
  2203     0BEA  1903               	btfsc	3,2
  2204     0BEB  2BED               	goto	u2101
  2205     0BEC  2BEE               	goto	u2100
  2206     0BED                     u2101:
  2207     0BED  2C25               	goto	l1884
  2208     0BEE                     u2100:
  2209     0BEE                     l1866:
  2210     0BEE  01A6               	clrf	___lwdiv@counter^(0+128)
  2211     0BEF  0AA6               	incf	___lwdiv@counter^(0+128),f
  2212     0BF0  2BFC               	goto	l1872
  2213     0BF1                     l1868:
  2214     0BF1  3001               	movlw	1
  2215     0BF2                     u2115:
  2216     0BF2  1003               	clrc
  2217     0BF3  0DA0               	rlf	___lwdiv@divisor^(0+128),f
  2218     0BF4  0DA1               	rlf	(___lwdiv@divisor+1)^(0+128),f
  2219     0BF5  3EFF               	addlw	-1
  2220     0BF6  1D03               	skipz
  2221     0BF7  2BF2               	goto	u2115
  2222     0BF8                     l1870:
  2223     0BF8  3001               	movlw	1
  2224     0BF9  00FF               	movwf	btemp+1
  2225     0BFA  087F               	movf	btemp+1,w
  2226     0BFB  07A6               	addwf	___lwdiv@counter^(0+128),f
  2227     0BFC                     l1872:
  2228     0BFC  1FA1               	btfss	(___lwdiv@divisor+1)^(0+128),7
  2229     0BFD  2BFF               	goto	u2121
  2230     0BFE  2C00               	goto	u2120
  2231     0BFF                     u2121:
  2232     0BFF  2BF1               	goto	l1868
  2233     0C00                     u2120:
  2234     0C00                     l1874:
  2235     0C00  3001               	movlw	1
  2236     0C01                     u2135:
  2237     0C01  1003               	clrc
  2238     0C02  0DA4               	rlf	___lwdiv@quotient^(0+128),f
  2239     0C03  0DA5               	rlf	(___lwdiv@quotient+1)^(0+128),f
  2240     0C04  3EFF               	addlw	-1
  2241     0C05  1D03               	skipz
  2242     0C06  2C01               	goto	u2135
  2243     0C07  0821               	movf	(___lwdiv@divisor+1)^(0+128),w
  2244     0C08  0223               	subwf	(___lwdiv@dividend+1)^(0+128),w
  2245     0C09  1D03               	skipz
  2246     0C0A  2C0D               	goto	u2145
  2247     0C0B  0820               	movf	___lwdiv@divisor^(0+128),w
  2248     0C0C  0222               	subwf	___lwdiv@dividend^(0+128),w
  2249     0C0D                     u2145:
  2250     0C0D  1C03               	skipc
  2251     0C0E  2C10               	goto	u2141
  2252     0C0F  2C11               	goto	u2140
  2253     0C10                     u2141:
  2254     0C10  2C18               	goto	l1880
  2255     0C11                     u2140:
  2256     0C11                     l1876:
  2257     0C11  0820               	movf	___lwdiv@divisor^(0+128),w
  2258     0C12  02A2               	subwf	___lwdiv@dividend^(0+128),f
  2259     0C13  0821               	movf	(___lwdiv@divisor+1)^(0+128),w
  2260     0C14  1C03               	skipc
  2261     0C15  03A3               	decf	(___lwdiv@dividend+1)^(0+128),f
  2262     0C16  02A3               	subwf	(___lwdiv@dividend+1)^(0+128),f
  2263     0C17                     l1878:
  2264     0C17  1424               	bsf	___lwdiv@quotient^(0+128),0
  2265     0C18                     l1880:
  2266     0C18  3001               	movlw	1
  2267     0C19                     u2155:
  2268     0C19  1003               	clrc
  2269     0C1A  0CA1               	rrf	(___lwdiv@divisor+1)^(0+128),f
  2270     0C1B  0CA0               	rrf	___lwdiv@divisor^(0+128),f
  2271     0C1C  3EFF               	addlw	-1
  2272     0C1D  1D03               	skipz
  2273     0C1E  2C19               	goto	u2155
  2274     0C1F                     l1882:
  2275     0C1F  3001               	movlw	1
  2276     0C20  02A6               	subwf	___lwdiv@counter^(0+128),f
  2277     0C21  1D03               	btfss	3,2
  2278     0C22  2C24               	goto	u2161
  2279     0C23  2C25               	goto	u2160
  2280     0C24                     u2161:
  2281     0C24  2C00               	goto	l1874
  2282     0C25                     u2160:
  2283     0C25                     l1884:
  2284     0C25  0825               	movf	(___lwdiv@quotient+1)^(0+128),w
  2285     0C26  00A1               	movwf	(?___lwdiv+1)^(0+128)
  2286     0C27  0824               	movf	___lwdiv@quotient^(0+128),w
  2287     0C28  00A0               	movwf	?___lwdiv^(0+128)
  2288     0C29                     l622:
  2289     0C29  0008               	return
  2290     0C2A                     __end_of___lwdiv:
  2291                           
  2292                           	psect	text9
  2293     0DBE                     __ptext9:	
  2294 ;; *************** function ___fltol *****************
  2295 ;; Defined at:
  2296 ;;		line 43 in file "C:\Program Files\Microchip\xc8\v2.41\pic\sources\c90\common\fltol.c"
  2297 ;; Parameters:    Size  Location     Type
  2298 ;;  f1              4   46[BANK1 ] unsigned int 
  2299 ;; Auto vars:     Size  Location     Type
  2300 ;;  exp1            1   55[BANK1 ] unsigned char 
  2301 ;;  sign1           1   54[BANK1 ] unsigned char 
  2302 ;; Return value:  Size  Location     Type
  2303 ;;                  4   46[BANK1 ] long 
  2304 ;; Registers used:
  2305 ;;		wreg, status,2, status,0, btemp+1
  2306 ;; Tracked objects:
  2307 ;;		On entry : 0/0
  2308 ;;		On exit  : 0/0
  2309 ;;		Unchanged: 0/0
  2310 ;; Data sizes:     COMMON   BANK0   BANK1   BANK3   BANK2
  2311 ;;      Params:         0       0       4       0       0
  2312 ;;      Locals:         0       0       2       0       0
  2313 ;;      Temps:          0       0       4       0       0
  2314 ;;      Totals:         0       0      10       0       0
  2315 ;;Total ram usage:       10 bytes
  2316 ;; Hardware stack levels used: 1
  2317 ;; Hardware stack levels required when called: 4
  2318 ;; This function calls:
  2319 ;;		Nothing
  2320 ;; This function is called by:
  2321 ;;		_adcPosControl
  2322 ;;		_servoAngle
  2323 ;; This function uses a non-reentrant model
  2324 ;;
  2325                           
  2326     0DBE                     ___fltol:	
  2327                           ;psect for function ___fltol
  2328                           
  2329     0DBE                     l1824:	
  2330                           ;incstack = 0
  2331                           ; Regs used in ___fltol: [wreg+status,2+status,0+btemp+1]
  2332                           
  2333     0DBE  1003               	clrc
  2334     0DBF  1683               	bsf	3,5	;RP0=1, select bank1
  2335     0DC0  1303               	bcf	3,6	;RP1=0, select bank1
  2336     0DC1  0D50               	rlf	(___fltol@f1+2)^(0+128),w
  2337     0DC2  0D51               	rlf	(___fltol@f1+3)^(0+128),w
  2338     0DC3  00D7               	movwf	___fltol@exp1^(0+128)
  2339     0DC4  0857               	movf	___fltol@exp1^(0+128),w
  2340     0DC5  1D03               	btfss	3,2
  2341     0DC6  2DC8               	goto	u2001
  2342     0DC7  2DC9               	goto	u2000
  2343     0DC8                     u2001:
  2344     0DC8  2DD2               	goto	l1830
  2345     0DC9                     u2000:
  2346     0DC9                     l1826:
  2347     0DC9  3000               	movlw	0
  2348     0DCA  00D1               	movwf	(?___fltol+3)^(0+128)
  2349     0DCB  3000               	movlw	0
  2350     0DCC  00D0               	movwf	(?___fltol+2)^(0+128)
  2351     0DCD  3000               	movlw	0
  2352     0DCE  00CF               	movwf	(?___fltol+1)^(0+128)
  2353     0DCF  3000               	movlw	0
  2354     0DD0  00CE               	movwf	?___fltol^(0+128)
  2355     0DD1  2E35               	goto	l536
  2356     0DD2                     l1830:
  2357     0DD2  084E               	movf	___fltol@f1^(0+128),w
  2358     0DD3  00D2               	movwf	??___fltol^(0+128)
  2359     0DD4  084F               	movf	(___fltol@f1+1)^(0+128),w
  2360     0DD5  00D3               	movwf	(??___fltol^(0+128)+1)
  2361     0DD6  0850               	movf	(___fltol@f1+2)^(0+128),w
  2362     0DD7  00D4               	movwf	(??___fltol^(0+128)+2)
  2363     0DD8  0851               	movf	(___fltol@f1+3)^(0+128),w
  2364     0DD9  00D5               	movwf	(??___fltol^(0+128)+3)
  2365     0DDA  301F               	movlw	31
  2366     0DDB                     u2015:
  2367     0DDB  1003               	clrc
  2368     0DDC  0CD5               	rrf	(??___fltol^(0+128)+3),f
  2369     0DDD  0CD4               	rrf	(??___fltol^(0+128)+2),f
  2370     0DDE  0CD3               	rrf	(??___fltol^(0+128)+1),f
  2371     0DDF  0CD2               	rrf	??___fltol^(0+128),f
  2372     0DE0                     u2010:
  2373     0DE0  3EFF               	addlw	-1
  2374     0DE1  1D03               	skipz
  2375     0DE2  2DDB               	goto	u2015
  2376     0DE3  0852               	movf	??___fltol^(0+128),w
  2377     0DE4  00D6               	movwf	___fltol@sign1^(0+128)
  2378     0DE5                     l1832:
  2379     0DE5  17D0               	bsf	(___fltol@f1^(0+128)+2),7
  2380     0DE6                     l1834:
  2381     0DE6  30FF               	movlw	255
  2382     0DE7  05CE               	andwf	___fltol@f1^(0+128),f
  2383     0DE8  30FF               	movlw	255
  2384     0DE9  05CF               	andwf	(___fltol@f1+1)^(0+128),f
  2385     0DEA  30FF               	movlw	255
  2386     0DEB  05D0               	andwf	(___fltol@f1+2)^(0+128),f
  2387     0DEC  3000               	movlw	0
  2388     0DED  05D1               	andwf	(___fltol@f1+3)^(0+128),f
  2389     0DEE                     l1836:
  2390     0DEE  3096               	movlw	150
  2391     0DEF  02D7               	subwf	___fltol@exp1^(0+128),f
  2392     0DF0                     l1838:
  2393     0DF0  1FD7               	btfss	___fltol@exp1^(0+128),7
  2394     0DF1  2DF3               	goto	u2021
  2395     0DF2  2DF4               	goto	u2020
  2396     0DF3                     u2021:
  2397     0DF3  2E0E               	goto	l1850
  2398     0DF4                     u2020:
  2399     0DF4                     l1840:
  2400     0DF4  0857               	movf	___fltol@exp1^(0+128),w
  2401     0DF5  3A80               	xorlw	128
  2402     0DF6  3E97               	addlw	151
  2403     0DF7  1803               	skipnc
  2404     0DF8  2DFA               	goto	u2031
  2405     0DF9  2DFB               	goto	u2030
  2406     0DFA                     u2031:
  2407     0DFA  2DFC               	goto	l1846
  2408     0DFB                     u2030:
  2409     0DFB  2DC9               	goto	l1826
  2410     0DFC                     l1846:
  2411     0DFC  3001               	movlw	1
  2412     0DFD                     u2045:
  2413     0DFD  1003               	clrc
  2414     0DFE  0CD1               	rrf	(___fltol@f1+3)^(0+128),f
  2415     0DFF  0CD0               	rrf	(___fltol@f1+2)^(0+128),f
  2416     0E00  0CCF               	rrf	(___fltol@f1+1)^(0+128),f
  2417     0E01  0CCE               	rrf	___fltol@f1^(0+128),f
  2418     0E02  3EFF               	addlw	-1
  2419     0E03  1D03               	skipz
  2420     0E04  2DFD               	goto	u2045
  2421     0E05                     l1848:
  2422     0E05  3001               	movlw	1
  2423     0E06  00FF               	movwf	btemp+1
  2424     0E07  087F               	movf	btemp+1,w
  2425     0E08  07D7               	addwf	___fltol@exp1^(0+128),f
  2426     0E09  1D03               	btfss	3,2
  2427     0E0A  2E0C               	goto	u2051
  2428     0E0B  2E0D               	goto	u2050
  2429     0E0C                     u2051:
  2430     0E0C  2DFC               	goto	l1846
  2431     0E0D                     u2050:
  2432     0E0D  2E25               	goto	l1858
  2433     0E0E                     l1850:
  2434     0E0E  3020               	movlw	32
  2435     0E0F  0257               	subwf	___fltol@exp1^(0+128),w
  2436     0E10  1C03               	skipc
  2437     0E11  2E13               	goto	u2061
  2438     0E12  2E14               	goto	u2060
  2439     0E13                     u2061:
  2440     0E13  2E20               	goto	l543
  2441     0E14                     u2060:
  2442     0E14  2DC9               	goto	l1826
  2443     0E15                     l1856:
  2444     0E15  3001               	movlw	1
  2445     0E16  00D2               	movwf	??___fltol^(0+128)
  2446     0E17                     u2075:
  2447     0E17  1003               	clrc
  2448     0E18  0DCE               	rlf	___fltol@f1^(0+128),f
  2449     0E19  0DCF               	rlf	(___fltol@f1+1)^(0+128),f
  2450     0E1A  0DD0               	rlf	(___fltol@f1+2)^(0+128),f
  2451     0E1B  0DD1               	rlf	(___fltol@f1+3)^(0+128),f
  2452     0E1C  0BD2               	decfsz	??___fltol^(0+128),f
  2453     0E1D  2E17               	goto	u2075
  2454     0E1E  3001               	movlw	1
  2455     0E1F  02D7               	subwf	___fltol@exp1^(0+128),f
  2456     0E20                     l543:
  2457     0E20  0857               	movf	___fltol@exp1^(0+128),w
  2458     0E21  1D03               	btfss	3,2
  2459     0E22  2E24               	goto	u2081
  2460     0E23  2E25               	goto	u2080
  2461     0E24                     u2081:
  2462     0E24  2E15               	goto	l1856
  2463     0E25                     u2080:
  2464     0E25                     l1858:
  2465     0E25  0856               	movf	___fltol@sign1^(0+128),w
  2466     0E26  1903               	btfsc	3,2
  2467     0E27  2E29               	goto	u2091
  2468     0E28  2E2A               	goto	u2090
  2469     0E29                     u2091:
  2470     0E29  2E35               	goto	l546
  2471     0E2A                     u2090:
  2472     0E2A                     l1860:
  2473     0E2A  09CE               	comf	___fltol@f1^(0+128),f
  2474     0E2B  09CF               	comf	(___fltol@f1+1)^(0+128),f
  2475     0E2C  09D0               	comf	(___fltol@f1+2)^(0+128),f
  2476     0E2D  09D1               	comf	(___fltol@f1+3)^(0+128),f
  2477     0E2E  0ACE               	incf	___fltol@f1^(0+128),f
  2478     0E2F  1903               	skipnz
  2479     0E30  0ACF               	incf	(___fltol@f1+1)^(0+128),f
  2480     0E31  1903               	skipnz
  2481     0E32  0AD0               	incf	(___fltol@f1+2)^(0+128),f
  2482     0E33  1903               	skipnz
  2483     0E34  0AD1               	incf	(___fltol@f1+3)^(0+128),f
  2484     0E35                     l546:
  2485     0E35                     l536:
  2486     0E35  0008               	return
  2487     0E36                     __end_of___fltol:
  2488                           
  2489                           	psect	text10
  2490     0380                     __ptext10:	
  2491 ;; *************** function ___fldiv *****************
  2492 ;; Defined at:
  2493 ;;		line 8 in file "C:\Program Files\Microchip\xc8\v2.41\pic\sources\c90\common\sprcdiv.c"
  2494 ;; Parameters:    Size  Location     Type
  2495 ;;  a               4   20[BANK1 ] long 
  2496 ;;  b               4   24[BANK1 ] long 
  2497 ;; Auto vars:     Size  Location     Type
  2498 ;;  grs             4   40[BANK1 ] unsigned long 
  2499 ;;  rem             4   33[BANK1 ] unsigned long 
  2500 ;;  new_exp         2   38[BANK1 ] int 
  2501 ;;  aexp            1   45[BANK1 ] unsigned char 
  2502 ;;  bexp            1   44[BANK1 ] unsigned char 
  2503 ;;  sign            1   37[BANK1 ] unsigned char 
  2504 ;; Return value:  Size  Location     Type
  2505 ;;                  4   20[BANK1 ] unsigned char 
  2506 ;; Registers used:
  2507 ;;		wreg, status,2, status,0, btemp+1
  2508 ;; Tracked objects:
  2509 ;;		On entry : 0/0
  2510 ;;		On exit  : 0/0
  2511 ;;		Unchanged: 0/0
  2512 ;; Data sizes:     COMMON   BANK0   BANK1   BANK3   BANK2
  2513 ;;      Params:         0       0       8       0       0
  2514 ;;      Locals:         0       0      13       0       0
  2515 ;;      Temps:          0       0       5       0       0
  2516 ;;      Totals:         0       0      26       0       0
  2517 ;;Total ram usage:       26 bytes
  2518 ;; Hardware stack levels used: 1
  2519 ;; Hardware stack levels required when called: 4
  2520 ;; This function calls:
  2521 ;;		Nothing
  2522 ;; This function is called by:
  2523 ;;		_adcPosControl
  2524 ;;		_servoAngle
  2525 ;;		_ADC_lm35toDeg
  2526 ;; This function uses a non-reentrant model
  2527 ;;
  2528                           
  2529     0380                     ___fldiv:	
  2530                           ;psect for function ___fldiv
  2531                           
  2532     0380                     l1888:	
  2533                           ;incstack = 0
  2534                           ; Regs used in ___fldiv: [wreg+status,2+status,0+btemp+1]
  2535                           
  2536     0380  1683               	bsf	3,5	;RP0=1, select bank1
  2537     0381  1303               	bcf	3,6	;RP1=0, select bank1
  2538     0382  083B               	movf	(___fldiv@b^(0+128)+3),w
  2539     0383  3980               	andlw	128
  2540     0384  00C5               	movwf	___fldiv@sign^(0+128)
  2541     0385                     l1890:
  2542     0385  083B               	movf	(___fldiv@b^(0+128)+3),w
  2543     0386  00BC               	movwf	??___fldiv^(0+128)
  2544     0387  073C               	addwf	??___fldiv^(0+128),w
  2545     0388  00CC               	movwf	___fldiv@bexp^(0+128)
  2546     0389                     l1892:
  2547     0389  1FBA               	btfss	(___fldiv@b^(0+128)+2),7
  2548     038A  2B8C               	goto	u2171
  2549     038B  2B8D               	goto	u2170
  2550     038C                     u2171:
  2551     038C  2B8E               	goto	l1896
  2552     038D                     u2170:
  2553     038D                     l1894:
  2554     038D  144C               	bsf	___fldiv@bexp^(0+128),0
  2555     038E                     l1896:
  2556     038E  084C               	movf	___fldiv@bexp^(0+128),w
  2557     038F  1903               	btfsc	3,2
  2558     0390  2B92               	goto	u2181
  2559     0391  2B93               	goto	u2180
  2560     0392                     u2181:
  2561     0392  2BA3               	goto	l1906
  2562     0393                     u2180:
  2563     0393                     l1898:
  2564     0393  0A4C               	incf	___fldiv@bexp^(0+128),w
  2565     0394  1D03               	btfss	3,2
  2566     0395  2B97               	goto	u2191
  2567     0396  2B98               	goto	u2190
  2568     0397                     u2191:
  2569     0397  2BA0               	goto	l1902
  2570     0398                     u2190:
  2571     0398                     l1900:
  2572     0398  3000               	movlw	0
  2573     0399  00BB               	movwf	(___fldiv@b+3)^(0+128)
  2574     039A  3000               	movlw	0
  2575     039B  00BA               	movwf	(___fldiv@b+2)^(0+128)
  2576     039C  3000               	movlw	0
  2577     039D  00B9               	movwf	(___fldiv@b+1)^(0+128)
  2578     039E  3000               	movlw	0
  2579     039F  00B8               	movwf	___fldiv@b^(0+128)
  2580     03A0                     l1902:
  2581     03A0  17BA               	bsf	(___fldiv@b^(0+128)+2),7
  2582     03A1                     l1904:
  2583     03A1  01BB               	clrf	(___fldiv@b^(0+128)+3)
  2584     03A2  2BAB               	goto	l1908
  2585     03A3                     l1906:
  2586     03A3  3000               	movlw	0
  2587     03A4  00BB               	movwf	(___fldiv@b+3)^(0+128)
  2588     03A5  3000               	movlw	0
  2589     03A6  00BA               	movwf	(___fldiv@b+2)^(0+128)
  2590     03A7  3000               	movlw	0
  2591     03A8  00B9               	movwf	(___fldiv@b+1)^(0+128)
  2592     03A9  3000               	movlw	0
  2593     03AA  00B8               	movwf	___fldiv@b^(0+128)
  2594     03AB                     l1908:
  2595     03AB  0837               	movf	(___fldiv@a^(0+128)+3),w
  2596     03AC  3980               	andlw	128
  2597     03AD  00FF               	movwf	btemp+1
  2598     03AE  087F               	movf	btemp+1,w
  2599     03AF  06C5               	xorwf	___fldiv@sign^(0+128),f
  2600     03B0                     l1910:
  2601     03B0  0837               	movf	(___fldiv@a^(0+128)+3),w
  2602     03B1  00BC               	movwf	??___fldiv^(0+128)
  2603     03B2  073C               	addwf	??___fldiv^(0+128),w
  2604     03B3  00CD               	movwf	___fldiv@aexp^(0+128)
  2605     03B4                     l1912:
  2606     03B4  1FB6               	btfss	(___fldiv@a^(0+128)+2),7
  2607     03B5  2BB7               	goto	u2201
  2608     03B6  2BB8               	goto	u2200
  2609     03B7                     u2201:
  2610     03B7  2BB9               	goto	l1916
  2611     03B8                     u2200:
  2612     03B8                     l1914:
  2613     03B8  144D               	bsf	___fldiv@aexp^(0+128),0
  2614     03B9                     l1916:
  2615     03B9  084D               	movf	___fldiv@aexp^(0+128),w
  2616     03BA  1903               	btfsc	3,2
  2617     03BB  2BBD               	goto	u2211
  2618     03BC  2BBE               	goto	u2210
  2619     03BD                     u2211:
  2620     03BD  2BCE               	goto	l1926
  2621     03BE                     u2210:
  2622     03BE                     l1918:
  2623     03BE  0A4D               	incf	___fldiv@aexp^(0+128),w
  2624     03BF  1D03               	btfss	3,2
  2625     03C0  2BC2               	goto	u2221
  2626     03C1  2BC3               	goto	u2220
  2627     03C2                     u2221:
  2628     03C2  2BCB               	goto	l1922
  2629     03C3                     u2220:
  2630     03C3                     l1920:
  2631     03C3  3000               	movlw	0
  2632     03C4  00B7               	movwf	(___fldiv@a+3)^(0+128)
  2633     03C5  3000               	movlw	0
  2634     03C6  00B6               	movwf	(___fldiv@a+2)^(0+128)
  2635     03C7  3000               	movlw	0
  2636     03C8  00B5               	movwf	(___fldiv@a+1)^(0+128)
  2637     03C9  3000               	movlw	0
  2638     03CA  00B4               	movwf	___fldiv@a^(0+128)
  2639     03CB                     l1922:
  2640     03CB  17B6               	bsf	(___fldiv@a^(0+128)+2),7
  2641     03CC                     l1924:
  2642     03CC  01B7               	clrf	(___fldiv@a^(0+128)+3)
  2643     03CD  2BD6               	goto	l699
  2644     03CE                     l1926:
  2645     03CE  3000               	movlw	0
  2646     03CF  00B7               	movwf	(___fldiv@a+3)^(0+128)
  2647     03D0  3000               	movlw	0
  2648     03D1  00B6               	movwf	(___fldiv@a+2)^(0+128)
  2649     03D2  3000               	movlw	0
  2650     03D3  00B5               	movwf	(___fldiv@a+1)^(0+128)
  2651     03D4  3000               	movlw	0
  2652     03D5  00B4               	movwf	___fldiv@a^(0+128)
  2653     03D6                     l699:
  2654     03D6  0837               	movf	(___fldiv@a+3)^(0+128),w
  2655     03D7  0436               	iorwf	(___fldiv@a+2)^(0+128),w
  2656     03D8  0435               	iorwf	(___fldiv@a+1)^(0+128),w
  2657     03D9  0434               	iorwf	___fldiv@a^(0+128),w
  2658     03DA  1D03               	skipz
  2659     03DB  2BDD               	goto	u2231
  2660     03DC  2BDE               	goto	u2230
  2661     03DD                     u2231:
  2662     03DD  2BF7               	goto	l1936
  2663     03DE                     u2230:
  2664     03DE                     l1928:
  2665     03DE  3000               	movlw	0
  2666     03DF  00BB               	movwf	(___fldiv@b+3)^(0+128)
  2667     03E0  3000               	movlw	0
  2668     03E1  00BA               	movwf	(___fldiv@b+2)^(0+128)
  2669     03E2  3000               	movlw	0
  2670     03E3  00B9               	movwf	(___fldiv@b+1)^(0+128)
  2671     03E4  3000               	movlw	0
  2672     03E5  00B8               	movwf	___fldiv@b^(0+128)
  2673     03E6  3080               	movlw	128
  2674     03E7  04BA               	iorwf	(___fldiv@b^(0+128)+2),f
  2675     03E8  307F               	movlw	127
  2676     03E9  04BB               	iorwf	((___fldiv@b+1)^(0+128)+2),f
  2677     03EA                     l1930:
  2678     03EA  0845               	movf	___fldiv@sign^(0+128),w
  2679     03EB  00FF               	movwf	btemp+1
  2680     03EC  087F               	movf	btemp+1,w
  2681     03ED  04BB               	iorwf	(___fldiv@b^(0+128)+3),f
  2682     03EE                     l1932:
  2683     03EE  083B               	movf	(___fldiv@b+3)^(0+128),w
  2684     03EF  00B7               	movwf	(?___fldiv+3)^(0+128)
  2685     03F0  083A               	movf	(___fldiv@b+2)^(0+128),w
  2686     03F1  00B6               	movwf	(?___fldiv+2)^(0+128)
  2687     03F2  0839               	movf	(___fldiv@b+1)^(0+128),w
  2688     03F3  00B5               	movwf	(?___fldiv+1)^(0+128)
  2689     03F4  0838               	movf	___fldiv@b^(0+128),w
  2690     03F5  00B4               	movwf	?___fldiv^(0+128)
  2691     03F6  2D4E               	goto	l701
  2692     03F7                     l1936:
  2693     03F7  084C               	movf	___fldiv@bexp^(0+128),w
  2694     03F8  1D03               	btfss	3,2
  2695     03F9  2BFB               	goto	u2241
  2696     03FA  2BFC               	goto	u2240
  2697     03FB                     u2241:
  2698     03FB  2C05               	goto	l1942
  2699     03FC                     u2240:
  2700     03FC                     l1938:
  2701     03FC  3000               	movlw	0
  2702     03FD  00B7               	movwf	(?___fldiv+3)^(0+128)
  2703     03FE  3000               	movlw	0
  2704     03FF  00B6               	movwf	(?___fldiv+2)^(0+128)
  2705     0400  3000               	movlw	0
  2706     0401  00B5               	movwf	(?___fldiv+1)^(0+128)
  2707     0402  3000               	movlw	0
  2708     0403  00B4               	movwf	?___fldiv^(0+128)
  2709     0404  2D4E               	goto	l701
  2710     0405                     l1942:
  2711     0405  084C               	movf	___fldiv@bexp^(0+128),w
  2712     0406  00BC               	movwf	??___fldiv^(0+128)
  2713     0407  01BD               	clrf	(??___fldiv^(0+128)+1)
  2714     0408  083D               	movf	(??___fldiv+1)^(0+128),w
  2715     0409  00BF               	movwf	((??___fldiv+2)^(0+128)+1)
  2716     040A  084D               	movf	___fldiv@aexp^(0+128),w
  2717     040B  023C               	subwf	??___fldiv^(0+128),w
  2718     040C  00BE               	movwf	(??___fldiv+2)^(0+128)
  2719     040D  1C03               	skipc
  2720     040E  03BF               	decf	((??___fldiv+2)^(0+128)+1),f
  2721     040F  083E               	movf	(??___fldiv+2)^(0+128),w
  2722     0410  3E7F               	addlw	127
  2723     0411  00C6               	movwf	___fldiv@new_exp^(0+128)
  2724     0412  083F               	movf	(??___fldiv+3)^(0+128),w
  2725     0413  1803               	skipnc
  2726     0414  3E01               	addlw	1
  2727     0415  3E00               	addlw	0
  2728     0416  00C7               	movwf	(___fldiv@new_exp+1)^(0+128)
  2729     0417                     l1944:
  2730     0417  083B               	movf	(___fldiv@b+3)^(0+128),w
  2731     0418  00C4               	movwf	(___fldiv@rem+3)^(0+128)
  2732     0419  083A               	movf	(___fldiv@b+2)^(0+128),w
  2733     041A  00C3               	movwf	(___fldiv@rem+2)^(0+128)
  2734     041B  0839               	movf	(___fldiv@b+1)^(0+128),w
  2735     041C  00C2               	movwf	(___fldiv@rem+1)^(0+128)
  2736     041D  0838               	movf	___fldiv@b^(0+128),w
  2737     041E  00C1               	movwf	___fldiv@rem^(0+128)
  2738     041F                     l1946:
  2739     041F  3000               	movlw	0
  2740     0420  00BB               	movwf	(___fldiv@b+3)^(0+128)
  2741     0421  3000               	movlw	0
  2742     0422  00BA               	movwf	(___fldiv@b+2)^(0+128)
  2743     0423  3000               	movlw	0
  2744     0424  00B9               	movwf	(___fldiv@b+1)^(0+128)
  2745     0425  3000               	movlw	0
  2746     0426  00B8               	movwf	___fldiv@b^(0+128)
  2747     0427                     l1948:
  2748     0427  3000               	movlw	0
  2749     0428  00CB               	movwf	(___fldiv@grs+3)^(0+128)
  2750     0429  3000               	movlw	0
  2751     042A  00CA               	movwf	(___fldiv@grs+2)^(0+128)
  2752     042B  3000               	movlw	0
  2753     042C  00C9               	movwf	(___fldiv@grs+1)^(0+128)
  2754     042D  3000               	movlw	0
  2755     042E  00C8               	movwf	___fldiv@grs^(0+128)
  2756     042F                     l1950:
  2757     042F  01CD               	clrf	___fldiv@aexp^(0+128)
  2758     0430  2C7B               	goto	l1970
  2759     0431                     l1952:
  2760     0431  084D               	movf	___fldiv@aexp^(0+128),w
  2761     0432  1903               	btfsc	3,2
  2762     0433  2C35               	goto	u2251
  2763     0434  2C36               	goto	u2250
  2764     0435                     u2251:
  2765     0435  2C56               	goto	l1962
  2766     0436                     u2250:
  2767     0436                     l1954:
  2768     0436  3001               	movlw	1
  2769     0437  00BC               	movwf	??___fldiv^(0+128)
  2770     0438                     u2265:
  2771     0438  1003               	clrc
  2772     0439  0DC1               	rlf	___fldiv@rem^(0+128),f
  2773     043A  0DC2               	rlf	(___fldiv@rem+1)^(0+128),f
  2774     043B  0DC3               	rlf	(___fldiv@rem+2)^(0+128),f
  2775     043C  0DC4               	rlf	(___fldiv@rem+3)^(0+128),f
  2776     043D  0BBC               	decfsz	??___fldiv^(0+128),f
  2777     043E  2C38               	goto	u2265
  2778     043F  3001               	movlw	1
  2779     0440  00BC               	movwf	??___fldiv^(0+128)
  2780     0441                     u2275:
  2781     0441  1003               	clrc
  2782     0442  0DB8               	rlf	___fldiv@b^(0+128),f
  2783     0443  0DB9               	rlf	(___fldiv@b+1)^(0+128),f
  2784     0444  0DBA               	rlf	(___fldiv@b+2)^(0+128),f
  2785     0445  0DBB               	rlf	(___fldiv@b+3)^(0+128),f
  2786     0446  0BBC               	decfsz	??___fldiv^(0+128),f
  2787     0447  2C41               	goto	u2275
  2788     0448                     l1956:
  2789     0448  1FCB               	btfss	(___fldiv@grs+3)^(0+128),7
  2790     0449  2C4B               	goto	u2281
  2791     044A  2C4C               	goto	u2280
  2792     044B                     u2281:
  2793     044B  2C4D               	goto	l1960
  2794     044C                     u2280:
  2795     044C                     l1958:
  2796     044C  1438               	bsf	___fldiv@b^(0+128),0
  2797     044D                     l1960:
  2798     044D  3001               	movlw	1
  2799     044E  00BC               	movwf	??___fldiv^(0+128)
  2800     044F                     u2295:
  2801     044F  1003               	clrc
  2802     0450  0DC8               	rlf	___fldiv@grs^(0+128),f
  2803     0451  0DC9               	rlf	(___fldiv@grs+1)^(0+128),f
  2804     0452  0DCA               	rlf	(___fldiv@grs+2)^(0+128),f
  2805     0453  0DCB               	rlf	(___fldiv@grs+3)^(0+128),f
  2806     0454  0BBC               	decfsz	??___fldiv^(0+128),f
  2807     0455  2C4F               	goto	u2295
  2808     0456                     l1962:
  2809     0456  0837               	movf	(___fldiv@a+3)^(0+128),w
  2810     0457  0244               	subwf	(___fldiv@rem+3)^(0+128),w
  2811     0458  1D03               	skipz
  2812     0459  2C64               	goto	u2305
  2813     045A  0836               	movf	(___fldiv@a+2)^(0+128),w
  2814     045B  0243               	subwf	(___fldiv@rem+2)^(0+128),w
  2815     045C  1D03               	skipz
  2816     045D  2C64               	goto	u2305
  2817     045E  0835               	movf	(___fldiv@a+1)^(0+128),w
  2818     045F  0242               	subwf	(___fldiv@rem+1)^(0+128),w
  2819     0460  1D03               	skipz
  2820     0461  2C64               	goto	u2305
  2821     0462  0834               	movf	___fldiv@a^(0+128),w
  2822     0463  0241               	subwf	___fldiv@rem^(0+128),w
  2823     0464                     u2305:
  2824     0464  1C03               	skipc
  2825     0465  2C67               	goto	u2301
  2826     0466  2C68               	goto	u2300
  2827     0467                     u2301:
  2828     0467  2C77               	goto	l1968
  2829     0468                     u2300:
  2830     0468                     l1964:
  2831     0468  174B               	bsf	(___fldiv@grs^(0+128)+3),6
  2832     0469                     l1966:
  2833     0469  0834               	movf	___fldiv@a^(0+128),w
  2834     046A  02C1               	subwf	___fldiv@rem^(0+128),f
  2835     046B  0835               	movf	(___fldiv@a+1)^(0+128),w
  2836     046C  1C03               	skipc
  2837     046D  0F35               	incfsz	(___fldiv@a+1)^(0+128),w
  2838     046E  02C2               	subwf	(___fldiv@rem+1)^(0+128),f
  2839     046F  0836               	movf	(___fldiv@a+2)^(0+128),w
  2840     0470  1C03               	skipc
  2841     0471  0F36               	incfsz	(___fldiv@a+2)^(0+128),w
  2842     0472  02C3               	subwf	(___fldiv@rem+2)^(0+128),f
  2843     0473  0837               	movf	(___fldiv@a+3)^(0+128),w
  2844     0474  1C03               	skipc
  2845     0475  0F37               	incfsz	(___fldiv@a+3)^(0+128),w
  2846     0476  02C4               	subwf	(___fldiv@rem+3)^(0+128),f
  2847     0477                     l1968:
  2848     0477  3001               	movlw	1
  2849     0478  00FF               	movwf	btemp+1
  2850     0479  087F               	movf	btemp+1,w
  2851     047A  07CD               	addwf	___fldiv@aexp^(0+128),f
  2852     047B                     l1970:
  2853     047B  301A               	movlw	26
  2854     047C  024D               	subwf	___fldiv@aexp^(0+128),w
  2855     047D  1C03               	skipc
  2856     047E  2C80               	goto	u2311
  2857     047F  2C81               	goto	u2310
  2858     0480                     u2311:
  2859     0480  2C31               	goto	l1952
  2860     0481                     u2310:
  2861     0481                     l1972:
  2862     0481  0844               	movf	(___fldiv@rem+3)^(0+128),w
  2863     0482  0443               	iorwf	(___fldiv@rem+2)^(0+128),w
  2864     0483  0442               	iorwf	(___fldiv@rem+1)^(0+128),w
  2865     0484  0441               	iorwf	___fldiv@rem^(0+128),w
  2866     0485  1903               	skipnz
  2867     0486  2C88               	goto	u2321
  2868     0487  2C89               	goto	u2320
  2869     0488                     u2321:
  2870     0488  2CA8               	goto	l1986
  2871     0489                     u2320:
  2872     0489                     l1974:
  2873     0489  1448               	bsf	___fldiv@grs^(0+128),0
  2874     048A  2CA8               	goto	l1986
  2875     048B                     l1976:
  2876     048B  3001               	movlw	1
  2877     048C  00BC               	movwf	??___fldiv^(0+128)
  2878     048D                     u2335:
  2879     048D  1003               	clrc
  2880     048E  0DB8               	rlf	___fldiv@b^(0+128),f
  2881     048F  0DB9               	rlf	(___fldiv@b+1)^(0+128),f
  2882     0490  0DBA               	rlf	(___fldiv@b+2)^(0+128),f
  2883     0491  0DBB               	rlf	(___fldiv@b+3)^(0+128),f
  2884     0492  0BBC               	decfsz	??___fldiv^(0+128),f
  2885     0493  2C8D               	goto	u2335
  2886     0494                     l1978:
  2887     0494  1FCB               	btfss	(___fldiv@grs+3)^(0+128),7
  2888     0495  2C97               	goto	u2341
  2889     0496  2C98               	goto	u2340
  2890     0497                     u2341:
  2891     0497  2C99               	goto	l1982
  2892     0498                     u2340:
  2893     0498                     l1980:
  2894     0498  1438               	bsf	___fldiv@b^(0+128),0
  2895     0499                     l1982:
  2896     0499  3001               	movlw	1
  2897     049A  00BC               	movwf	??___fldiv^(0+128)
  2898     049B                     u2355:
  2899     049B  1003               	clrc
  2900     049C  0DC8               	rlf	___fldiv@grs^(0+128),f
  2901     049D  0DC9               	rlf	(___fldiv@grs+1)^(0+128),f
  2902     049E  0DCA               	rlf	(___fldiv@grs+2)^(0+128),f
  2903     049F  0DCB               	rlf	(___fldiv@grs+3)^(0+128),f
  2904     04A0  0BBC               	decfsz	??___fldiv^(0+128),f
  2905     04A1  2C9B               	goto	u2355
  2906     04A2                     l1984:
  2907     04A2  30FF               	movlw	255
  2908     04A3  07C6               	addwf	___fldiv@new_exp^(0+128),f
  2909     04A4  1803               	skipnc
  2910     04A5  0AC7               	incf	(___fldiv@new_exp+1)^(0+128),f
  2911     04A6  30FF               	movlw	255
  2912     04A7  07C7               	addwf	(___fldiv@new_exp+1)^(0+128),f
  2913     04A8                     l1986:
  2914     04A8  1FBA               	btfss	(___fldiv@b+2)^(0+128),7
  2915     04A9  2CAB               	goto	u2361
  2916     04AA  2CAC               	goto	u2360
  2917     04AB                     u2361:
  2918     04AB  2C8B               	goto	l1976
  2919     04AC                     u2360:
  2920     04AC                     l1988:
  2921     04AC  01CD               	clrf	___fldiv@aexp^(0+128)
  2922     04AD                     l1990:
  2923     04AD  1FCB               	btfss	(___fldiv@grs+3)^(0+128),7
  2924     04AE  2CB0               	goto	u2371
  2925     04AF  2CB1               	goto	u2370
  2926     04B0                     u2371:
  2927     04B0  2CCD               	goto	l1998
  2928     04B1                     u2370:
  2929     04B1                     l1992:
  2930     04B1  30FF               	movlw	255
  2931     04B2  0548               	andwf	___fldiv@grs^(0+128),w
  2932     04B3  00BC               	movwf	??___fldiv^(0+128)
  2933     04B4  30FF               	movlw	255
  2934     04B5  0549               	andwf	(___fldiv@grs+1)^(0+128),w
  2935     04B6  00BD               	movwf	(??___fldiv^(0+128)+1)
  2936     04B7  30FF               	movlw	255
  2937     04B8  054A               	andwf	(___fldiv@grs+2)^(0+128),w
  2938     04B9  00BE               	movwf	(??___fldiv^(0+128)+2)
  2939     04BA  307F               	movlw	127
  2940     04BB  054B               	andwf	(___fldiv@grs+3)^(0+128),w
  2941     04BC  00BF               	movwf	(??___fldiv^(0+128)+3)
  2942     04BD  083F               	movf	(??___fldiv+3)^(0+128),w
  2943     04BE  043E               	iorwf	(??___fldiv+2)^(0+128),w
  2944     04BF  043D               	iorwf	(??___fldiv+1)^(0+128),w
  2945     04C0  043C               	iorwf	??___fldiv^(0+128),w
  2946     04C1  1903               	skipnz
  2947     04C2  2CC4               	goto	u2381
  2948     04C3  2CC5               	goto	u2380
  2949     04C4                     u2381:
  2950     04C4  2CC8               	goto	l715
  2951     04C5                     u2380:
  2952     04C5                     l1994:
  2953     04C5  01CD               	clrf	___fldiv@aexp^(0+128)
  2954     04C6  0ACD               	incf	___fldiv@aexp^(0+128),f
  2955     04C7  2CCD               	goto	l1998
  2956     04C8                     l715:
  2957     04C8  1C38               	btfss	___fldiv@b^(0+128),0
  2958     04C9  2CCB               	goto	u2391
  2959     04CA  2CCC               	goto	u2390
  2960     04CB                     u2391:
  2961     04CB  2CCD               	goto	l1998
  2962     04CC                     u2390:
  2963     04CC  2CC5               	goto	l1994
  2964     04CD                     l1998:
  2965     04CD  084D               	movf	___fldiv@aexp^(0+128),w
  2966     04CE  1903               	btfsc	3,2
  2967     04CF  2CD1               	goto	u2401
  2968     04D0  2CD2               	goto	u2400
  2969     04D1                     u2401:
  2970     04D1  2D03               	goto	l2008
  2971     04D2                     u2400:
  2972     04D2                     l2000:
  2973     04D2  3001               	movlw	1
  2974     04D3  07B8               	addwf	___fldiv@b^(0+128),f
  2975     04D4  3000               	movlw	0
  2976     04D5  1803               	skipnc
  2977     04D6  3001               	movlw	1
  2978     04D7  07B9               	addwf	(___fldiv@b+1)^(0+128),f
  2979     04D8  3000               	movlw	0
  2980     04D9  1803               	skipnc
  2981     04DA  3001               	movlw	1
  2982     04DB  07BA               	addwf	(___fldiv@b+2)^(0+128),f
  2983     04DC  3000               	movlw	0
  2984     04DD  1803               	skipnc
  2985     04DE  3001               	movlw	1
  2986     04DF  07BB               	addwf	(___fldiv@b+3)^(0+128),f
  2987     04E0                     l2002:
  2988     04E0  1C3B               	btfss	(___fldiv@b+3)^(0+128),0
  2989     04E1  2CE3               	goto	u2411
  2990     04E2  2CE4               	goto	u2410
  2991     04E3                     u2411:
  2992     04E3  2D03               	goto	l2008
  2993     04E4                     u2410:
  2994     04E4                     l2004:
  2995     04E4  0838               	movf	___fldiv@b^(0+128),w
  2996     04E5  00BC               	movwf	??___fldiv^(0+128)
  2997     04E6  0839               	movf	(___fldiv@b+1)^(0+128),w
  2998     04E7  00BD               	movwf	(??___fldiv^(0+128)+1)
  2999     04E8  083A               	movf	(___fldiv@b+2)^(0+128),w
  3000     04E9  00BE               	movwf	(??___fldiv^(0+128)+2)
  3001     04EA  083B               	movf	(___fldiv@b+3)^(0+128),w
  3002     04EB  00BF               	movwf	(??___fldiv^(0+128)+3)
  3003     04EC  3001               	movlw	1
  3004     04ED  00C0               	movwf	(??___fldiv+4)^(0+128)
  3005     04EE                     u2425:
  3006     04EE  0D3F               	rlf	(??___fldiv^(0+128)+3),w
  3007     04EF  0CBF               	rrf	(??___fldiv^(0+128)+3),f
  3008     04F0  0CBE               	rrf	(??___fldiv^(0+128)+2),f
  3009     04F1  0CBD               	rrf	(??___fldiv^(0+128)+1),f
  3010     04F2  0CBC               	rrf	??___fldiv^(0+128),f
  3011     04F3                     u2420:
  3012     04F3  0BC0               	decfsz	(??___fldiv+4)^(0+128),f
  3013     04F4  2CEE               	goto	u2425
  3014     04F5  083F               	movf	(??___fldiv+3)^(0+128),w
  3015     04F6  00BB               	movwf	(___fldiv@b+3)^(0+128)
  3016     04F7  083E               	movf	(??___fldiv+2)^(0+128),w
  3017     04F8  00BA               	movwf	(___fldiv@b+2)^(0+128)
  3018     04F9  083D               	movf	(??___fldiv+1)^(0+128),w
  3019     04FA  00B9               	movwf	(___fldiv@b+1)^(0+128)
  3020     04FB  083C               	movf	??___fldiv^(0+128),w
  3021     04FC  00B8               	movwf	___fldiv@b^(0+128)
  3022     04FD                     l2006:
  3023     04FD  3001               	movlw	1
  3024     04FE  07C6               	addwf	___fldiv@new_exp^(0+128),f
  3025     04FF  1803               	skipnc
  3026     0500  0AC7               	incf	(___fldiv@new_exp+1)^(0+128),f
  3027     0501  3000               	movlw	0
  3028     0502  07C7               	addwf	(___fldiv@new_exp+1)^(0+128),f
  3029     0503                     l2008:
  3030     0503  0847               	movf	(___fldiv@new_exp+1)^(0+128),w
  3031     0504  3A80               	xorlw	128
  3032     0505  00FF               	movwf	btemp+1
  3033     0506  3080               	movlw	128
  3034     0507  027F               	subwf	btemp+1,w
  3035     0508  1D03               	skipz
  3036     0509  2D0C               	goto	u2435
  3037     050A  30FF               	movlw	255
  3038     050B  0246               	subwf	___fldiv@new_exp^(0+128),w
  3039     050C                     u2435:
  3040     050C  1C03               	skipc
  3041     050D  2D0F               	goto	u2431
  3042     050E  2D10               	goto	u2430
  3043     050F                     u2431:
  3044     050F  2D1E               	goto	l2012
  3045     0510                     u2430:
  3046     0510                     l2010:
  3047     0510  30FF               	movlw	255
  3048     0511  1683               	bsf	3,5	;RP0=1, select bank1
  3049     0512  1303               	bcf	3,6	;RP1=0, select bank1
  3050     0513  00C6               	movwf	___fldiv@new_exp^(0+128)
  3051     0514  3000               	movlw	0
  3052     0515  00C7               	movwf	(___fldiv@new_exp^(0+128)+1)
  3053     0516  3000               	movlw	0
  3054     0517  00BB               	movwf	(___fldiv@b+3)^(0+128)
  3055     0518  3000               	movlw	0
  3056     0519  00BA               	movwf	(___fldiv@b+2)^(0+128)
  3057     051A  3000               	movlw	0
  3058     051B  00B9               	movwf	(___fldiv@b+1)^(0+128)
  3059     051C  3000               	movlw	0
  3060     051D  00B8               	movwf	___fldiv@b^(0+128)
  3061     051E                     l2012:
  3062     051E  1683               	bsf	3,5	;RP0=1, select bank1
  3063     051F  1303               	bcf	3,6	;RP1=0, select bank1
  3064     0520  0847               	movf	(___fldiv@new_exp+1)^(0+128),w
  3065     0521  3A80               	xorlw	128
  3066     0522  00FF               	movwf	btemp+1
  3067     0523  3080               	movlw	128
  3068     0524  027F               	subwf	btemp+1,w
  3069     0525  1D03               	skipz
  3070     0526  2D29               	goto	u2445
  3071     0527  3001               	movlw	1
  3072     0528  0246               	subwf	___fldiv@new_exp^(0+128),w
  3073     0529                     u2445:
  3074     0529  1803               	skipnc
  3075     052A  2D2C               	goto	u2441
  3076     052B  2D2D               	goto	u2440
  3077     052C                     u2441:
  3078     052C  2D3A               	goto	l721
  3079     052D                     u2440:
  3080     052D                     l2014:
  3081     052D  1683               	bsf	3,5	;RP0=1, select bank1
  3082     052E  1303               	bcf	3,6	;RP1=0, select bank1
  3083     052F  01C6               	clrf	___fldiv@new_exp^(0+128)
  3084     0530  01C7               	clrf	(___fldiv@new_exp+1)^(0+128)
  3085     0531                     l2016:
  3086     0531  3000               	movlw	0
  3087     0532  00BB               	movwf	(___fldiv@b+3)^(0+128)
  3088     0533  3000               	movlw	0
  3089     0534  00BA               	movwf	(___fldiv@b+2)^(0+128)
  3090     0535  3000               	movlw	0
  3091     0536  00B9               	movwf	(___fldiv@b+1)^(0+128)
  3092     0537  3000               	movlw	0
  3093     0538  00B8               	movwf	___fldiv@b^(0+128)
  3094     0539                     l2018:
  3095     0539  01C5               	clrf	___fldiv@sign^(0+128)
  3096     053A                     l721:
  3097     053A  1683               	bsf	3,5	;RP0=1, select bank1
  3098     053B  1303               	bcf	3,6	;RP1=0, select bank1
  3099     053C  0846               	movf	___fldiv@new_exp^(0+128),w
  3100     053D  00CC               	movwf	___fldiv@bexp^(0+128)
  3101     053E                     l2020:
  3102     053E  1C4C               	btfss	___fldiv@bexp^(0+128),0
  3103     053F  2D41               	goto	u2451
  3104     0540  2D42               	goto	u2450
  3105     0541                     u2451:
  3106     0541  2D44               	goto	l2024
  3107     0542                     u2450:
  3108     0542                     l2022:
  3109     0542  17BA               	bsf	(___fldiv@b^(0+128)+2),7
  3110     0543  2D48               	goto	l2026
  3111     0544                     l2024:
  3112     0544  307F               	movlw	127
  3113     0545  00FF               	movwf	btemp+1
  3114     0546  087F               	movf	btemp+1,w
  3115     0547  05BA               	andwf	(___fldiv@b^(0+128)+2),f
  3116     0548                     l2026:
  3117     0548  084C               	movf	___fldiv@bexp^(0+128),w
  3118     0549  00BC               	movwf	??___fldiv^(0+128)
  3119     054A  1003               	clrc
  3120     054B  0C3C               	rrf	??___fldiv^(0+128),w
  3121     054C  00BB               	movwf	(___fldiv@b^(0+128)+3)
  3122     054D  2BEA               	goto	l1930
  3123     054E                     l701:
  3124     054E  0008               	return
  3125     054F                     __end_of___fldiv:
  3126                           
  3127                           	psect	text11
  3128     003B                     __ptext11:	
  3129 ;; *************** function ___flmul *****************
  3130 ;; Defined at:
  3131 ;;		line 8 in file "C:\Program Files\Microchip\xc8\v2.41\pic\sources\c90\common\sprcmul.c"
  3132 ;; Parameters:    Size  Location     Type
  3133 ;;  b               4   46[BANK1 ] unsigned char 
  3134 ;;  a               4   50[BANK1 ] unsigned char 
  3135 ;; Auto vars:     Size  Location     Type
  3136 ;;  prod            4   66[BANK1 ] struct .
  3137 ;;  grs             4   60[BANK1 ] unsigned long 
  3138 ;;  temp            2   70[BANK1 ] struct .
  3139 ;;  bexp            1   65[BANK1 ] unsigned char 
  3140 ;;  aexp            1   64[BANK1 ] unsigned char 
  3141 ;;  sign            1   59[BANK1 ] unsigned char 
  3142 ;; Return value:  Size  Location     Type
  3143 ;;                  4   46[BANK1 ] unsigned char 
  3144 ;; Registers used:
  3145 ;;		wreg, status,2, status,0, btemp+1, pclath, cstack
  3146 ;; Tracked objects:
  3147 ;;		On entry : 0/0
  3148 ;;		On exit  : 0/0
  3149 ;;		Unchanged: 0/0
  3150 ;; Data sizes:     COMMON   BANK0   BANK1   BANK3   BANK2
  3151 ;;      Params:         0       0       8       0       0
  3152 ;;      Locals:         0       0      13       0       0
  3153 ;;      Temps:          0       0       5       0       0
  3154 ;;      Totals:         0       0      26       0       0
  3155 ;;Total ram usage:       26 bytes
  3156 ;; Hardware stack levels used: 1
  3157 ;; Hardware stack levels required when called: 5
  3158 ;; This function calls:
  3159 ;;		__Umul8_16
  3160 ;; This function is called by:
  3161 ;;		_adcPosControl
  3162 ;; This function uses a non-reentrant model
  3163 ;;
  3164                           
  3165     003B                     ___flmul:	
  3166                           ;psect for function ___flmul
  3167                           
  3168     003B                     l2432:	
  3169                           ;incstack = 0
  3170                           ; Regs used in ___flmul: [wreg+status,2+status,0+btemp+1+pclath+cstack]
  3171                           
  3172     003B  1683               	bsf	3,5	;RP0=1, select bank1
  3173     003C  1303               	bcf	3,6	;RP1=0, select bank1
  3174     003D  0851               	movf	(___flmul@b^(0+128)+3),w
  3175     003E  3980               	andlw	128
  3176     003F  00DB               	movwf	___flmul@sign^(0+128)
  3177     0040                     l2434:
  3178     0040  0851               	movf	(___flmul@b^(0+128)+3),w
  3179     0041  00D6               	movwf	??___flmul^(0+128)
  3180     0042  0756               	addwf	??___flmul^(0+128),w
  3181     0043  00E1               	movwf	___flmul@bexp^(0+128)
  3182     0044                     l2436:
  3183     0044  1FD0               	btfss	(___flmul@b^(0+128)+2),7
  3184     0045  2847               	goto	u3341
  3185     0046  2848               	goto	u3340
  3186     0047                     u3341:
  3187     0047  2849               	goto	l2440
  3188     0048                     u3340:
  3189     0048                     l2438:
  3190     0048  1461               	bsf	___flmul@bexp^(0+128),0
  3191     0049                     l2440:
  3192     0049  0861               	movf	___flmul@bexp^(0+128),w
  3193     004A  1903               	btfsc	3,2
  3194     004B  284D               	goto	u3351
  3195     004C  284E               	goto	u3350
  3196     004D                     u3351:
  3197     004D  285D               	goto	l2448
  3198     004E                     u3350:
  3199     004E                     l2442:
  3200     004E  0A61               	incf	___flmul@bexp^(0+128),w
  3201     004F  1D03               	btfss	3,2
  3202     0050  2852               	goto	u3361
  3203     0051  2853               	goto	u3360
  3204     0052                     u3361:
  3205     0052  285B               	goto	l2446
  3206     0053                     u3360:
  3207     0053                     l2444:
  3208     0053  3000               	movlw	0
  3209     0054  00D1               	movwf	(___flmul@b+3)^(0+128)
  3210     0055  3000               	movlw	0
  3211     0056  00D0               	movwf	(___flmul@b+2)^(0+128)
  3212     0057  3000               	movlw	0
  3213     0058  00CF               	movwf	(___flmul@b+1)^(0+128)
  3214     0059  3000               	movlw	0
  3215     005A  00CE               	movwf	___flmul@b^(0+128)
  3216     005B                     l2446:
  3217     005B  17D0               	bsf	(___flmul@b^(0+128)+2),7
  3218     005C  2865               	goto	l2450
  3219     005D                     l2448:
  3220     005D  3000               	movlw	0
  3221     005E  00D1               	movwf	(___flmul@b+3)^(0+128)
  3222     005F  3000               	movlw	0
  3223     0060  00D0               	movwf	(___flmul@b+2)^(0+128)
  3224     0061  3000               	movlw	0
  3225     0062  00CF               	movwf	(___flmul@b+1)^(0+128)
  3226     0063  3000               	movlw	0
  3227     0064  00CE               	movwf	___flmul@b^(0+128)
  3228     0065                     l2450:
  3229     0065  0855               	movf	(___flmul@a^(0+128)+3),w
  3230     0066  3980               	andlw	128
  3231     0067  00FF               	movwf	btemp+1
  3232     0068  087F               	movf	btemp+1,w
  3233     0069  06DB               	xorwf	___flmul@sign^(0+128),f
  3234     006A                     l2452:
  3235     006A  0855               	movf	(___flmul@a^(0+128)+3),w
  3236     006B  00D6               	movwf	??___flmul^(0+128)
  3237     006C  0756               	addwf	??___flmul^(0+128),w
  3238     006D  00E0               	movwf	___flmul@aexp^(0+128)
  3239     006E                     l2454:
  3240     006E  1FD4               	btfss	(___flmul@a^(0+128)+2),7
  3241     006F  2871               	goto	u3371
  3242     0070  2872               	goto	u3370
  3243     0071                     u3371:
  3244     0071  2873               	goto	l2458
  3245     0072                     u3370:
  3246     0072                     l2456:
  3247     0072  1460               	bsf	___flmul@aexp^(0+128),0
  3248     0073                     l2458:
  3249     0073  0860               	movf	___flmul@aexp^(0+128),w
  3250     0074  1903               	btfsc	3,2
  3251     0075  2877               	goto	u3381
  3252     0076  2878               	goto	u3380
  3253     0077                     u3381:
  3254     0077  2887               	goto	l2466
  3255     0078                     u3380:
  3256     0078                     l2460:
  3257     0078  0A60               	incf	___flmul@aexp^(0+128),w
  3258     0079  1D03               	btfss	3,2
  3259     007A  287C               	goto	u3391
  3260     007B  287D               	goto	u3390
  3261     007C                     u3391:
  3262     007C  2885               	goto	l2464
  3263     007D                     u3390:
  3264     007D                     l2462:
  3265     007D  3000               	movlw	0
  3266     007E  00D5               	movwf	(___flmul@a+3)^(0+128)
  3267     007F  3000               	movlw	0
  3268     0080  00D4               	movwf	(___flmul@a+2)^(0+128)
  3269     0081  3000               	movlw	0
  3270     0082  00D3               	movwf	(___flmul@a+1)^(0+128)
  3271     0083  3000               	movlw	0
  3272     0084  00D2               	movwf	___flmul@a^(0+128)
  3273     0085                     l2464:
  3274     0085  17D4               	bsf	(___flmul@a^(0+128)+2),7
  3275     0086  288F               	goto	l2468
  3276     0087                     l2466:
  3277     0087  3000               	movlw	0
  3278     0088  00D5               	movwf	(___flmul@a+3)^(0+128)
  3279     0089  3000               	movlw	0
  3280     008A  00D4               	movwf	(___flmul@a+2)^(0+128)
  3281     008B  3000               	movlw	0
  3282     008C  00D3               	movwf	(___flmul@a+1)^(0+128)
  3283     008D  3000               	movlw	0
  3284     008E  00D2               	movwf	___flmul@a^(0+128)
  3285     008F                     l2468:
  3286     008F  0860               	movf	___flmul@aexp^(0+128),w
  3287     0090  1903               	btfsc	3,2
  3288     0091  2893               	goto	u3401
  3289     0092  2894               	goto	u3400
  3290     0093                     u3401:
  3291     0093  2899               	goto	l2472
  3292     0094                     u3400:
  3293     0094                     l2470:
  3294     0094  0861               	movf	___flmul@bexp^(0+128),w
  3295     0095  1D03               	btfss	3,2
  3296     0096  2898               	goto	u3411
  3297     0097  2899               	goto	u3410
  3298     0098                     u3411:
  3299     0098  28A2               	goto	l2476
  3300     0099                     u3410:
  3301     0099                     l2472:
  3302     0099  3000               	movlw	0
  3303     009A  00D1               	movwf	(?___flmul+3)^(0+128)
  3304     009B  3000               	movlw	0
  3305     009C  00D0               	movwf	(?___flmul+2)^(0+128)
  3306     009D  3000               	movlw	0
  3307     009E  00CF               	movwf	(?___flmul+1)^(0+128)
  3308     009F  3000               	movlw	0
  3309     00A0  00CE               	movwf	?___flmul^(0+128)
  3310     00A1  2B7F               	goto	l739
  3311     00A2                     l2476:
  3312     00A2  084E               	movf	___flmul@b^(0+128),w
  3313     00A3  00A0               	movwf	__Umul8_16@multiplicand^(0+128)
  3314     00A4  0854               	movf	(___flmul@a^(0+128)+2),w
  3315     00A5  120A  158A  22A1  120A  118A  	fcall	__Umul8_16
  3316     00AA  1683               	bsf	3,5	;RP0=1, select bank1
  3317     00AB  1303               	bcf	3,6	;RP1=0, select bank1
  3318     00AC  0821               	movf	(?__Umul8_16+1)^(0+128),w
  3319     00AD  00E7               	movwf	(___flmul@temp+1)^(0+128)
  3320     00AE  0820               	movf	?__Umul8_16^(0+128),w
  3321     00AF  00E6               	movwf	___flmul@temp^(0+128)
  3322     00B0                     l2478:
  3323     00B0  0866               	movf	___flmul@temp^(0+128),w
  3324     00B1  00D6               	movwf	??___flmul^(0+128)
  3325     00B2  01D7               	clrf	(??___flmul^(0+128)+1)
  3326     00B3  01D8               	clrf	(??___flmul^(0+128)+2)
  3327     00B4  01D9               	clrf	(??___flmul^(0+128)+3)
  3328     00B5  0859               	movf	(??___flmul+3)^(0+128),w
  3329     00B6  00DF               	movwf	(___flmul@grs+3)^(0+128)
  3330     00B7  0858               	movf	(??___flmul+2)^(0+128),w
  3331     00B8  00DE               	movwf	(___flmul@grs+2)^(0+128)
  3332     00B9  0857               	movf	(??___flmul+1)^(0+128),w
  3333     00BA  00DD               	movwf	(___flmul@grs+1)^(0+128)
  3334     00BB  0856               	movf	??___flmul^(0+128),w
  3335     00BC  00DC               	movwf	___flmul@grs^(0+128)
  3336     00BD                     l2480:
  3337     00BD  0867               	movf	(___flmul@temp^(0+128)+1),w
  3338     00BE  00D6               	movwf	??___flmul^(0+128)
  3339     00BF  01D7               	clrf	(??___flmul^(0+128)+1)
  3340     00C0  01D8               	clrf	(??___flmul^(0+128)+2)
  3341     00C1  01D9               	clrf	(??___flmul^(0+128)+3)
  3342     00C2  0859               	movf	(??___flmul+3)^(0+128),w
  3343     00C3  00E5               	movwf	(___flmul@prod+3)^(0+128)
  3344     00C4  0858               	movf	(??___flmul+2)^(0+128),w
  3345     00C5  00E4               	movwf	(___flmul@prod+2)^(0+128)
  3346     00C6  0857               	movf	(??___flmul+1)^(0+128),w
  3347     00C7  00E3               	movwf	(___flmul@prod+1)^(0+128)
  3348     00C8  0856               	movf	??___flmul^(0+128),w
  3349     00C9  00E2               	movwf	___flmul@prod^(0+128)
  3350     00CA  084F               	movf	(___flmul@b^(0+128)+1),w
  3351     00CB  00A0               	movwf	__Umul8_16@multiplicand^(0+128)
  3352     00CC  0853               	movf	(___flmul@a^(0+128)+1),w
  3353     00CD  120A  158A  22A1  120A  118A  	fcall	__Umul8_16
  3354     00D2  1683               	bsf	3,5	;RP0=1, select bank1
  3355     00D3  1303               	bcf	3,6	;RP1=0, select bank1
  3356     00D4  0821               	movf	(?__Umul8_16+1)^(0+128),w
  3357     00D5  00E7               	movwf	(___flmul@temp+1)^(0+128)
  3358     00D6  0820               	movf	?__Umul8_16^(0+128),w
  3359     00D7  00E6               	movwf	___flmul@temp^(0+128)
  3360     00D8                     l2482:
  3361     00D8  0866               	movf	___flmul@temp^(0+128),w
  3362     00D9  00D6               	movwf	??___flmul^(0+128)
  3363     00DA  01D7               	clrf	(??___flmul^(0+128)+1)
  3364     00DB  01D8               	clrf	(??___flmul^(0+128)+2)
  3365     00DC  01D9               	clrf	(??___flmul^(0+128)+3)
  3366     00DD  0856               	movf	??___flmul^(0+128),w
  3367     00DE  07DC               	addwf	___flmul@grs^(0+128),f
  3368     00DF  0857               	movf	(??___flmul+1)^(0+128),w
  3369     00E0  1103               	clrz
  3370     00E1  1803               	skipnc
  3371     00E2  3E01               	addlw	1
  3372     00E3  1903               	skipnz
  3373     00E4  28E6               	goto	u3421
  3374     00E5  07DD               	addwf	(___flmul@grs+1)^(0+128),f
  3375     00E6                     u3421:
  3376     00E6  0858               	movf	(??___flmul+2)^(0+128),w
  3377     00E7  1103               	clrz
  3378     00E8  1803               	skipnc
  3379     00E9  3E01               	addlw	1
  3380     00EA  1903               	skipnz
  3381     00EB  28ED               	goto	u3422
  3382     00EC  07DE               	addwf	(___flmul@grs+2)^(0+128),f
  3383     00ED                     u3422:
  3384     00ED  0859               	movf	(??___flmul+3)^(0+128),w
  3385     00EE  1103               	clrz
  3386     00EF  1803               	skipnc
  3387     00F0  3E01               	addlw	1
  3388     00F1  1903               	skipnz
  3389     00F2  28F4               	goto	u3423
  3390     00F3  07DF               	addwf	(___flmul@grs+3)^(0+128),f
  3391     00F4                     u3423:
  3392     00F4                     l2484:
  3393     00F4  0867               	movf	(___flmul@temp^(0+128)+1),w
  3394     00F5  00D6               	movwf	??___flmul^(0+128)
  3395     00F6  01D7               	clrf	(??___flmul^(0+128)+1)
  3396     00F7  01D8               	clrf	(??___flmul^(0+128)+2)
  3397     00F8  01D9               	clrf	(??___flmul^(0+128)+3)
  3398     00F9  0856               	movf	??___flmul^(0+128),w
  3399     00FA  07E2               	addwf	___flmul@prod^(0+128),f
  3400     00FB  0857               	movf	(??___flmul+1)^(0+128),w
  3401     00FC  1103               	clrz
  3402     00FD  1803               	skipnc
  3403     00FE  3E01               	addlw	1
  3404     00FF  1903               	skipnz
  3405     0100  2902               	goto	u3431
  3406     0101  07E3               	addwf	(___flmul@prod+1)^(0+128),f
  3407     0102                     u3431:
  3408     0102  0858               	movf	(??___flmul+2)^(0+128),w
  3409     0103  1103               	clrz
  3410     0104  1803               	skipnc
  3411     0105  3E01               	addlw	1
  3412     0106  1903               	skipnz
  3413     0107  2909               	goto	u3432
  3414     0108  07E4               	addwf	(___flmul@prod+2)^(0+128),f
  3415     0109                     u3432:
  3416     0109  0859               	movf	(??___flmul+3)^(0+128),w
  3417     010A  1103               	clrz
  3418     010B  1803               	skipnc
  3419     010C  3E01               	addlw	1
  3420     010D  1903               	skipnz
  3421     010E  2910               	goto	u3433
  3422     010F  07E5               	addwf	(___flmul@prod+3)^(0+128),f
  3423     0110                     u3433:
  3424     0110  0850               	movf	(___flmul@b^(0+128)+2),w
  3425     0111  00A0               	movwf	__Umul8_16@multiplicand^(0+128)
  3426     0112  0852               	movf	___flmul@a^(0+128),w
  3427     0113  120A  158A  22A1  120A  118A  	fcall	__Umul8_16
  3428     0118  1683               	bsf	3,5	;RP0=1, select bank1
  3429     0119  1303               	bcf	3,6	;RP1=0, select bank1
  3430     011A  0821               	movf	(?__Umul8_16+1)^(0+128),w
  3431     011B  00E7               	movwf	(___flmul@temp+1)^(0+128)
  3432     011C  0820               	movf	?__Umul8_16^(0+128),w
  3433     011D  00E6               	movwf	___flmul@temp^(0+128)
  3434     011E                     l2486:
  3435     011E  0866               	movf	___flmul@temp^(0+128),w
  3436     011F  00D6               	movwf	??___flmul^(0+128)
  3437     0120  01D7               	clrf	(??___flmul^(0+128)+1)
  3438     0121  01D8               	clrf	(??___flmul^(0+128)+2)
  3439     0122  01D9               	clrf	(??___flmul^(0+128)+3)
  3440     0123  0856               	movf	??___flmul^(0+128),w
  3441     0124  07DC               	addwf	___flmul@grs^(0+128),f
  3442     0125  0857               	movf	(??___flmul+1)^(0+128),w
  3443     0126  1103               	clrz
  3444     0127  1803               	skipnc
  3445     0128  3E01               	addlw	1
  3446     0129  1903               	skipnz
  3447     012A  292C               	goto	u3441
  3448     012B  07DD               	addwf	(___flmul@grs+1)^(0+128),f
  3449     012C                     u3441:
  3450     012C  0858               	movf	(??___flmul+2)^(0+128),w
  3451     012D  1103               	clrz
  3452     012E  1803               	skipnc
  3453     012F  3E01               	addlw	1
  3454     0130  1903               	skipnz
  3455     0131  2933               	goto	u3442
  3456     0132  07DE               	addwf	(___flmul@grs+2)^(0+128),f
  3457     0133                     u3442:
  3458     0133  0859               	movf	(??___flmul+3)^(0+128),w
  3459     0134  1103               	clrz
  3460     0135  1803               	skipnc
  3461     0136  3E01               	addlw	1
  3462     0137  1903               	skipnz
  3463     0138  293A               	goto	u3443
  3464     0139  07DF               	addwf	(___flmul@grs+3)^(0+128),f
  3465     013A                     u3443:
  3466     013A                     l2488:
  3467     013A  0867               	movf	(___flmul@temp^(0+128)+1),w
  3468     013B  00D6               	movwf	??___flmul^(0+128)
  3469     013C  01D7               	clrf	(??___flmul^(0+128)+1)
  3470     013D  01D8               	clrf	(??___flmul^(0+128)+2)
  3471     013E  01D9               	clrf	(??___flmul^(0+128)+3)
  3472     013F  0856               	movf	??___flmul^(0+128),w
  3473     0140  07E2               	addwf	___flmul@prod^(0+128),f
  3474     0141  0857               	movf	(??___flmul+1)^(0+128),w
  3475     0142  1103               	clrz
  3476     0143  1803               	skipnc
  3477     0144  3E01               	addlw	1
  3478     0145  1903               	skipnz
  3479     0146  2948               	goto	u3451
  3480     0147  07E3               	addwf	(___flmul@prod+1)^(0+128),f
  3481     0148                     u3451:
  3482     0148  0858               	movf	(??___flmul+2)^(0+128),w
  3483     0149  1103               	clrz
  3484     014A  1803               	skipnc
  3485     014B  3E01               	addlw	1
  3486     014C  1903               	skipnz
  3487     014D  294F               	goto	u3452
  3488     014E  07E4               	addwf	(___flmul@prod+2)^(0+128),f
  3489     014F                     u3452:
  3490     014F  0859               	movf	(??___flmul+3)^(0+128),w
  3491     0150  1103               	clrz
  3492     0151  1803               	skipnc
  3493     0152  3E01               	addlw	1
  3494     0153  1903               	skipnz
  3495     0154  2956               	goto	u3453
  3496     0155  07E5               	addwf	(___flmul@prod+3)^(0+128),f
  3497     0156                     u3453:
  3498     0156                     l2490:
  3499     0156  3008               	movlw	8
  3500     0157  00D6               	movwf	??___flmul^(0+128)
  3501     0158                     u3465:
  3502     0158  1003               	clrc
  3503     0159  0DDC               	rlf	___flmul@grs^(0+128),f
  3504     015A  0DDD               	rlf	(___flmul@grs+1)^(0+128),f
  3505     015B  0DDE               	rlf	(___flmul@grs+2)^(0+128),f
  3506     015C  0DDF               	rlf	(___flmul@grs+3)^(0+128),f
  3507     015D  0BD6               	decfsz	??___flmul^(0+128),f
  3508     015E  2958               	goto	u3465
  3509     015F                     l2492:
  3510     015F  084F               	movf	(___flmul@b^(0+128)+1),w
  3511     0160  00A0               	movwf	__Umul8_16@multiplicand^(0+128)
  3512     0161  0852               	movf	___flmul@a^(0+128),w
  3513     0162  120A  158A  22A1  120A  118A  	fcall	__Umul8_16
  3514     0167  1683               	bsf	3,5	;RP0=1, select bank1
  3515     0168  1303               	bcf	3,6	;RP1=0, select bank1
  3516     0169  0821               	movf	(?__Umul8_16+1)^(0+128),w
  3517     016A  00E7               	movwf	(___flmul@temp+1)^(0+128)
  3518     016B  0820               	movf	?__Umul8_16^(0+128),w
  3519     016C  00E6               	movwf	___flmul@temp^(0+128)
  3520     016D                     l2494:
  3521     016D  0866               	movf	___flmul@temp^(0+128),w
  3522     016E  00D6               	movwf	??___flmul^(0+128)
  3523     016F  0867               	movf	(___flmul@temp+1)^(0+128),w
  3524     0170  00D7               	movwf	(??___flmul^(0+128)+1)
  3525     0171  01D8               	clrf	(??___flmul^(0+128)+2)
  3526     0172  01D9               	clrf	(??___flmul^(0+128)+3)
  3527     0173  0856               	movf	??___flmul^(0+128),w
  3528     0174  07DC               	addwf	___flmul@grs^(0+128),f
  3529     0175  0857               	movf	(??___flmul+1)^(0+128),w
  3530     0176  1103               	clrz
  3531     0177  1803               	skipnc
  3532     0178  3E01               	addlw	1
  3533     0179  1903               	skipnz
  3534     017A  297C               	goto	u3471
  3535     017B  07DD               	addwf	(___flmul@grs+1)^(0+128),f
  3536     017C                     u3471:
  3537     017C  0858               	movf	(??___flmul+2)^(0+128),w
  3538     017D  1103               	clrz
  3539     017E  1803               	skipnc
  3540     017F  3E01               	addlw	1
  3541     0180  1903               	skipnz
  3542     0181  2983               	goto	u3472
  3543     0182  07DE               	addwf	(___flmul@grs+2)^(0+128),f
  3544     0183                     u3472:
  3545     0183  0859               	movf	(??___flmul+3)^(0+128),w
  3546     0184  1103               	clrz
  3547     0185  1803               	skipnc
  3548     0186  3E01               	addlw	1
  3549     0187  1903               	skipnz
  3550     0188  298A               	goto	u3473
  3551     0189  07DF               	addwf	(___flmul@grs+3)^(0+128),f
  3552     018A                     u3473:
  3553     018A                     l2496:
  3554     018A  084E               	movf	___flmul@b^(0+128),w
  3555     018B  00A0               	movwf	__Umul8_16@multiplicand^(0+128)
  3556     018C  0853               	movf	(___flmul@a^(0+128)+1),w
  3557     018D  120A  158A  22A1  120A  118A  	fcall	__Umul8_16
  3558     0192  1683               	bsf	3,5	;RP0=1, select bank1
  3559     0193  1303               	bcf	3,6	;RP1=0, select bank1
  3560     0194  0821               	movf	(?__Umul8_16+1)^(0+128),w
  3561     0195  00E7               	movwf	(___flmul@temp+1)^(0+128)
  3562     0196  0820               	movf	?__Umul8_16^(0+128),w
  3563     0197  00E6               	movwf	___flmul@temp^(0+128)
  3564     0198                     l2498:
  3565     0198  0866               	movf	___flmul@temp^(0+128),w
  3566     0199  00D6               	movwf	??___flmul^(0+128)
  3567     019A  0867               	movf	(___flmul@temp+1)^(0+128),w
  3568     019B  00D7               	movwf	(??___flmul^(0+128)+1)
  3569     019C  01D8               	clrf	(??___flmul^(0+128)+2)
  3570     019D  01D9               	clrf	(??___flmul^(0+128)+3)
  3571     019E  0856               	movf	??___flmul^(0+128),w
  3572     019F  07DC               	addwf	___flmul@grs^(0+128),f
  3573     01A0  0857               	movf	(??___flmul+1)^(0+128),w
  3574     01A1  1103               	clrz
  3575     01A2  1803               	skipnc
  3576     01A3  3E01               	addlw	1
  3577     01A4  1903               	skipnz
  3578     01A5  29A7               	goto	u3481
  3579     01A6  07DD               	addwf	(___flmul@grs+1)^(0+128),f
  3580     01A7                     u3481:
  3581     01A7  0858               	movf	(??___flmul+2)^(0+128),w
  3582     01A8  1103               	clrz
  3583     01A9  1803               	skipnc
  3584     01AA  3E01               	addlw	1
  3585     01AB  1903               	skipnz
  3586     01AC  29AE               	goto	u3482
  3587     01AD  07DE               	addwf	(___flmul@grs+2)^(0+128),f
  3588     01AE                     u3482:
  3589     01AE  0859               	movf	(??___flmul+3)^(0+128),w
  3590     01AF  1103               	clrz
  3591     01B0  1803               	skipnc
  3592     01B1  3E01               	addlw	1
  3593     01B2  1903               	skipnz
  3594     01B3  29B5               	goto	u3483
  3595     01B4  07DF               	addwf	(___flmul@grs+3)^(0+128),f
  3596     01B5                     u3483:
  3597     01B5                     l2500:
  3598     01B5  3008               	movlw	8
  3599     01B6  00D6               	movwf	??___flmul^(0+128)
  3600     01B7                     u3495:
  3601     01B7  1003               	clrc
  3602     01B8  0DDC               	rlf	___flmul@grs^(0+128),f
  3603     01B9  0DDD               	rlf	(___flmul@grs+1)^(0+128),f
  3604     01BA  0DDE               	rlf	(___flmul@grs+2)^(0+128),f
  3605     01BB  0DDF               	rlf	(___flmul@grs+3)^(0+128),f
  3606     01BC  0BD6               	decfsz	??___flmul^(0+128),f
  3607     01BD  29B7               	goto	u3495
  3608     01BE  084E               	movf	___flmul@b^(0+128),w
  3609     01BF  00A0               	movwf	__Umul8_16@multiplicand^(0+128)
  3610     01C0  0852               	movf	___flmul@a^(0+128),w
  3611     01C1  120A  158A  22A1  120A  118A  	fcall	__Umul8_16
  3612     01C6  1683               	bsf	3,5	;RP0=1, select bank1
  3613     01C7  1303               	bcf	3,6	;RP1=0, select bank1
  3614     01C8  0821               	movf	(?__Umul8_16+1)^(0+128),w
  3615     01C9  00E7               	movwf	(___flmul@temp+1)^(0+128)
  3616     01CA  0820               	movf	?__Umul8_16^(0+128),w
  3617     01CB  00E6               	movwf	___flmul@temp^(0+128)
  3618     01CC                     l2502:
  3619     01CC  0866               	movf	___flmul@temp^(0+128),w
  3620     01CD  00D6               	movwf	??___flmul^(0+128)
  3621     01CE  0867               	movf	(___flmul@temp+1)^(0+128),w
  3622     01CF  00D7               	movwf	(??___flmul^(0+128)+1)
  3623     01D0  01D8               	clrf	(??___flmul^(0+128)+2)
  3624     01D1  01D9               	clrf	(??___flmul^(0+128)+3)
  3625     01D2  0856               	movf	??___flmul^(0+128),w
  3626     01D3  07DC               	addwf	___flmul@grs^(0+128),f
  3627     01D4  0857               	movf	(??___flmul+1)^(0+128),w
  3628     01D5  1103               	clrz
  3629     01D6  1803               	skipnc
  3630     01D7  3E01               	addlw	1
  3631     01D8  1903               	skipnz
  3632     01D9  29DB               	goto	u3501
  3633     01DA  07DD               	addwf	(___flmul@grs+1)^(0+128),f
  3634     01DB                     u3501:
  3635     01DB  0858               	movf	(??___flmul+2)^(0+128),w
  3636     01DC  1103               	clrz
  3637     01DD  1803               	skipnc
  3638     01DE  3E01               	addlw	1
  3639     01DF  1903               	skipnz
  3640     01E0  29E2               	goto	u3502
  3641     01E1  07DE               	addwf	(___flmul@grs+2)^(0+128),f
  3642     01E2                     u3502:
  3643     01E2  0859               	movf	(??___flmul+3)^(0+128),w
  3644     01E3  1103               	clrz
  3645     01E4  1803               	skipnc
  3646     01E5  3E01               	addlw	1
  3647     01E6  1903               	skipnz
  3648     01E7  29E9               	goto	u3503
  3649     01E8  07DF               	addwf	(___flmul@grs+3)^(0+128),f
  3650     01E9                     u3503:
  3651     01E9                     l2504:
  3652     01E9  084F               	movf	(___flmul@b^(0+128)+1),w
  3653     01EA  00A0               	movwf	__Umul8_16@multiplicand^(0+128)
  3654     01EB  0854               	movf	(___flmul@a^(0+128)+2),w
  3655     01EC  120A  158A  22A1  120A  118A  	fcall	__Umul8_16
  3656     01F1  1683               	bsf	3,5	;RP0=1, select bank1
  3657     01F2  1303               	bcf	3,6	;RP1=0, select bank1
  3658     01F3  0821               	movf	(?__Umul8_16+1)^(0+128),w
  3659     01F4  00E7               	movwf	(___flmul@temp+1)^(0+128)
  3660     01F5  0820               	movf	?__Umul8_16^(0+128),w
  3661     01F6  00E6               	movwf	___flmul@temp^(0+128)
  3662     01F7  0866               	movf	___flmul@temp^(0+128),w
  3663     01F8  00D6               	movwf	??___flmul^(0+128)
  3664     01F9  0867               	movf	(___flmul@temp+1)^(0+128),w
  3665     01FA  00D7               	movwf	(??___flmul^(0+128)+1)
  3666     01FB  01D8               	clrf	(??___flmul^(0+128)+2)
  3667     01FC  01D9               	clrf	(??___flmul^(0+128)+3)
  3668     01FD  0856               	movf	??___flmul^(0+128),w
  3669     01FE  07E2               	addwf	___flmul@prod^(0+128),f
  3670     01FF  0857               	movf	(??___flmul+1)^(0+128),w
  3671     0200  1103               	clrz
  3672     0201  1803               	skipnc
  3673     0202  3E01               	addlw	1
  3674     0203  1903               	skipnz
  3675     0204  2A06               	goto	u3511
  3676     0205  07E3               	addwf	(___flmul@prod+1)^(0+128),f
  3677     0206                     u3511:
  3678     0206  0858               	movf	(??___flmul+2)^(0+128),w
  3679     0207  1103               	clrz
  3680     0208  1803               	skipnc
  3681     0209  3E01               	addlw	1
  3682     020A  1903               	skipnz
  3683     020B  2A0D               	goto	u3512
  3684     020C  07E4               	addwf	(___flmul@prod+2)^(0+128),f
  3685     020D                     u3512:
  3686     020D  0859               	movf	(??___flmul+3)^(0+128),w
  3687     020E  1103               	clrz
  3688     020F  1803               	skipnc
  3689     0210  3E01               	addlw	1
  3690     0211  1903               	skipnz
  3691     0212  2A14               	goto	u3513
  3692     0213  07E5               	addwf	(___flmul@prod+3)^(0+128),f
  3693     0214                     u3513:
  3694     0214                     l2506:
  3695     0214  0850               	movf	(___flmul@b^(0+128)+2),w
  3696     0215  00A0               	movwf	__Umul8_16@multiplicand^(0+128)
  3697     0216  0853               	movf	(___flmul@a^(0+128)+1),w
  3698     0217  120A  158A  22A1  120A  118A  	fcall	__Umul8_16
  3699     021C  1683               	bsf	3,5	;RP0=1, select bank1
  3700     021D  1303               	bcf	3,6	;RP1=0, select bank1
  3701     021E  0821               	movf	(?__Umul8_16+1)^(0+128),w
  3702     021F  00E7               	movwf	(___flmul@temp+1)^(0+128)
  3703     0220  0820               	movf	?__Umul8_16^(0+128),w
  3704     0221  00E6               	movwf	___flmul@temp^(0+128)
  3705     0222                     l2508:
  3706     0222  0866               	movf	___flmul@temp^(0+128),w
  3707     0223  00D6               	movwf	??___flmul^(0+128)
  3708     0224  0867               	movf	(___flmul@temp+1)^(0+128),w
  3709     0225  00D7               	movwf	(??___flmul^(0+128)+1)
  3710     0226  01D8               	clrf	(??___flmul^(0+128)+2)
  3711     0227  01D9               	clrf	(??___flmul^(0+128)+3)
  3712     0228  0856               	movf	??___flmul^(0+128),w
  3713     0229  07E2               	addwf	___flmul@prod^(0+128),f
  3714     022A  0857               	movf	(??___flmul+1)^(0+128),w
  3715     022B  1103               	clrz
  3716     022C  1803               	skipnc
  3717     022D  3E01               	addlw	1
  3718     022E  1903               	skipnz
  3719     022F  2A31               	goto	u3521
  3720     0230  07E3               	addwf	(___flmul@prod+1)^(0+128),f
  3721     0231                     u3521:
  3722     0231  0858               	movf	(??___flmul+2)^(0+128),w
  3723     0232  1103               	clrz
  3724     0233  1803               	skipnc
  3725     0234  3E01               	addlw	1
  3726     0235  1903               	skipnz
  3727     0236  2A38               	goto	u3522
  3728     0237  07E4               	addwf	(___flmul@prod+2)^(0+128),f
  3729     0238                     u3522:
  3730     0238  0859               	movf	(??___flmul+3)^(0+128),w
  3731     0239  1103               	clrz
  3732     023A  1803               	skipnc
  3733     023B  3E01               	addlw	1
  3734     023C  1903               	skipnz
  3735     023D  2A3F               	goto	u3523
  3736     023E  07E5               	addwf	(___flmul@prod+3)^(0+128),f
  3737     023F                     u3523:
  3738     023F  0850               	movf	(___flmul@b^(0+128)+2),w
  3739     0240  00A0               	movwf	__Umul8_16@multiplicand^(0+128)
  3740     0241  0854               	movf	(___flmul@a^(0+128)+2),w
  3741     0242  120A  158A  22A1  120A  118A  	fcall	__Umul8_16
  3742     0247  1683               	bsf	3,5	;RP0=1, select bank1
  3743     0248  1303               	bcf	3,6	;RP1=0, select bank1
  3744     0249  0821               	movf	(?__Umul8_16+1)^(0+128),w
  3745     024A  00E7               	movwf	(___flmul@temp+1)^(0+128)
  3746     024B  0820               	movf	?__Umul8_16^(0+128),w
  3747     024C  00E6               	movwf	___flmul@temp^(0+128)
  3748     024D                     l2510:
  3749     024D  0866               	movf	___flmul@temp^(0+128),w
  3750     024E  00D6               	movwf	??___flmul^(0+128)
  3751     024F  0867               	movf	(___flmul@temp+1)^(0+128),w
  3752     0250  00D7               	movwf	(??___flmul^(0+128)+1)
  3753     0251  01D8               	clrf	(??___flmul^(0+128)+2)
  3754     0252  01D9               	clrf	(??___flmul^(0+128)+3)
  3755     0253  3008               	movlw	8
  3756     0254                     u3535:
  3757     0254  1003               	clrc
  3758     0255  0DD6               	rlf	??___flmul^(0+128),f
  3759     0256  0DD7               	rlf	(??___flmul^(0+128)+1),f
  3760     0257  0DD8               	rlf	(??___flmul^(0+128)+2),f
  3761     0258  0DD9               	rlf	(??___flmul^(0+128)+3),f
  3762     0259                     u3530:
  3763     0259  3EFF               	addlw	-1
  3764     025A  1D03               	skipz
  3765     025B  2A54               	goto	u3535
  3766     025C  0856               	movf	??___flmul^(0+128),w
  3767     025D  07E2               	addwf	___flmul@prod^(0+128),f
  3768     025E  0857               	movf	(??___flmul+1)^(0+128),w
  3769     025F  1103               	clrz
  3770     0260  1803               	skipnc
  3771     0261  3E01               	addlw	1
  3772     0262  1903               	skipnz
  3773     0263  2A65               	goto	u3541
  3774     0264  07E3               	addwf	(___flmul@prod+1)^(0+128),f
  3775     0265                     u3541:
  3776     0265  0858               	movf	(??___flmul+2)^(0+128),w
  3777     0266  1103               	clrz
  3778     0267  1803               	skipnc
  3779     0268  3E01               	addlw	1
  3780     0269  1903               	skipnz
  3781     026A  2A6C               	goto	u3542
  3782     026B  07E4               	addwf	(___flmul@prod+2)^(0+128),f
  3783     026C                     u3542:
  3784     026C  0859               	movf	(??___flmul+3)^(0+128),w
  3785     026D  1103               	clrz
  3786     026E  1803               	skipnc
  3787     026F  3E01               	addlw	1
  3788     0270  1903               	skipnz
  3789     0271  2A73               	goto	u3543
  3790     0272  07E5               	addwf	(___flmul@prod+3)^(0+128),f
  3791     0273                     u3543:
  3792     0273                     l2512:
  3793     0273  085C               	movf	___flmul@grs^(0+128),w
  3794     0274  00D6               	movwf	??___flmul^(0+128)
  3795     0275  085D               	movf	(___flmul@grs+1)^(0+128),w
  3796     0276  00D7               	movwf	(??___flmul^(0+128)+1)
  3797     0277  085E               	movf	(___flmul@grs+2)^(0+128),w
  3798     0278  00D8               	movwf	(??___flmul^(0+128)+2)
  3799     0279  085F               	movf	(___flmul@grs+3)^(0+128),w
  3800     027A  00D9               	movwf	(??___flmul^(0+128)+3)
  3801     027B  3018               	movlw	24
  3802     027C                     u3555:
  3803     027C  1003               	clrc
  3804     027D  0CD9               	rrf	(??___flmul^(0+128)+3),f
  3805     027E  0CD8               	rrf	(??___flmul^(0+128)+2),f
  3806     027F  0CD7               	rrf	(??___flmul^(0+128)+1),f
  3807     0280  0CD6               	rrf	??___flmul^(0+128),f
  3808     0281                     u3550:
  3809     0281  3EFF               	addlw	-1
  3810     0282  1D03               	skipz
  3811     0283  2A7C               	goto	u3555
  3812     0284  0856               	movf	??___flmul^(0+128),w
  3813     0285  07E2               	addwf	___flmul@prod^(0+128),f
  3814     0286  0857               	movf	(??___flmul+1)^(0+128),w
  3815     0287  1103               	clrz
  3816     0288  1803               	skipnc
  3817     0289  3E01               	addlw	1
  3818     028A  1903               	skipnz
  3819     028B  2A8D               	goto	u3561
  3820     028C  07E3               	addwf	(___flmul@prod+1)^(0+128),f
  3821     028D                     u3561:
  3822     028D  0858               	movf	(??___flmul+2)^(0+128),w
  3823     028E  1103               	clrz
  3824     028F  1803               	skipnc
  3825     0290  3E01               	addlw	1
  3826     0291  1903               	skipnz
  3827     0292  2A94               	goto	u3562
  3828     0293  07E4               	addwf	(___flmul@prod+2)^(0+128),f
  3829     0294                     u3562:
  3830     0294  0859               	movf	(??___flmul+3)^(0+128),w
  3831     0295  1103               	clrz
  3832     0296  1803               	skipnc
  3833     0297  3E01               	addlw	1
  3834     0298  1903               	skipnz
  3835     0299  2A9B               	goto	u3563
  3836     029A  07E5               	addwf	(___flmul@prod+3)^(0+128),f
  3837     029B                     u3563:
  3838     029B                     l2514:
  3839     029B  3008               	movlw	8
  3840     029C  00D6               	movwf	??___flmul^(0+128)
  3841     029D                     u3575:
  3842     029D  1003               	clrc
  3843     029E  0DDC               	rlf	___flmul@grs^(0+128),f
  3844     029F  0DDD               	rlf	(___flmul@grs+1)^(0+128),f
  3845     02A0  0DDE               	rlf	(___flmul@grs+2)^(0+128),f
  3846     02A1  0DDF               	rlf	(___flmul@grs+3)^(0+128),f
  3847     02A2  0BD6               	decfsz	??___flmul^(0+128),f
  3848     02A3  2A9D               	goto	u3575
  3849     02A4                     l2516:
  3850     02A4  0861               	movf	___flmul@bexp^(0+128),w
  3851     02A5  0760               	addwf	___flmul@aexp^(0+128),w
  3852     02A6  00D6               	movwf	??___flmul^(0+128)
  3853     02A7  01D7               	clrf	(??___flmul^(0+128)+1)
  3854     02A8  0DD7               	rlf	(??___flmul+1)^(0+128),f
  3855     02A9  0856               	movf	??___flmul^(0+128),w
  3856     02AA  3E82               	addlw	130
  3857     02AB  00E6               	movwf	___flmul@temp^(0+128)
  3858     02AC  0857               	movf	(??___flmul+1)^(0+128),w
  3859     02AD  1803               	skipnc
  3860     02AE  3E01               	addlw	1
  3861     02AF  3EFF               	addlw	255
  3862     02B0  00E7               	movwf	(___flmul@temp+1)^(0+128)
  3863     02B1  2ACF               	goto	l2528
  3864     02B2                     l2518:
  3865     02B2  3001               	movlw	1
  3866     02B3  00D6               	movwf	??___flmul^(0+128)
  3867     02B4                     u3585:
  3868     02B4  1003               	clrc
  3869     02B5  0DE2               	rlf	___flmul@prod^(0+128),f
  3870     02B6  0DE3               	rlf	(___flmul@prod+1)^(0+128),f
  3871     02B7  0DE4               	rlf	(___flmul@prod+2)^(0+128),f
  3872     02B8  0DE5               	rlf	(___flmul@prod+3)^(0+128),f
  3873     02B9  0BD6               	decfsz	??___flmul^(0+128),f
  3874     02BA  2AB4               	goto	u3585
  3875     02BB                     l2520:
  3876     02BB  1FDF               	btfss	(___flmul@grs+3)^(0+128),7
  3877     02BC  2ABE               	goto	u3591
  3878     02BD  2ABF               	goto	u3590
  3879     02BE                     u3591:
  3880     02BE  2AC0               	goto	l2524
  3881     02BF                     u3590:
  3882     02BF                     l2522:
  3883     02BF  1462               	bsf	___flmul@prod^(0+128),0
  3884     02C0                     l2524:
  3885     02C0  3001               	movlw	1
  3886     02C1  00D6               	movwf	??___flmul^(0+128)
  3887     02C2                     u3605:
  3888     02C2  1003               	clrc
  3889     02C3  0DDC               	rlf	___flmul@grs^(0+128),f
  3890     02C4  0DDD               	rlf	(___flmul@grs+1)^(0+128),f
  3891     02C5  0DDE               	rlf	(___flmul@grs+2)^(0+128),f
  3892     02C6  0DDF               	rlf	(___flmul@grs+3)^(0+128),f
  3893     02C7  0BD6               	decfsz	??___flmul^(0+128),f
  3894     02C8  2AC2               	goto	u3605
  3895     02C9                     l2526:
  3896     02C9  30FF               	movlw	255
  3897     02CA  07E6               	addwf	___flmul@temp^(0+128),f
  3898     02CB  1803               	skipnc
  3899     02CC  0AE7               	incf	(___flmul@temp+1)^(0+128),f
  3900     02CD  30FF               	movlw	255
  3901     02CE  07E7               	addwf	(___flmul@temp+1)^(0+128),f
  3902     02CF                     l2528:
  3903     02CF  1FE4               	btfss	(___flmul@prod+2)^(0+128),7
  3904     02D0  2AD2               	goto	u3611
  3905     02D1  2AD3               	goto	u3610
  3906     02D2                     u3611:
  3907     02D2  2AB2               	goto	l2518
  3908     02D3                     u3610:
  3909     02D3                     l2530:
  3910     02D3  01E0               	clrf	___flmul@aexp^(0+128)
  3911     02D4                     l2532:
  3912     02D4  1FDF               	btfss	(___flmul@grs+3)^(0+128),7
  3913     02D5  2AD7               	goto	u3621
  3914     02D6  2AD8               	goto	u3620
  3915     02D7                     u3621:
  3916     02D7  2AF4               	goto	l2540
  3917     02D8                     u3620:
  3918     02D8                     l2534:
  3919     02D8  30FF               	movlw	255
  3920     02D9  055C               	andwf	___flmul@grs^(0+128),w
  3921     02DA  00D6               	movwf	??___flmul^(0+128)
  3922     02DB  30FF               	movlw	255
  3923     02DC  055D               	andwf	(___flmul@grs+1)^(0+128),w
  3924     02DD  00D7               	movwf	(??___flmul^(0+128)+1)
  3925     02DE  30FF               	movlw	255
  3926     02DF  055E               	andwf	(___flmul@grs+2)^(0+128),w
  3927     02E0  00D8               	movwf	(??___flmul^(0+128)+2)
  3928     02E1  307F               	movlw	127
  3929     02E2  055F               	andwf	(___flmul@grs+3)^(0+128),w
  3930     02E3  00D9               	movwf	(??___flmul^(0+128)+3)
  3931     02E4  0859               	movf	(??___flmul+3)^(0+128),w
  3932     02E5  0458               	iorwf	(??___flmul+2)^(0+128),w
  3933     02E6  0457               	iorwf	(??___flmul+1)^(0+128),w
  3934     02E7  0456               	iorwf	??___flmul^(0+128),w
  3935     02E8  1903               	skipnz
  3936     02E9  2AEB               	goto	u3631
  3937     02EA  2AEC               	goto	u3630
  3938     02EB                     u3631:
  3939     02EB  2AEF               	goto	l745
  3940     02EC                     u3630:
  3941     02EC                     l2536:
  3942     02EC  01E0               	clrf	___flmul@aexp^(0+128)
  3943     02ED  0AE0               	incf	___flmul@aexp^(0+128),f
  3944     02EE  2AF4               	goto	l2540
  3945     02EF                     l745:
  3946     02EF  1C62               	btfss	___flmul@prod^(0+128),0
  3947     02F0  2AF2               	goto	u3641
  3948     02F1  2AF3               	goto	u3640
  3949     02F2                     u3641:
  3950     02F2  2AF4               	goto	l2540
  3951     02F3                     u3640:
  3952     02F3  2AEC               	goto	l2536
  3953     02F4                     l2540:
  3954     02F4  0860               	movf	___flmul@aexp^(0+128),w
  3955     02F5  1903               	btfsc	3,2
  3956     02F6  2AF8               	goto	u3651
  3957     02F7  2AF9               	goto	u3650
  3958     02F8                     u3651:
  3959     02F8  2B2A               	goto	l2550
  3960     02F9                     u3650:
  3961     02F9                     l2542:
  3962     02F9  3001               	movlw	1
  3963     02FA  07E2               	addwf	___flmul@prod^(0+128),f
  3964     02FB  3000               	movlw	0
  3965     02FC  1803               	skipnc
  3966     02FD  3001               	movlw	1
  3967     02FE  07E3               	addwf	(___flmul@prod+1)^(0+128),f
  3968     02FF  3000               	movlw	0
  3969     0300  1803               	skipnc
  3970     0301  3001               	movlw	1
  3971     0302  07E4               	addwf	(___flmul@prod+2)^(0+128),f
  3972     0303  3000               	movlw	0
  3973     0304  1803               	skipnc
  3974     0305  3001               	movlw	1
  3975     0306  07E5               	addwf	(___flmul@prod+3)^(0+128),f
  3976     0307                     l2544:
  3977     0307  1C65               	btfss	(___flmul@prod+3)^(0+128),0
  3978     0308  2B0A               	goto	u3661
  3979     0309  2B0B               	goto	u3660
  3980     030A                     u3661:
  3981     030A  2B2A               	goto	l2550
  3982     030B                     u3660:
  3983     030B                     l2546:
  3984     030B  0862               	movf	___flmul@prod^(0+128),w
  3985     030C  00D6               	movwf	??___flmul^(0+128)
  3986     030D  0863               	movf	(___flmul@prod+1)^(0+128),w
  3987     030E  00D7               	movwf	(??___flmul^(0+128)+1)
  3988     030F  0864               	movf	(___flmul@prod+2)^(0+128),w
  3989     0310  00D8               	movwf	(??___flmul^(0+128)+2)
  3990     0311  0865               	movf	(___flmul@prod+3)^(0+128),w
  3991     0312  00D9               	movwf	(??___flmul^(0+128)+3)
  3992     0313  3001               	movlw	1
  3993     0314  00DA               	movwf	(??___flmul+4)^(0+128)
  3994     0315                     u3675:
  3995     0315  0D59               	rlf	(??___flmul^(0+128)+3),w
  3996     0316  0CD9               	rrf	(??___flmul^(0+128)+3),f
  3997     0317  0CD8               	rrf	(??___flmul^(0+128)+2),f
  3998     0318  0CD7               	rrf	(??___flmul^(0+128)+1),f
  3999     0319  0CD6               	rrf	??___flmul^(0+128),f
  4000     031A                     u3670:
  4001     031A  0BDA               	decfsz	(??___flmul+4)^(0+128),f
  4002     031B  2B15               	goto	u3675
  4003     031C  0859               	movf	(??___flmul+3)^(0+128),w
  4004     031D  00E5               	movwf	(___flmul@prod+3)^(0+128)
  4005     031E  0858               	movf	(??___flmul+2)^(0+128),w
  4006     031F  00E4               	movwf	(___flmul@prod+2)^(0+128)
  4007     0320  0857               	movf	(??___flmul+1)^(0+128),w
  4008     0321  00E3               	movwf	(___flmul@prod+1)^(0+128)
  4009     0322  0856               	movf	??___flmul^(0+128),w
  4010     0323  00E2               	movwf	___flmul@prod^(0+128)
  4011     0324                     l2548:
  4012     0324  3001               	movlw	1
  4013     0325  07E6               	addwf	___flmul@temp^(0+128),f
  4014     0326  1803               	skipnc
  4015     0327  0AE7               	incf	(___flmul@temp+1)^(0+128),f
  4016     0328  3000               	movlw	0
  4017     0329  07E7               	addwf	(___flmul@temp+1)^(0+128),f
  4018     032A                     l2550:
  4019     032A  0867               	movf	(___flmul@temp+1)^(0+128),w
  4020     032B  3A80               	xorlw	128
  4021     032C  00FF               	movwf	btemp+1
  4022     032D  3080               	movlw	128
  4023     032E  027F               	subwf	btemp+1,w
  4024     032F  1D03               	skipz
  4025     0330  2B33               	goto	u3685
  4026     0331  30FF               	movlw	255
  4027     0332  0266               	subwf	___flmul@temp^(0+128),w
  4028     0333                     u3685:
  4029     0333  1C03               	skipc
  4030     0334  2B36               	goto	u3681
  4031     0335  2B37               	goto	u3680
  4032     0336                     u3681:
  4033     0336  2B42               	goto	l2554
  4034     0337                     u3680:
  4035     0337                     l2552:
  4036     0337  307F               	movlw	127
  4037     0338  1683               	bsf	3,5	;RP0=1, select bank1
  4038     0339  1303               	bcf	3,6	;RP1=0, select bank1
  4039     033A  00E5               	movwf	(___flmul@prod+3)^(0+128)
  4040     033B  3080               	movlw	128
  4041     033C  00E4               	movwf	(___flmul@prod+2)^(0+128)
  4042     033D  3000               	movlw	0
  4043     033E  00E3               	movwf	(___flmul@prod+1)^(0+128)
  4044     033F  3000               	movlw	0
  4045     0340  00E2               	movwf	___flmul@prod^(0+128)
  4046     0341  2B73               	goto	l2568
  4047     0342                     l2554:
  4048     0342  1683               	bsf	3,5	;RP0=1, select bank1
  4049     0343  1303               	bcf	3,6	;RP1=0, select bank1
  4050     0344  0867               	movf	(___flmul@temp+1)^(0+128),w
  4051     0345  3A80               	xorlw	128
  4052     0346  00FF               	movwf	btemp+1
  4053     0347  3080               	movlw	128
  4054     0348  027F               	subwf	btemp+1,w
  4055     0349  1D03               	skipz
  4056     034A  2B4D               	goto	u3695
  4057     034B  3001               	movlw	1
  4058     034C  0266               	subwf	___flmul@temp^(0+128),w
  4059     034D                     u3695:
  4060     034D  1803               	skipnc
  4061     034E  2B50               	goto	u3691
  4062     034F  2B51               	goto	u3690
  4063     0350                     u3691:
  4064     0350  2B5D               	goto	l2560
  4065     0351                     u3690:
  4066     0351                     l2556:
  4067     0351  3000               	movlw	0
  4068     0352  1683               	bsf	3,5	;RP0=1, select bank1
  4069     0353  1303               	bcf	3,6	;RP1=0, select bank1
  4070     0354  00E5               	movwf	(___flmul@prod+3)^(0+128)
  4071     0355  3000               	movlw	0
  4072     0356  00E4               	movwf	(___flmul@prod+2)^(0+128)
  4073     0357  3000               	movlw	0
  4074     0358  00E3               	movwf	(___flmul@prod+1)^(0+128)
  4075     0359  3000               	movlw	0
  4076     035A  00E2               	movwf	___flmul@prod^(0+128)
  4077     035B                     l2558:
  4078     035B  01DB               	clrf	___flmul@sign^(0+128)
  4079     035C  2B73               	goto	l2568
  4080     035D                     l2560:
  4081     035D  1683               	bsf	3,5	;RP0=1, select bank1
  4082     035E  1303               	bcf	3,6	;RP1=0, select bank1
  4083     035F  0866               	movf	___flmul@temp^(0+128),w
  4084     0360  00E1               	movwf	___flmul@bexp^(0+128)
  4085     0361  30FF               	movlw	255
  4086     0362  05E2               	andwf	___flmul@prod^(0+128),f
  4087     0363  30FF               	movlw	255
  4088     0364  05E3               	andwf	(___flmul@prod+1)^(0+128),f
  4089     0365  307F               	movlw	127
  4090     0366  05E4               	andwf	(___flmul@prod+2)^(0+128),f
  4091     0367  3000               	movlw	0
  4092     0368  05E5               	andwf	(___flmul@prod+3)^(0+128),f
  4093     0369                     l2562:
  4094     0369  1C61               	btfss	___flmul@bexp^(0+128),0
  4095     036A  2B6C               	goto	u3701
  4096     036B  2B6D               	goto	u3700
  4097     036C                     u3701:
  4098     036C  2B6E               	goto	l2566
  4099     036D                     u3700:
  4100     036D                     l2564:
  4101     036D  17E4               	bsf	(___flmul@prod^(0+128)+2),7
  4102     036E                     l2566:
  4103     036E  0861               	movf	___flmul@bexp^(0+128),w
  4104     036F  00D6               	movwf	??___flmul^(0+128)
  4105     0370  1003               	clrc
  4106     0371  0C56               	rrf	??___flmul^(0+128),w
  4107     0372  00E5               	movwf	(___flmul@prod^(0+128)+3)
  4108     0373                     l2568:
  4109     0373  085B               	movf	___flmul@sign^(0+128),w
  4110     0374  00FF               	movwf	btemp+1
  4111     0375  087F               	movf	btemp+1,w
  4112     0376  04E5               	iorwf	(___flmul@prod^(0+128)+3),f
  4113     0377                     l2570:
  4114     0377  0865               	movf	(___flmul@prod+3)^(0+128),w
  4115     0378  00D1               	movwf	(?___flmul+3)^(0+128)
  4116     0379  0864               	movf	(___flmul@prod+2)^(0+128),w
  4117     037A  00D0               	movwf	(?___flmul+2)^(0+128)
  4118     037B  0863               	movf	(___flmul@prod+1)^(0+128),w
  4119     037C  00CF               	movwf	(?___flmul+1)^(0+128)
  4120     037D  0862               	movf	___flmul@prod^(0+128),w
  4121     037E  00CE               	movwf	?___flmul^(0+128)
  4122     037F                     l739:
  4123     037F  0008               	return
  4124     0380                     __end_of___flmul:
  4125                           
  4126                           	psect	text12
  4127     0AA1                     __ptext12:	
  4128 ;; *************** function __Umul8_16 *****************
  4129 ;; Defined at:
  4130 ;;		line 4 in file "C:\Program Files\Microchip\xc8\v2.41\pic\sources\c90\common\Umul8_16.c"
  4131 ;; Parameters:    Size  Location     Type
  4132 ;;  multiplier      1    wreg     unsigned char 
  4133 ;;  multiplicand    1    0[BANK1 ] unsigned char 
  4134 ;; Auto vars:     Size  Location     Type
  4135 ;;  multiplier      1    8[BANK1 ] unsigned char 
  4136 ;;  word_mpld       2    6[BANK1 ] unsigned int 
  4137 ;;  product         2    4[BANK1 ] unsigned int 
  4138 ;; Return value:  Size  Location     Type
  4139 ;;                  2    0[BANK1 ] unsigned int 
  4140 ;; Registers used:
  4141 ;;		wreg, status,2, status,0
  4142 ;; Tracked objects:
  4143 ;;		On entry : 0/0
  4144 ;;		On exit  : 0/0
  4145 ;;		Unchanged: 0/0
  4146 ;; Data sizes:     COMMON   BANK0   BANK1   BANK3   BANK2
  4147 ;;      Params:         0       0       2       0       0
  4148 ;;      Locals:         0       0       5       0       0
  4149 ;;      Temps:          0       0       2       0       0
  4150 ;;      Totals:         0       0       9       0       0
  4151 ;;Total ram usage:        9 bytes
  4152 ;; Hardware stack levels used: 1
  4153 ;; Hardware stack levels required when called: 4
  4154 ;; This function calls:
  4155 ;;		Nothing
  4156 ;; This function is called by:
  4157 ;;		___flmul
  4158 ;; This function uses a non-reentrant model
  4159 ;;
  4160                           
  4161     0AA1                     __Umul8_16:	
  4162                           ;psect for function __Umul8_16
  4163                           
  4164                           
  4165                           ;incstack = 0
  4166                           ; Regs used in __Umul8_16: [wreg+status,2+status,0]
  4167                           ;__Umul8_16@multiplier stored from wreg
  4168     0AA1  1683               	bsf	3,5	;RP0=1, select bank1
  4169     0AA2  1303               	bcf	3,6	;RP1=0, select bank1
  4170     0AA3  00A8               	movwf	__Umul8_16@multiplier^(0+128)
  4171     0AA4                     l2034:
  4172     0AA4  01A4               	clrf	__Umul8_16@product^(0+128)
  4173     0AA5  01A5               	clrf	(__Umul8_16@product+1)^(0+128)
  4174     0AA6                     l2036:
  4175     0AA6  0820               	movf	__Umul8_16@multiplicand^(0+128),w
  4176     0AA7  00A2               	movwf	??__Umul8_16^(0+128)
  4177     0AA8  01A3               	clrf	(??__Umul8_16^(0+128)+1)
  4178     0AA9  0822               	movf	??__Umul8_16^(0+128),w
  4179     0AAA  00A6               	movwf	__Umul8_16@word_mpld^(0+128)
  4180     0AAB  0823               	movf	(??__Umul8_16+1)^(0+128),w
  4181     0AAC  00A7               	movwf	(__Umul8_16@word_mpld+1)^(0+128)
  4182     0AAD                     l2038:
  4183     0AAD  1C28               	btfss	__Umul8_16@multiplier^(0+128),0
  4184     0AAE  2AB0               	goto	u2461
  4185     0AAF  2AB1               	goto	u2460
  4186     0AB0                     u2461:
  4187     0AB0  2AB7               	goto	l758
  4188     0AB1                     u2460:
  4189     0AB1                     l2040:
  4190     0AB1  0826               	movf	__Umul8_16@word_mpld^(0+128),w
  4191     0AB2  07A4               	addwf	__Umul8_16@product^(0+128),f
  4192     0AB3  1803               	skipnc
  4193     0AB4  0AA5               	incf	(__Umul8_16@product+1)^(0+128),f
  4194     0AB5  0827               	movf	(__Umul8_16@word_mpld+1)^(0+128),w
  4195     0AB6  07A5               	addwf	(__Umul8_16@product+1)^(0+128),f
  4196     0AB7                     l758:
  4197     0AB7  3001               	movlw	1
  4198     0AB8                     u2475:
  4199     0AB8  1003               	clrc
  4200     0AB9  0DA6               	rlf	__Umul8_16@word_mpld^(0+128),f
  4201     0ABA  0DA7               	rlf	(__Umul8_16@word_mpld+1)^(0+128),f
  4202     0ABB  3EFF               	addlw	-1
  4203     0ABC  1D03               	skipz
  4204     0ABD  2AB8               	goto	u2475
  4205     0ABE  1003               	clrc
  4206     0ABF  0CA8               	rrf	__Umul8_16@multiplier^(0+128),f
  4207     0AC0                     l2042:
  4208     0AC0  0828               	movf	__Umul8_16@multiplier^(0+128),w
  4209     0AC1  1D03               	btfss	3,2
  4210     0AC2  2AC4               	goto	u2481
  4211     0AC3  2AC5               	goto	u2480
  4212     0AC4                     u2481:
  4213     0AC4  2AAD               	goto	l2038
  4214     0AC5                     u2480:
  4215     0AC5                     l2044:
  4216     0AC5  0825               	movf	(__Umul8_16@product+1)^(0+128),w
  4217     0AC6  00A1               	movwf	(?__Umul8_16+1)^(0+128)
  4218     0AC7  0824               	movf	__Umul8_16@product^(0+128),w
  4219     0AC8  00A0               	movwf	?__Umul8_16^(0+128)
  4220     0AC9                     l760:
  4221     0AC9  0008               	return
  4222     0ACA                     __end_of__Umul8_16:
  4223                           
  4224                           	psect	text13
  4225     0B31                     __ptext13:	
  4226 ;; *************** function _ADC_Read *****************
  4227 ;; Defined at:
  4228 ;;		line 53 in file "PIC16F877A_ADC.c"
  4229 ;; Parameters:    Size  Location     Type
  4230 ;;  adc_channel     1    wreg     unsigned char 
  4231 ;; Auto vars:     Size  Location     Type
  4232 ;;  adc_channel     1    3[BANK1 ] unsigned char 
  4233 ;; Return value:  Size  Location     Type
  4234 ;;                  2    0[BANK1 ] unsigned int 
  4235 ;; Registers used:
  4236 ;;		wreg, status,2, status,0, btemp+1
  4237 ;; Tracked objects:
  4238 ;;		On entry : 0/0
  4239 ;;		On exit  : 0/0
  4240 ;;		Unchanged: 0/0
  4241 ;; Data sizes:     COMMON   BANK0   BANK1   BANK3   BANK2
  4242 ;;      Params:         0       0       2       0       0
  4243 ;;      Locals:         0       0       1       0       0
  4244 ;;      Temps:          0       0       1       0       0
  4245 ;;      Totals:         0       0       4       0       0
  4246 ;;Total ram usage:        4 bytes
  4247 ;; Hardware stack levels used: 1
  4248 ;; Hardware stack levels required when called: 4
  4249 ;; This function calls:
  4250 ;;		Nothing
  4251 ;; This function is called by:
  4252 ;;		_adcPosControl
  4253 ;; This function uses a non-reentrant model
  4254 ;;
  4255                           
  4256     0B31                     _ADC_Read:	
  4257                           ;psect for function _ADC_Read
  4258                           
  4259                           
  4260                           ;incstack = 0
  4261                           ; Regs used in _ADC_Read: [wreg+status,2+status,0+btemp+1]
  4262                           ;ADC_Read@adc_channel stored from wreg
  4263     0B31  1683               	bsf	3,5	;RP0=1, select bank1
  4264     0B32  1303               	bcf	3,6	;RP1=0, select bank1
  4265     0B33  00A3               	movwf	ADC_Read@adc_channel^(0+128)
  4266     0B34                     l2384:
  4267                           
  4268                           ;PIC16F877A_ADC.c: 53: uint16_t ADC_Read(uint8_t adc_channel);PIC16F877A_ADC.c: 54: {;PI
      +                          C16F877A_ADC.c: 55:     if(adc_channel > 7)
  4269     0B34  3008               	movlw	8
  4270     0B35  0223               	subwf	ADC_Read@adc_channel^(0+128),w
  4271     0B36  1C03               	skipc
  4272     0B37  2B39               	goto	u3281
  4273     0B38  2B3A               	goto	u3280
  4274     0B39                     u3281:
  4275     0B39  2B3D               	goto	l2390
  4276     0B3A                     u3280:
  4277     0B3A                     l2386:
  4278                           
  4279                           ;PIC16F877A_ADC.c: 56:         return 0;
  4280     0B3A  01A0               	clrf	?_ADC_Read^(0+128)
  4281     0B3B  01A1               	clrf	(?_ADC_Read+1)^(0+128)
  4282     0B3C  2B67               	goto	l53
  4283     0B3D                     l2390:
  4284                           
  4285                           ;PIC16F877A_ADC.c: 59:     ADCON0 &= 0b11000101;
  4286     0B3D  30C5               	movlw	197
  4287     0B3E  00FF               	movwf	btemp+1
  4288     0B3F  087F               	movf	btemp+1,w
  4289     0B40  1283               	bcf	3,5	;RP0=0, select bank0
  4290     0B41  1303               	bcf	3,6	;RP1=0, select bank0
  4291     0B42  059F               	andwf	31,f	;volatile
  4292                           
  4293                           ;PIC16F877A_ADC.c: 61:     ADCON0 |= adc_channel << 3;
  4294     0B43  1683               	bsf	3,5	;RP0=1, select bank1
  4295     0B44  1303               	bcf	3,6	;RP1=0, select bank1
  4296     0B45  0823               	movf	ADC_Read@adc_channel^(0+128),w	;volatile
  4297     0B46  00A2               	movwf	??_ADC_Read^(0+128)
  4298     0B47  3002               	movlw	2
  4299     0B48                     u3295:
  4300     0B48  1003               	clrc
  4301     0B49  0DA2               	rlf	??_ADC_Read^(0+128),f
  4302     0B4A  3EFF               	addlw	-1
  4303     0B4B  1D03               	skipz
  4304     0B4C  2B48               	goto	u3295
  4305     0B4D  1003               	clrc
  4306     0B4E  0D22               	rlf	??_ADC_Read^(0+128),w
  4307     0B4F  00FF               	movwf	btemp+1
  4308     0B50  087F               	movf	btemp+1,w
  4309     0B51  1283               	bcf	3,5	;RP0=0, select bank0
  4310     0B52  1303               	bcf	3,6	;RP1=0, select bank0
  4311     0B53  049F               	iorwf	31,f	;volatile
  4312     0B54                     l2392:
  4313                           
  4314                           ;PIC16F877A_ADC.c: 63:     _delay((unsigned long)((30)*(16000000/4000000.0)));
  4315     0B54  3027               	movlw	39
  4316     0B55  1683               	bsf	3,5	;RP0=1, select bank1
  4317     0B56  1303               	bcf	3,6	;RP1=0, select bank1
  4318     0B57  00A2               	movwf	??_ADC_Read^(0+128)
  4319     0B58                     u3877:
  4320     0B58  0BA2               	decfsz	??_ADC_Read^(0+128),f
  4321     0B59  2B58               	goto	u3877
  4322     0B5A                     l2394:
  4323                           
  4324                           ;PIC16F877A_ADC.c: 65:     GO_DONE = 1;
  4325     0B5A  1283               	bcf	3,5	;RP0=0, select bank0
  4326     0B5B  1303               	bcf	3,6	;RP1=0, select bank0
  4327     0B5C  151F               	bsf	31,2	;volatile
  4328     0B5D                     l54:	
  4329                           ;PIC16F877A_ADC.c: 67:     while(ADCON0bits.GO_DONE);
  4330                           
  4331     0B5D  191F               	btfsc	31,2	;volatile
  4332     0B5E  2B60               	goto	u3301
  4333     0B5F  2B61               	goto	u3300
  4334     0B60                     u3301:
  4335     0B60  2B5D               	goto	l54
  4336     0B61                     u3300:
  4337     0B61                     l2396:
  4338                           
  4339                           ;PIC16F877A_ADC.c: 68:     return ((ADRESH << 8) + ADRESL);
  4340     0B61  081E               	movf	30,w	;volatile
  4341     0B62  1683               	bsf	3,5	;RP0=1, select bank1
  4342     0B63  1303               	bcf	3,6	;RP1=0, select bank1
  4343     0B64  00A1               	movwf	(?_ADC_Read+1)^(0+128)
  4344     0B65  081E               	movf	30,w	;volatile
  4345     0B66  00A0               	movwf	?_ADC_Read^(0+128)
  4346     0B67                     l53:
  4347     0B67  0008               	return
  4348     0B68                     __end_of_ADC_Read:
  4349                           
  4350                           	psect	text14
  4351     0A3A                     __ptext14:	
  4352 ;; *************** function _UARTTransRcvInit *****************
  4353 ;; Defined at:
  4354 ;;		line 48 in file "PIC16F877A_UART.c"
  4355 ;; Parameters:    Size  Location     Type
  4356 ;;		None
  4357 ;; Auto vars:     Size  Location     Type
  4358 ;;		None
  4359 ;; Return value:  Size  Location     Type
  4360 ;;                  1    wreg      void 
  4361 ;; Registers used:
  4362 ;;		wreg
  4363 ;; Tracked objects:
  4364 ;;		On entry : 0/0
  4365 ;;		On exit  : 0/0
  4366 ;;		Unchanged: 0/0
  4367 ;; Data sizes:     COMMON   BANK0   BANK1   BANK3   BANK2
  4368 ;;      Params:         0       0       0       0       0
  4369 ;;      Locals:         0       0       0       0       0
  4370 ;;      Temps:          0       0       0       0       0
  4371 ;;      Totals:         0       0       0       0       0
  4372 ;;Total ram usage:        0 bytes
  4373 ;; Hardware stack levels used: 1
  4374 ;; Hardware stack levels required when called: 4
  4375 ;; This function calls:
  4376 ;;		Nothing
  4377 ;; This function is called by:
  4378 ;;		_main
  4379 ;; This function uses a non-reentrant model
  4380 ;;
  4381                           
  4382     0A3A                     _UARTTransRcvInit:	
  4383                           ;psect for function _UARTTransRcvInit
  4384                           
  4385     0A3A                     l2586:	
  4386                           ;incstack = 0
  4387                           ; Regs used in _UARTTransRcvInit: [wreg]
  4388                           
  4389                           
  4390                           ;PIC16F877A_UART.c: 51:     TRISC6 = 1;
  4391     0A3A  1683               	bsf	3,5	;RP0=1, select bank1
  4392     0A3B  1303               	bcf	3,6	;RP1=0, select bank1
  4393     0A3C  1707               	bsf	7,6	;volatile
  4394                           
  4395                           ;PIC16F877A_UART.c: 52:     TRISC7 = 1;
  4396     0A3D  1787               	bsf	7,7	;volatile
  4397                           
  4398                           ;PIC16F877A_UART.c: 54:     SPEN = 1;
  4399     0A3E  1283               	bcf	3,5	;RP0=0, select bank0
  4400     0A3F  1303               	bcf	3,6	;RP1=0, select bank0
  4401     0A40  1798               	bsf	24,7	;volatile
  4402                           
  4403                           ;PIC16F877A_UART.c: 56:     SYNC = 0;
  4404     0A41  1683               	bsf	3,5	;RP0=1, select bank1
  4405     0A42  1303               	bcf	3,6	;RP1=0, select bank1
  4406     0A43  1218               	bcf	24,4	;volatile
  4407                           
  4408                           ;PIC16F877A_UART.c: 58:     TX9 = 0;
  4409     0A44  1318               	bcf	24,6	;volatile
  4410                           
  4411                           ;PIC16F877A_UART.c: 59:     RX9 = 0;
  4412     0A45  1283               	bcf	3,5	;RP0=0, select bank0
  4413     0A46  1303               	bcf	3,6	;RP1=0, select bank0
  4414     0A47  1318               	bcf	24,6	;volatile
  4415                           
  4416                           ;PIC16F877A_UART.c: 61:     TXEN = 1;
  4417     0A48  1683               	bsf	3,5	;RP0=1, select bank1
  4418     0A49  1303               	bcf	3,6	;RP1=0, select bank1
  4419     0A4A  1698               	bsf	24,5	;volatile
  4420                           
  4421                           ;PIC16F877A_UART.c: 62:     CREN = 1;
  4422     0A4B  1283               	bcf	3,5	;RP0=0, select bank0
  4423     0A4C  1303               	bcf	3,6	;RP1=0, select bank0
  4424     0A4D  1618               	bsf	24,4	;volatile
  4425                           
  4426                           ;PIC16F877A_UART.c: 64:     BRGH = 1;
  4427     0A4E  1683               	bsf	3,5	;RP0=1, select bank1
  4428     0A4F  1303               	bcf	3,6	;RP1=0, select bank1
  4429     0A50  1518               	bsf	24,2	;volatile
  4430     0A51                     l2588:
  4431                           
  4432                           ;PIC16F877A_UART.c: 65:     SPBRG = ((16000000) / 57600) / 16 - 1;
  4433     0A51  3010               	movlw	16
  4434     0A52  0099               	movwf	25	;volatile
  4435     0A53                     l2590:
  4436                           
  4437                           ;PIC16F877A_UART.c: 67:     RCIE = 1;
  4438     0A53  168C               	bsf	12,5	;volatile
  4439     0A54                     l2592:
  4440                           
  4441                           ;PIC16F877A_UART.c: 68:     PEIE = 1;
  4442     0A54  170B               	bsf	11,6	;volatile
  4443     0A55                     l2594:
  4444                           
  4445                           ;PIC16F877A_UART.c: 69:     GIE = 1;
  4446     0A55  178B               	bsf	11,7	;volatile
  4447     0A56                     l104:
  4448     0A56  0008               	return
  4449     0A57                     __end_of_UARTTransRcvInit:
  4450                           
  4451                           	psect	text15
  4452     09F5                     __ptext15:	
  4453 ;; *************** function _ADC_Init *****************
  4454 ;; Defined at:
  4455 ;;		line 43 in file "PIC16F877A_ADC.c"
  4456 ;; Parameters:    Size  Location     Type
  4457 ;;  adc_channel     1    wreg     PTR unsigned char 
  4458 ;;		 -> adc_channels(1), 
  4459 ;;  len             1    6[BANK1 ] unsigned char 
  4460 ;; Auto vars:     Size  Location     Type
  4461 ;;  adc_channel     1    7[BANK1 ] PTR unsigned char 
  4462 ;;		 -> adc_channels(1), 
  4463 ;; Return value:  Size  Location     Type
  4464 ;;                  1    wreg      void 
  4465 ;; Registers used:
  4466 ;;		wreg, fsr0l, fsr0h, status,2, status,0, btemp+1, pclath, cstack
  4467 ;; Tracked objects:
  4468 ;;		On entry : 0/0
  4469 ;;		On exit  : 0/0
  4470 ;;		Unchanged: 0/0
  4471 ;; Data sizes:     COMMON   BANK0   BANK1   BANK3   BANK2
  4472 ;;      Params:         0       0       1       0       0
  4473 ;;      Locals:         0       0       1       0       0
  4474 ;;      Temps:          0       0       0       0       0
  4475 ;;      Totals:         0       0       2       0       0
  4476 ;;Total ram usage:        2 bytes
  4477 ;; Hardware stack levels used: 1
  4478 ;; Hardware stack levels required when called: 5
  4479 ;; This function calls:
  4480 ;;		_ADC_setInput
  4481 ;; This function is called by:
  4482 ;;		_main
  4483 ;; This function uses a non-reentrant model
  4484 ;;
  4485                           
  4486     09F5                     _ADC_Init:	
  4487                           ;psect for function _ADC_Init
  4488                           
  4489                           
  4490                           ;incstack = 0
  4491                           ; Regs used in _ADC_Init: [wreg-fsr0h+status,2+status,0+btemp+1+pclath+cstack]
  4492                           ;ADC_Init@adc_channel stored from wreg
  4493     09F5  1683               	bsf	3,5	;RP0=1, select bank1
  4494     09F6  1303               	bcf	3,6	;RP1=0, select bank1
  4495     09F7  00A7               	movwf	ADC_Init@adc_channel^(0+128)
  4496     09F8                     l2580:
  4497                           
  4498                           ;PIC16F877A_ADC.c: 43: void ADC_Init(uint8_t* adc_channel, uint8_t len);PIC16F877A_ADC.c
      +                          : 44: {;PIC16F877A_ADC.c: 46:     ADC_setInput(adc_channel, len);
  4499     09F8  0826               	movf	ADC_Init@len^(0+128),w
  4500     09F9  00A0               	movwf	ADC_setInput@len^(0+128)
  4501     09FA  0827               	movf	ADC_Init@adc_channel^(0+128),w
  4502     09FB  120A  158A  242A  120A  158A  	fcall	_ADC_setInput
  4503     0A00                     l2582:
  4504                           
  4505                           ;PIC16F877A_ADC.c: 48:     ADCON0 = 0x81;
  4506     0A00  3081               	movlw	129
  4507     0A01  1283               	bcf	3,5	;RP0=0, select bank0
  4508     0A02  1303               	bcf	3,6	;RP1=0, select bank0
  4509     0A03  009F               	movwf	31	;volatile
  4510     0A04                     l2584:
  4511                           
  4512                           ;PIC16F877A_ADC.c: 49:     ADCON1 = 0xC0;
  4513     0A04  30C0               	movlw	192
  4514     0A05  1683               	bsf	3,5	;RP0=1, select bank1
  4515     0A06  1303               	bcf	3,6	;RP1=0, select bank1
  4516     0A07  009F               	movwf	31	;volatile
  4517     0A08                     l49:
  4518     0A08  0008               	return
  4519     0A09                     __end_of_ADC_Init:
  4520                           
  4521                           	psect	text16
  4522     0C2A                     __ptext16:	
  4523 ;; *************** function _ADC_setInput *****************
  4524 ;; Defined at:
  4525 ;;		line 5 in file "PIC16F877A_ADC.c"
  4526 ;; Parameters:    Size  Location     Type
  4527 ;;  adc_channel     1    wreg     PTR unsigned char 
  4528 ;;		 -> adc_channels(1), 
  4529 ;;  len             1    0[BANK1 ] unsigned char 
  4530 ;; Auto vars:     Size  Location     Type
  4531 ;;  adc_channel     1    4[BANK1 ] PTR unsigned char 
  4532 ;;		 -> adc_channels(1), 
  4533 ;;  i               1    5[BANK1 ] unsigned char 
  4534 ;; Return value:  Size  Location     Type
  4535 ;;                  1    wreg      void 
  4536 ;; Registers used:
  4537 ;;		wreg, fsr0l, fsr0h, status,2, status,0, btemp+1
  4538 ;; Tracked objects:
  4539 ;;		On entry : 0/0
  4540 ;;		On exit  : 0/0
  4541 ;;		Unchanged: 0/0
  4542 ;; Data sizes:     COMMON   BANK0   BANK1   BANK3   BANK2
  4543 ;;      Params:         0       0       1       0       0
  4544 ;;      Locals:         0       0       2       0       0
  4545 ;;      Temps:          0       0       3       0       0
  4546 ;;      Totals:         0       0       6       0       0
  4547 ;;Total ram usage:        6 bytes
  4548 ;; Hardware stack levels used: 1
  4549 ;; Hardware stack levels required when called: 4
  4550 ;; This function calls:
  4551 ;;		Nothing
  4552 ;; This function is called by:
  4553 ;;		_ADC_Init
  4554 ;; This function uses a non-reentrant model
  4555 ;;
  4556                           
  4557     0C2A                     _ADC_setInput:	
  4558                           ;psect for function _ADC_setInput
  4559                           
  4560                           
  4561                           ;incstack = 0
  4562                           ; Regs used in _ADC_setInput: [wreg-fsr0h+status,2+status,0+btemp+1]
  4563                           ;ADC_setInput@adc_channel stored from wreg
  4564     0C2A  1683               	bsf	3,5	;RP0=1, select bank1
  4565     0C2B  1303               	bcf	3,6	;RP1=0, select bank1
  4566     0C2C  00A4               	movwf	ADC_setInput@adc_channel^(0+128)
  4567     0C2D                     l2368:
  4568                           
  4569                           ;PIC16F877A_ADC.c: 5: static void ADC_setInput(uint8_t* adc_channel, uint8_t len);PIC16F
      +                          877A_ADC.c: 6: {;PIC16F877A_ADC.c: 7:     for(uint8_t i = 0; i < len; ++i)
  4570     0C2D  01A5               	clrf	ADC_setInput@i^(0+128)
  4571     0C2E  2C6B               	goto	l2376
  4572     0C2F                     l36:	
  4573                           ;PIC16F877A_ADC.c: 10:         {;PIC16F877A_ADC.c: 11:             case 0:
  4574                           
  4575                           
  4576                           ;PIC16F877A_ADC.c: 12:                 TRISA0 = 1;
  4577     0C2F  1405               	bsf	5,0	;volatile
  4578                           
  4579                           ;PIC16F877A_ADC.c: 13:                 break;
  4580     0C30  2C67               	goto	l2374
  4581     0C31                     l38:	
  4582                           ;PIC16F877A_ADC.c: 14:             case 1:
  4583                           
  4584                           
  4585                           ;PIC16F877A_ADC.c: 15:                 TRISA1 = 1;
  4586     0C31  1485               	bsf	5,1	;volatile
  4587                           
  4588                           ;PIC16F877A_ADC.c: 16:                 break;
  4589     0C32  2C67               	goto	l2374
  4590     0C33                     l39:	
  4591                           ;PIC16F877A_ADC.c: 17:             case 2:
  4592                           
  4593                           
  4594                           ;PIC16F877A_ADC.c: 18:                 TRISA2 = 1;
  4595     0C33  1505               	bsf	5,2	;volatile
  4596                           
  4597                           ;PIC16F877A_ADC.c: 19:                 break;
  4598     0C34  2C67               	goto	l2374
  4599     0C35                     l40:	
  4600                           ;PIC16F877A_ADC.c: 20:             case 3:
  4601                           
  4602                           
  4603                           ;PIC16F877A_ADC.c: 21:                 TRISA3 = 1;
  4604     0C35  1585               	bsf	5,3	;volatile
  4605                           
  4606                           ;PIC16F877A_ADC.c: 22:                 break;
  4607     0C36  2C67               	goto	l2374
  4608     0C37                     l41:	
  4609                           ;PIC16F877A_ADC.c: 23:             case 4:
  4610                           
  4611                           
  4612                           ;PIC16F877A_ADC.c: 24:                 TRISA5 = 1;
  4613     0C37  1685               	bsf	5,5	;volatile
  4614                           
  4615                           ;PIC16F877A_ADC.c: 25:                 break;
  4616     0C38  2C67               	goto	l2374
  4617     0C39                     l42:	
  4618                           ;PIC16F877A_ADC.c: 26:             case 5:
  4619                           
  4620                           
  4621                           ;PIC16F877A_ADC.c: 27:                 TRISE0 = 1;
  4622     0C39  1409               	bsf	9,0	;volatile
  4623                           
  4624                           ;PIC16F877A_ADC.c: 28:                 break;
  4625     0C3A  2C67               	goto	l2374
  4626     0C3B                     l43:	
  4627                           ;PIC16F877A_ADC.c: 29:             case 6:
  4628                           
  4629                           
  4630                           ;PIC16F877A_ADC.c: 30:                 TRISE1 = 1;
  4631     0C3B  1489               	bsf	9,1	;volatile
  4632                           
  4633                           ;PIC16F877A_ADC.c: 31:                 break;
  4634     0C3C  2C67               	goto	l2374
  4635     0C3D                     l44:	
  4636                           ;PIC16F877A_ADC.c: 32:             case 7:
  4637                           
  4638                           
  4639                           ;PIC16F877A_ADC.c: 33:                 TRISE2 = 1;
  4640     0C3D  1509               	bsf	9,2	;volatile
  4641                           
  4642                           ;PIC16F877A_ADC.c: 34:                 break;
  4643     0C3E  2C67               	goto	l2374
  4644     0C3F                     l2372:
  4645     0C3F  0825               	movf	ADC_setInput@i^(0+128),w
  4646     0C40  0724               	addwf	ADC_setInput@adc_channel^(0+128),w
  4647     0C41  00A1               	movwf	??_ADC_setInput^(0+128)
  4648     0C42  0821               	movf	??_ADC_setInput^(0+128),w
  4649     0C43  0084               	movwf	4
  4650     0C44  1383               	bcf	3,7	;select IRP bank0
  4651     0C45  0800               	movf	0,w
  4652     0C46  00A2               	movwf	(??_ADC_setInput+1)^(0+128)
  4653     0C47  01A3               	clrf	((??_ADC_setInput+1)^(0+128)+1)
  4654                           
  4655                           ; Switch on 2 bytes has been partitioned into a top level switch of size 1, and 1 sub-sw
      +                          itches
  4656                           ; Switch size 1, requested type "simple"
  4657                           ; Number of cases is 1, Range of values is 0 to 0
  4658                           ; switch strategies available:
  4659                           ; Name         Instructions Cycles
  4660                           ; simple_byte            4     3 (average)
  4661                           ; direct_byte           11     8 (fixed)
  4662                           ; jumptable            260     6 (fixed)
  4663                           ;	Chosen strategy is simple_byte
  4664     0C48  0823               	movf	(??_ADC_setInput+2)^(0+128),w
  4665     0C49  3A00               	xorlw	0	; case 0
  4666     0C4A  1903               	skipnz
  4667     0C4B  2C4D               	goto	l2742
  4668     0C4C  2C67               	goto	l2374
  4669     0C4D                     l2742:
  4670                           
  4671                           ; Switch size 1, requested type "simple"
  4672                           ; Number of cases is 8, Range of values is 0 to 7
  4673                           ; switch strategies available:
  4674                           ; Name         Instructions Cycles
  4675                           ; simple_byte           25    13 (average)
  4676                           ; direct_byte           32     8 (fixed)
  4677                           ; jumptable            260     6 (fixed)
  4678                           ;	Chosen strategy is simple_byte
  4679     0C4D  0822               	movf	(??_ADC_setInput+1)^(0+128),w
  4680     0C4E  3A00               	xorlw	0	; case 0
  4681     0C4F  1903               	skipnz
  4682     0C50  2C2F               	goto	l36
  4683     0C51  3A01               	xorlw	1	; case 1
  4684     0C52  1903               	skipnz
  4685     0C53  2C31               	goto	l38
  4686     0C54  3A03               	xorlw	3	; case 2
  4687     0C55  1903               	skipnz
  4688     0C56  2C33               	goto	l39
  4689     0C57  3A01               	xorlw	1	; case 3
  4690     0C58  1903               	skipnz
  4691     0C59  2C35               	goto	l40
  4692     0C5A  3A07               	xorlw	7	; case 4
  4693     0C5B  1903               	skipnz
  4694     0C5C  2C37               	goto	l41
  4695     0C5D  3A01               	xorlw	1	; case 5
  4696     0C5E  1903               	skipnz
  4697     0C5F  2C39               	goto	l42
  4698     0C60  3A03               	xorlw	3	; case 6
  4699     0C61  1903               	skipnz
  4700     0C62  2C3B               	goto	l43
  4701     0C63  3A01               	xorlw	1	; case 7
  4702     0C64  1903               	skipnz
  4703     0C65  2C3D               	goto	l44
  4704     0C66  2C67               	goto	l2374
  4705     0C67                     l2374:
  4706                           
  4707                           ;PIC16F877A_ADC.c: 36:     }
  4708     0C67  3001               	movlw	1
  4709     0C68  00FF               	movwf	btemp+1
  4710     0C69  087F               	movf	btemp+1,w
  4711     0C6A  07A5               	addwf	ADC_setInput@i^(0+128),f
  4712     0C6B                     l2376:
  4713     0C6B  0820               	movf	ADC_setInput@len^(0+128),w
  4714     0C6C  0225               	subwf	ADC_setInput@i^(0+128),w
  4715     0C6D  1C03               	skipc
  4716     0C6E  2C70               	goto	u3271
  4717     0C6F  2C71               	goto	u3270
  4718     0C70                     u3271:
  4719     0C70  2C3F               	goto	l2372
  4720     0C71                     u3270:
  4721     0C71                     l46:
  4722     0C71  0008               	return
  4723     0C72                     __end_of_ADC_setInput:
  4724                           
  4725                           	psect	text17
  4726     0AFC                     __ptext17:	
  4727 ;; *************** function _ISR *****************
  4728 ;; Defined at:
  4729 ;;		line 29 in file "PIC16F877A_ServoMotor_Compare.c"
  4730 ;; Parameters:    Size  Location     Type
  4731 ;;		None
  4732 ;; Auto vars:     Size  Location     Type
  4733 ;;  command         1   58[BANK0 ] unsigned char 
  4734 ;; Return value:  Size  Location     Type
  4735 ;;                  1    wreg      void 
  4736 ;; Registers used:
  4737 ;;		wreg, fsr0l, fsr0h, status,2, status,0, btemp+1, pclath, cstack
  4738 ;; Tracked objects:
  4739 ;;		On entry : 0/0
  4740 ;;		On exit  : 0/0
  4741 ;;		Unchanged: 0/0
  4742 ;; Data sizes:     COMMON   BANK0   BANK1   BANK3   BANK2
  4743 ;;      Params:         0       0       0       0       0
  4744 ;;      Locals:         0       1       0       0       0
  4745 ;;      Temps:          0       4       0       0       0
  4746 ;;      Totals:         0       5       0       0       0
  4747 ;;Total ram usage:        5 bytes
  4748 ;; Hardware stack levels used: 1
  4749 ;; Hardware stack levels required when called: 3
  4750 ;; This function calls:
  4751 ;;		_UARTrcvChar
  4752 ;;		_positionControl
  4753 ;;		_servoShiftHigh
  4754 ;; This function is called by:
  4755 ;;		Interrupt level 1
  4756 ;; This function uses a non-reentrant model
  4757 ;;
  4758                           
  4759     0AFC                     _ISR:	
  4760                           ;psect for function _ISR
  4761                           
  4762     0AFC                     i1l2684:
  4763                           
  4764                           ;PIC16F877A_ServoMotor_Compare.c: 31:     if(TMR1IF)
  4765     0AFC  1C0C               	btfss	12,0	;volatile
  4766     0AFD  2AFF               	goto	u382_21
  4767     0AFE  2B00               	goto	u382_20
  4768     0AFF                     u382_21:
  4769     0AFF  2B08               	goto	i1l2690
  4770     0B00                     u382_20:
  4771     0B00                     i1l2686:
  4772                           
  4773                           ;PIC16F877A_ServoMotor_Compare.c: 32:     {;PIC16F877A_ServoMotor_Compare.c: 34:        
      +                           servoShiftHigh();
  4774     0B00  120A  158A  21D2  120A  158A  	fcall	_servoShiftHigh
  4775     0B05                     i1l2688:
  4776                           
  4777                           ;PIC16F877A_ServoMotor_Compare.c: 36:         TMR1IF = 0;
  4778     0B05  1283               	bcf	3,5	;RP0=0, select bank0
  4779     0B06  1303               	bcf	3,6	;RP1=0, select bank0
  4780     0B07  100C               	bcf	12,0	;volatile
  4781     0B08                     i1l2690:
  4782                           
  4783                           ;PIC16F877A_ServoMotor_Compare.c: 39:     if(RCIF){
  4784     0B08  1E8C               	btfss	12,5	;volatile
  4785     0B09  2B0B               	goto	u383_21
  4786     0B0A  2B0C               	goto	u383_20
  4787     0B0B                     u383_21:
  4788     0B0B  2B24               	goto	i1l198
  4789     0B0C                     u383_20:
  4790     0B0C                     i1l2692:
  4791                           
  4792                           ;PIC16F877A_ServoMotor_Compare.c: 40:         uint8_t command = UARTrcvChar();
  4793     0B0C  120A  158A  21DD  120A  158A  	fcall	_UARTrcvChar
  4794     0B11  1283               	bcf	3,5	;RP0=0, select bank0
  4795     0B12  1303               	bcf	3,6	;RP1=0, select bank0
  4796     0B13  00DA               	movwf	ISR@command
  4797     0B14                     i1l2694:
  4798                           
  4799                           ;PIC16F877A_ServoMotor_Compare.c: 41:         if(command == 97)
  4800     0B14  3061               	movlw	97
  4801     0B15  065A               	xorwf	ISR@command,w
  4802     0B16  1D03               	btfss	3,2
  4803     0B17  2B19               	goto	u384_21
  4804     0B18  2B1A               	goto	u384_20
  4805     0B19                     u384_21:
  4806     0B19  2B1C               	goto	i1l196
  4807     0B1A                     u384_20:
  4808     0B1A                     i1l2696:
  4809                           
  4810                           ;PIC16F877A_ServoMotor_Compare.c: 42:             mode = 0;
  4811     0B1A  01DF               	clrf	_mode
  4812     0B1B  2B24               	goto	i1l198
  4813     0B1C                     i1l196:	
  4814                           ;PIC16F877A_ServoMotor_Compare.c: 43:         else
  4815                           
  4816                           
  4817                           ;PIC16F877A_ServoMotor_Compare.c: 44:         {;PIC16F877A_ServoMotor_Compare.c: 45:    
      +                                   mode = 1;
  4818     0B1C  01DF               	clrf	_mode
  4819     0B1D  0ADF               	incf	_mode,f
  4820     0B1E                     i1l2698:
  4821                           
  4822                           ;PIC16F877A_ServoMotor_Compare.c: 46:             positionControl(command);
  4823     0B1E  085A               	movf	ISR@command,w
  4824     0B1F  120A  158A  24DA  120A  158A  	fcall	_positionControl
  4825     0B24                     i1l198:
  4826     0B24  1283               	bcf	3,5	;RP0=0, select bank0
  4827     0B25  1303               	bcf	3,6	;RP1=0, select bank0
  4828     0B26  0859               	movf	??_ISR+3,w
  4829     0B27  00FF               	movwf	btemp+1
  4830     0B28  0858               	movf	??_ISR+2,w
  4831     0B29  008A               	movwf	10
  4832     0B2A  0857               	movf	??_ISR+1,w
  4833     0B2B  0084               	movwf	4
  4834     0B2C  0E56               	swapf	??_ISR,w
  4835     0B2D  0083               	movwf	3
  4836     0B2E  0EFE               	swapf	btemp,f
  4837     0B2F  0E7E               	swapf	btemp,w
  4838     0B30  0009               	retfie
  4839     0B31                     __end_of_ISR:
  4840                           
  4841                           	psect	intentry
  4842     0004                     __pintentry:	
  4843                           ;incstack = 0
  4844                           ; Regs used in _ISR: [wreg-fsr0h+status,2+status,0+btemp+1+pclath+cstack]
  4845                           
  4846     0004                     interrupt_function:
  4847     007E                     saved_w	set	btemp
  4848     0004  00FE               	movwf	btemp
  4849     0005  0E03               	swapf	3,w
  4850     0006  1283               	bcf	3,5	;RP0=0, select bank0
  4851     0007  1303               	bcf	3,6	;RP1=0, select bank0
  4852     0008  00D6               	movwf	??_ISR
  4853     0009  0804               	movf	4,w
  4854     000A  00D7               	movwf	??_ISR+1
  4855     000B  080A               	movf	10,w
  4856     000C  00D8               	movwf	??_ISR+2
  4857     000D  087F               	movf	btemp+1,w
  4858     000E  00D9               	movwf	??_ISR+3
  4859     000F  120A  158A  2AFC   	ljmp	_ISR
  4860                           
  4861                           	psect	text18
  4862     09D2                     __ptext18:	
  4863 ;; *************** function _servoShiftHigh *****************
  4864 ;; Defined at:
  4865 ;;		line 39 in file "ServoMotor_Compare.c"
  4866 ;; Parameters:    Size  Location     Type
  4867 ;;		None
  4868 ;; Auto vars:     Size  Location     Type
  4869 ;;		None
  4870 ;; Return value:  Size  Location     Type
  4871 ;;                  1    wreg      void 
  4872 ;; Registers used:
  4873 ;;		wreg, status,2
  4874 ;; Tracked objects:
  4875 ;;		On entry : 0/0
  4876 ;;		On exit  : 0/0
  4877 ;;		Unchanged: 0/0
  4878 ;; Data sizes:     COMMON   BANK0   BANK1   BANK3   BANK2
  4879 ;;      Params:         0       0       0       0       0
  4880 ;;      Locals:         0       0       0       0       0
  4881 ;;      Temps:          0       0       0       0       0
  4882 ;;      Totals:         0       0       0       0       0
  4883 ;;Total ram usage:        0 bytes
  4884 ;; Hardware stack levels used: 1
  4885 ;; This function calls:
  4886 ;;		Nothing
  4887 ;; This function is called by:
  4888 ;;		_ISR
  4889 ;; This function uses a non-reentrant model
  4890 ;;
  4891                           
  4892     09D2                     _servoShiftHigh:	
  4893                           ;psect for function _servoShiftHigh
  4894                           
  4895     09D2                     i1l2604:	
  4896                           ;incstack = 0
  4897                           ; Regs used in _servoShiftHigh: [wreg+status,2]
  4898                           
  4899                           
  4900                           ;ServoMotor_Compare.c: 42:     TMR1 = TIME1;
  4901     09D2  1283               	bcf	3,5	;RP0=0, select bank0
  4902     09D3  1303               	bcf	3,6	;RP1=0, select bank0
  4903     09D4  0863               	movf	_TIME1+1,w
  4904     09D5  008F               	movwf	15	;volatile
  4905     09D6  0862               	movf	_TIME1,w
  4906     09D7  008E               	movwf	14	;volatile
  4907     09D8                     i1l2606:
  4908                           
  4909                           ;ServoMotor_Compare.c: 44:     CCP1CON = 0x00;
  4910     09D8  0197               	clrf	23	;volatile
  4911     09D9                     i1l2608:
  4912                           
  4913                           ;ServoMotor_Compare.c: 46:     RC2 = 1;
  4914     09D9  1507               	bsf	7,2	;volatile
  4915     09DA                     i1l2610:
  4916                           
  4917                           ;ServoMotor_Compare.c: 48:     CCP1CON = 0x09;
  4918     09DA  3009               	movlw	9
  4919     09DB  0097               	movwf	23	;volatile
  4920     09DC                     i1l264:
  4921     09DC  0008               	return
  4922     09DD                     __end_of_servoShiftHigh:
  4923                           
  4924                           	psect	text19
  4925     0CDA                     __ptext19:	
  4926 ;; *************** function _positionControl *****************
  4927 ;; Defined at:
  4928 ;;		line 71 in file "PIC16F877A_ServoMotor_Compare.c"
  4929 ;; Parameters:    Size  Location     Type
  4930 ;;  com             1    wreg     unsigned char 
  4931 ;; Auto vars:     Size  Location     Type
  4932 ;;  com             1   53[BANK0 ] unsigned char 
  4933 ;; Return value:  Size  Location     Type
  4934 ;;                  1    wreg      void 
  4935 ;; Registers used:
  4936 ;;		wreg, fsr0l, fsr0h, status,2, status,0, btemp+1, pclath, cstack
  4937 ;; Tracked objects:
  4938 ;;		On entry : 0/0
  4939 ;;		On exit  : 0/0
  4940 ;;		Unchanged: 0/0
  4941 ;; Data sizes:     COMMON   BANK0   BANK1   BANK3   BANK2
  4942 ;;      Params:         0       0       0       0       0
  4943 ;;      Locals:         0       1       0       0       0
  4944 ;;      Temps:          0       0       0       0       0
  4945 ;;      Totals:         0       1       0       0       0
  4946 ;;Total ram usage:        1 bytes
  4947 ;; Hardware stack levels used: 1
  4948 ;; Hardware stack levels required when called: 2
  4949 ;; This function calls:
  4950 ;;		_UARTsendString
  4951 ;;		i1_servoAngle
  4952 ;; This function is called by:
  4953 ;;		_ISR
  4954 ;; This function uses a non-reentrant model
  4955 ;;
  4956                           
  4957     0CDA                     _positionControl:	
  4958                           ;psect for function _positionControl
  4959                           
  4960                           
  4961                           ;incstack = 0
  4962                           ; Regs used in _positionControl: [wreg-fsr0h+status,2+status,0+btemp+1+pclath+cstack]
  4963                           ;positionControl@com stored from wreg
  4964     0CDA  1283               	bcf	3,5	;RP0=0, select bank0
  4965     0CDB  1303               	bcf	3,6	;RP1=0, select bank0
  4966     0CDC  00D5               	movwf	positionControl@com
  4967     0CDD                     i1l2612:
  4968                           
  4969                           ;PIC16F877A_ServoMotor_Compare.c: 71: void positionControl(uint8_t com);PIC16F877A_Servo
      +                          Motor_Compare.c: 72: {;PIC16F877A_ServoMotor_Compare.c: 73:     if(com == 48)
  4970     0CDD  3030               	movlw	48
  4971     0CDE  0655               	xorwf	positionControl@com,w
  4972     0CDF  1D03               	btfss	3,2
  4973     0CE0  2CE2               	goto	u373_21
  4974     0CE1  2CE3               	goto	u373_20
  4975     0CE2                     u373_21:
  4976     0CE2  2CEA               	goto	i1l2616
  4977     0CE3                     u373_20:
  4978     0CE3                     i1l2614:
  4979                           
  4980                           ;PIC16F877A_ServoMotor_Compare.c: 74:         servoAngle(0);
  4981     0CE3  3000               	movlw	0
  4982     0CE4  120A  158A  2636  120A  158A  	fcall	i1_servoAngle
  4983     0CE9  2D3F               	goto	i1l2644
  4984     0CEA                     i1l2616:
  4985     0CEA  3031               	movlw	49
  4986     0CEB  0655               	xorwf	positionControl@com,w
  4987     0CEC  1D03               	btfss	3,2
  4988     0CED  2CEF               	goto	u374_21
  4989     0CEE  2CF0               	goto	u374_20
  4990     0CEF                     u374_21:
  4991     0CEF  2CF7               	goto	i1l2620
  4992     0CF0                     u374_20:
  4993     0CF0                     i1l2618:
  4994                           
  4995                           ;PIC16F877A_ServoMotor_Compare.c: 76:         servoAngle(30);
  4996     0CF0  301E               	movlw	30
  4997     0CF1  120A  158A  2636  120A  158A  	fcall	i1_servoAngle
  4998     0CF6  2D3F               	goto	i1l2644
  4999     0CF7                     i1l2620:
  5000     0CF7  3032               	movlw	50
  5001     0CF8  0655               	xorwf	positionControl@com,w
  5002     0CF9  1D03               	btfss	3,2
  5003     0CFA  2CFC               	goto	u375_21
  5004     0CFB  2CFD               	goto	u375_20
  5005     0CFC                     u375_21:
  5006     0CFC  2D04               	goto	i1l2624
  5007     0CFD                     u375_20:
  5008     0CFD                     i1l2622:
  5009                           
  5010                           ;PIC16F877A_ServoMotor_Compare.c: 78:         servoAngle(45);
  5011     0CFD  302D               	movlw	45
  5012     0CFE  120A  158A  2636  120A  158A  	fcall	i1_servoAngle
  5013     0D03  2D3F               	goto	i1l2644
  5014     0D04                     i1l2624:
  5015     0D04  3033               	movlw	51
  5016     0D05  0655               	xorwf	positionControl@com,w
  5017     0D06  1D03               	btfss	3,2
  5018     0D07  2D09               	goto	u376_21
  5019     0D08  2D0A               	goto	u376_20
  5020     0D09                     u376_21:
  5021     0D09  2D11               	goto	i1l2628
  5022     0D0A                     u376_20:
  5023     0D0A                     i1l2626:
  5024                           
  5025                           ;PIC16F877A_ServoMotor_Compare.c: 80:         servoAngle(90);
  5026     0D0A  305A               	movlw	90
  5027     0D0B  120A  158A  2636  120A  158A  	fcall	i1_servoAngle
  5028     0D10  2D3F               	goto	i1l2644
  5029     0D11                     i1l2628:
  5030     0D11  3034               	movlw	52
  5031     0D12  0655               	xorwf	positionControl@com,w
  5032     0D13  1D03               	btfss	3,2
  5033     0D14  2D16               	goto	u377_21
  5034     0D15  2D17               	goto	u377_20
  5035     0D16                     u377_21:
  5036     0D16  2D1E               	goto	i1l2632
  5037     0D17                     u377_20:
  5038     0D17                     i1l2630:
  5039                           
  5040                           ;PIC16F877A_ServoMotor_Compare.c: 82:         servoAngle(120);
  5041     0D17  3078               	movlw	120
  5042     0D18  120A  158A  2636  120A  158A  	fcall	i1_servoAngle
  5043     0D1D  2D3F               	goto	i1l2644
  5044     0D1E                     i1l2632:
  5045     0D1E  3035               	movlw	53
  5046     0D1F  0655               	xorwf	positionControl@com,w
  5047     0D20  1D03               	btfss	3,2
  5048     0D21  2D23               	goto	u378_21
  5049     0D22  2D24               	goto	u378_20
  5050     0D23                     u378_21:
  5051     0D23  2D2B               	goto	i1l2636
  5052     0D24                     u378_20:
  5053     0D24                     i1l2634:
  5054                           
  5055                           ;PIC16F877A_ServoMotor_Compare.c: 84:         servoAngle(150);
  5056     0D24  3096               	movlw	150
  5057     0D25  120A  158A  2636  120A  158A  	fcall	i1_servoAngle
  5058     0D2A  2D3F               	goto	i1l2644
  5059     0D2B                     i1l2636:
  5060     0D2B  3036               	movlw	54
  5061     0D2C  0655               	xorwf	positionControl@com,w
  5062     0D2D  1D03               	btfss	3,2
  5063     0D2E  2D30               	goto	u379_21
  5064     0D2F  2D31               	goto	u379_20
  5065     0D30                     u379_21:
  5066     0D30  2D38               	goto	i1l2640
  5067     0D31                     u379_20:
  5068     0D31                     i1l2638:
  5069                           
  5070                           ;PIC16F877A_ServoMotor_Compare.c: 86:         servoAngle(180);
  5071     0D31  30B4               	movlw	180
  5072     0D32  120A  158A  2636  120A  158A  	fcall	i1_servoAngle
  5073     0D37  2D3F               	goto	i1l2644
  5074     0D38                     i1l2640:
  5075                           
  5076                           ;PIC16F877A_ServoMotor_Compare.c: 88:     {;PIC16F877A_ServoMotor_Compare.c: 89:        
      +                           UARTsendString("Invalid input!\r\n");
  5077     0D38  3001               	movlw	(low ((STR_1-__stringbase)| (0+32768)))& (0+255)
  5078     0D39  120A  158A  2257  120A  158A  	fcall	_UARTsendString
  5079     0D3E  2D45               	goto	i1l224
  5080     0D3F                     i1l2644:
  5081                           
  5082                           ;PIC16F877A_ServoMotor_Compare.c: 92:     UARTsendString("Completed!\r\n");
  5083     0D3F  3012               	movlw	(low ((STR_2-__stringbase)| (0+32768)))& (0+255)
  5084     0D40  120A  158A  2257  120A  158A  	fcall	_UARTsendString
  5085     0D45                     i1l224:
  5086     0D45  0008               	return
  5087     0D46                     __end_of_positionControl:
  5088                           
  5089                           	psect	text20
  5090     0E36                     __ptext20:	
  5091 ;; *************** function i1_servoAngle *****************
  5092 ;; Defined at:
  5093 ;;		line 29 in file "ServoMotor_Compare.c"
  5094 ;; Parameters:    Size  Location     Type
  5095 ;;  angle           1    wreg     unsigned char 
  5096 ;; Auto vars:     Size  Location     Type
  5097 ;;  angle           1   52[BANK0 ] unsigned char 
  5098 ;;  duty_cycle      2   50[BANK0 ] unsigned int 
  5099 ;; Return value:  Size  Location     Type
  5100 ;;                  1    wreg      void 
  5101 ;; Registers used:
  5102 ;;		wreg, status,2, status,0, btemp+1, pclath, cstack
  5103 ;; Tracked objects:
  5104 ;;		On entry : 0/0
  5105 ;;		On exit  : 0/0
  5106 ;;		Unchanged: 0/0
  5107 ;; Data sizes:     COMMON   BANK0   BANK1   BANK3   BANK2
  5108 ;;      Params:         0       0       0       0       0
  5109 ;;      Locals:         0       3       0       0       0
  5110 ;;      Temps:          0       8       0       0       0
  5111 ;;      Totals:         0      11       0       0       0
  5112 ;;Total ram usage:       11 bytes
  5113 ;; Hardware stack levels used: 1
  5114 ;; Hardware stack levels required when called: 1
  5115 ;; This function calls:
  5116 ;;		i1___fldiv
  5117 ;;		i1___fltol
  5118 ;;		i1___lwdiv
  5119 ;;		i1___wmul
  5120 ;;		i1___xxtofl
  5121 ;; This function is called by:
  5122 ;;		_positionControl
  5123 ;; This function uses a non-reentrant model
  5124 ;;
  5125                           
  5126     0E36                     i1_servoAngle:	
  5127                           ;psect for function i1_servoAngle
  5128                           
  5129                           
  5130                           ;incstack = 0
  5131                           ; Regs used in i1_servoAngle: [wreg+status,2+status,0+btemp+1+pclath+cstack]
  5132                           ;i1servoAngle@angle stored from wreg
  5133     0E36  1283               	bcf	3,5	;RP0=0, select bank0
  5134     0E37  1303               	bcf	3,6	;RP1=0, select bank0
  5135     0E38  00D4               	movwf	i1servoAngle@angle
  5136     0E39                     i1l2574:
  5137                           
  5138                           ;ServoMotor_Compare.c: 29: void servoAngle(uint8_t angle);ServoMotor_Compare.c: 30: {;Se
      +                          rvoMotor_Compare.c: 31:     if(angle <= 180)
  5139     0E39  30B5               	movlw	181
  5140     0E3A  0254               	subwf	i1servoAngle@angle,w
  5141     0E3B  1803               	skipnc
  5142     0E3C  2E3E               	goto	u371_21
  5143     0E3D  2E3F               	goto	u371_20
  5144     0E3E                     u371_21:
  5145     0E3E  2EB1               	goto	i1l261
  5146     0E3F                     u371_20:
  5147     0E3F                     i1l2576:
  5148                           
  5149                           ;ServoMotor_Compare.c: 32:     {;ServoMotor_Compare.c: 33:         uint16_t duty_cycle =
      +                           (uint16_t)((100 * angle) / 36.0) + TIME1 + (DC_RANGE / 20);
  5150     0E3F  3064               	movlw	100
  5151     0E40  00F2               	movwf	i1___wmul@multiplicand
  5152     0E41  3000               	movlw	0
  5153     0E42  00F3               	movwf	i1___wmul@multiplicand+1
  5154     0E43  0854               	movf	i1servoAngle@angle,w
  5155     0E44  00CA               	movwf	??i1_servoAngle
  5156     0E45  01CB               	clrf	??i1_servoAngle+1
  5157     0E46  084A               	movf	??i1_servoAngle,w
  5158     0E47  00F0               	movwf	i1___wmul@multiplier
  5159     0E48  084B               	movf	??i1_servoAngle+1,w
  5160     0E49  00F1               	movwf	i1___wmul@multiplier+1
  5161     0E4A  120A  158A  227C  120A  158A  	fcall	i1___wmul
  5162     0E4F  0870               	movf	?i1___wmul,w
  5163     0E50  00F6               	movwf	i1___xxtofl@val
  5164     0E51  0871               	movf	?i1___wmul+1,w
  5165     0E52  00F7               	movwf	i1___xxtofl@val+1
  5166     0E53  3000               	movlw	0
  5167     0E54  1BF7               	btfsc	i1___xxtofl@val+1,7
  5168     0E55  30FF               	movlw	255
  5169     0E56  00F8               	movwf	i1___xxtofl@val+2
  5170     0E57  00F9               	movwf	i1___xxtofl@val+3
  5171     0E58  3001               	movlw	1
  5172     0E59  120A  158A  2746  120A  158A  	fcall	i1___xxtofl
  5173     0E5E  0879               	movf	?i1___xxtofl+3,w
  5174     0E5F  1283               	bcf	3,5	;RP0=0, select bank0
  5175     0E60  1303               	bcf	3,6	;RP1=0, select bank0
  5176     0E61  00AD               	movwf	i1___fldiv@b+3
  5177     0E62  0878               	movf	?i1___xxtofl+2,w
  5178     0E63  00AC               	movwf	i1___fldiv@b+2
  5179     0E64  0877               	movf	?i1___xxtofl+1,w
  5180     0E65  00AB               	movwf	i1___fldiv@b+1
  5181     0E66  0876               	movf	?i1___xxtofl,w
  5182     0E67  00AA               	movwf	i1___fldiv@b
  5183     0E68  3042               	movlw	66
  5184     0E69  00A9               	movwf	i1___fldiv@a+3
  5185     0E6A  3010               	movlw	16
  5186     0E6B  00A8               	movwf	i1___fldiv@a+2
  5187     0E6C  3000               	movlw	0
  5188     0E6D  00A7               	movwf	i1___fldiv@a+1
  5189     0E6E  3000               	movlw	0
  5190     0E6F  00A6               	movwf	i1___fldiv@a
  5191     0E70  120A  118A  254F  120A  158A  	fcall	i1___fldiv
  5192     0E75  1283               	bcf	3,5	;RP0=0, select bank0
  5193     0E76  1303               	bcf	3,6	;RP1=0, select bank0
  5194     0E77  0829               	movf	?i1___fldiv+3,w
  5195     0E78  00C3               	movwf	i1___fltol@f1+3
  5196     0E79  0828               	movf	?i1___fldiv+2,w
  5197     0E7A  00C2               	movwf	i1___fltol@f1+2
  5198     0E7B  0827               	movf	?i1___fldiv+1,w
  5199     0E7C  00C1               	movwf	i1___fltol@f1+1
  5200     0E7D  0826               	movf	?i1___fldiv,w
  5201     0E7E  00C0               	movwf	i1___fltol@f1
  5202     0E7F  120A  158A  2546  120A  158A  	fcall	i1___fltol
  5203     0E84  1283               	bcf	3,5	;RP0=0, select bank0
  5204     0E85  1303               	bcf	3,6	;RP1=0, select bank0
  5205     0E86  0840               	movf	?i1___fltol,w
  5206     0E87  00CC               	movwf	??i1_servoAngle+2
  5207     0E88  0841               	movf	?i1___fltol+1,w
  5208     0E89  00CD               	movwf	??i1_servoAngle+3
  5209     0E8A  0842               	movf	?i1___fltol+2,w
  5210     0E8B  00CE               	movwf	??i1_servoAngle+4
  5211     0E8C  0843               	movf	?i1___fltol+3,w
  5212     0E8D  00CF               	movwf	??i1_servoAngle+5
  5213     0E8E  3014               	movlw	20
  5214     0E8F  00F0               	movwf	i1___lwdiv@divisor
  5215     0E90  3000               	movlw	0
  5216     0E91  00F1               	movwf	i1___lwdiv@divisor+1
  5217     0E92  0861               	movf	_DC_RANGE+1,w
  5218     0E93  00F3               	movwf	i1___lwdiv@dividend+1
  5219     0E94  0860               	movf	_DC_RANGE,w
  5220     0E95  00F2               	movwf	i1___lwdiv@dividend
  5221     0E96  120A  158A  23A0  120A  158A  	fcall	i1___lwdiv
  5222     0E9B  0870               	movf	?i1___lwdiv,w
  5223     0E9C  1283               	bcf	3,5	;RP0=0, select bank0
  5224     0E9D  1303               	bcf	3,6	;RP1=0, select bank0
  5225     0E9E  074C               	addwf	??i1_servoAngle+2,w
  5226     0E9F  00D0               	movwf	??i1_servoAngle+6
  5227     0EA0  0871               	movf	?i1___lwdiv+1,w
  5228     0EA1  1803               	skipnc
  5229     0EA2  0A71               	incf	?i1___lwdiv+1,w
  5230     0EA3  074D               	addwf	??i1_servoAngle+3,w
  5231     0EA4  00D1               	movwf	??i1_servoAngle+7
  5232     0EA5  0862               	movf	_TIME1,w
  5233     0EA6  0750               	addwf	??i1_servoAngle+6,w
  5234     0EA7  00D2               	movwf	i1servoAngle@duty_cycle
  5235     0EA8  0863               	movf	_TIME1+1,w
  5236     0EA9  1803               	skipnc
  5237     0EAA  0A63               	incf	_TIME1+1,w
  5238     0EAB  0751               	addwf	??i1_servoAngle+7,w
  5239     0EAC  00D3               	movwf	i1servoAngle@duty_cycle+1
  5240     0EAD                     i1l2578:
  5241                           
  5242                           ;ServoMotor_Compare.c: 34:         CCPR1 = duty_cycle;
  5243     0EAD  0853               	movf	i1servoAngle@duty_cycle+1,w
  5244     0EAE  0096               	movwf	22	;volatile
  5245     0EAF  0852               	movf	i1servoAngle@duty_cycle,w
  5246     0EB0  0095               	movwf	21	;volatile
  5247     0EB1                     i1l261:
  5248     0EB1  0008               	return
  5249     0EB2                     __end_ofi1_servoAngle:
  5250                           
  5251                           	psect	text21
  5252     0F46                     __ptext21:	
  5253 ;; *************** function i1___xxtofl *****************
  5254 ;; Defined at:
  5255 ;;		line 10 in file "C:\Program Files\Microchip\xc8\v2.41\pic\sources\c90\common\xxtofl.c"
  5256 ;; Parameters:    Size  Location     Type
  5257 ;;  sign            1    wreg     unsigned char 
  5258 ;;  val             4    6[COMMON] long 
  5259 ;; Auto vars:     Size  Location     Type
  5260 ;;  sign            1    0[BANK0 ] unsigned char 
  5261 ;;  arg             4    2[BANK0 ] unsigned long 
  5262 ;;  exp             1    1[BANK0 ] unsigned char 
  5263 ;; Return value:  Size  Location     Type
  5264 ;;                  4    6[COMMON] unsigned char 
  5265 ;; Registers used:
  5266 ;;		wreg, status,2, status,0, btemp+1
  5267 ;; Tracked objects:
  5268 ;;		On entry : 0/0
  5269 ;;		On exit  : 0/0
  5270 ;;		Unchanged: 0/0
  5271 ;; Data sizes:     COMMON   BANK0   BANK1   BANK3   BANK2
  5272 ;;      Params:         4       0       0       0       0
  5273 ;;      Locals:         0       6       0       0       0
  5274 ;;      Temps:          4       0       0       0       0
  5275 ;;      Totals:         8       6       0       0       0
  5276 ;;Total ram usage:       14 bytes
  5277 ;; Hardware stack levels used: 1
  5278 ;; This function calls:
  5279 ;;		Nothing
  5280 ;; This function is called by:
  5281 ;;		i1_servoAngle
  5282 ;; This function uses a non-reentrant model
  5283 ;;
  5284                           
  5285     0F46                     i1___xxtofl:	
  5286                           ;psect for function i1___xxtofl
  5287                           
  5288                           
  5289                           ;incstack = 0
  5290                           ; Regs used in i1___xxtofl: [wreg+status,2+status,0+btemp+1]
  5291                           ;i1___xxtofl@sign stored from wreg
  5292     0F46  1283               	bcf	3,5	;RP0=0, select bank0
  5293     0F47  1303               	bcf	3,6	;RP1=0, select bank0
  5294     0F48  00A0               	movwf	i1___xxtofl@sign
  5295     0F49                     i1l2320:
  5296     0F49  0820               	movf	i1___xxtofl@sign,w
  5297     0F4A  1903               	btfsc	3,2
  5298     0F4B  2F4D               	goto	u313_21
  5299     0F4C  2F4E               	goto	u313_20
  5300     0F4D                     u313_21:
  5301     0F4D  2F62               	goto	i1l2326
  5302     0F4E                     u313_20:
  5303     0F4E                     i1l2322:
  5304     0F4E  1FF9               	btfss	i1___xxtofl@val+3,7
  5305     0F4F  2F51               	goto	u314_21
  5306     0F50  2F52               	goto	u314_20
  5307     0F51                     u314_21:
  5308     0F51  2F62               	goto	i1l2326
  5309     0F52                     u314_20:
  5310     0F52                     i1l2324:
  5311     0F52  0976               	comf	i1___xxtofl@val,w
  5312     0F53  00A2               	movwf	i1___xxtofl@arg
  5313     0F54  0977               	comf	i1___xxtofl@val+1,w
  5314     0F55  00A3               	movwf	i1___xxtofl@arg+1
  5315     0F56  0978               	comf	i1___xxtofl@val+2,w
  5316     0F57  00A4               	movwf	i1___xxtofl@arg+2
  5317     0F58  0979               	comf	i1___xxtofl@val+3,w
  5318     0F59  00A5               	movwf	i1___xxtofl@arg+3
  5319     0F5A  0AA2               	incf	i1___xxtofl@arg,f
  5320     0F5B  1903               	skipnz
  5321     0F5C  0AA3               	incf	i1___xxtofl@arg+1,f
  5322     0F5D  1903               	skipnz
  5323     0F5E  0AA4               	incf	i1___xxtofl@arg+2,f
  5324     0F5F  1903               	skipnz
  5325     0F60  0AA5               	incf	i1___xxtofl@arg+3,f
  5326     0F61  2F6A               	goto	i1l783
  5327     0F62                     i1l2326:
  5328     0F62  0879               	movf	i1___xxtofl@val+3,w
  5329     0F63  00A5               	movwf	i1___xxtofl@arg+3
  5330     0F64  0878               	movf	i1___xxtofl@val+2,w
  5331     0F65  00A4               	movwf	i1___xxtofl@arg+2
  5332     0F66  0877               	movf	i1___xxtofl@val+1,w
  5333     0F67  00A3               	movwf	i1___xxtofl@arg+1
  5334     0F68  0876               	movf	i1___xxtofl@val,w
  5335     0F69  00A2               	movwf	i1___xxtofl@arg
  5336     0F6A                     i1l783:
  5337     0F6A  0879               	movf	i1___xxtofl@val+3,w
  5338     0F6B  0478               	iorwf	i1___xxtofl@val+2,w
  5339     0F6C  0477               	iorwf	i1___xxtofl@val+1,w
  5340     0F6D  0476               	iorwf	i1___xxtofl@val,w
  5341     0F6E  1D03               	skipz
  5342     0F6F  2F71               	goto	u315_21
  5343     0F70  2F72               	goto	u315_20
  5344     0F71                     u315_21:
  5345     0F71  2F7B               	goto	i1l2332
  5346     0F72                     u315_20:
  5347     0F72                     i1l2328:
  5348     0F72  3000               	movlw	0
  5349     0F73  00F9               	movwf	?i1___xxtofl+3
  5350     0F74  3000               	movlw	0
  5351     0F75  00F8               	movwf	?i1___xxtofl+2
  5352     0F76  3000               	movlw	0
  5353     0F77  00F7               	movwf	?i1___xxtofl+1
  5354     0F78  3000               	movlw	0
  5355     0F79  00F6               	movwf	?i1___xxtofl
  5356     0F7A  2FFF               	goto	i1l785
  5357     0F7B                     i1l2332:
  5358     0F7B  3096               	movlw	150
  5359     0F7C  00A1               	movwf	i1___xxtofl@exp
  5360     0F7D  2F8B               	goto	i1l2338
  5361     0F7E                     i1l2334:
  5362     0F7E  3001               	movlw	1
  5363     0F7F  00FF               	movwf	btemp+1
  5364     0F80  087F               	movf	btemp+1,w
  5365     0F81  07A1               	addwf	i1___xxtofl@exp,f
  5366     0F82                     i1l2336:
  5367     0F82  3001               	movlw	1
  5368     0F83                     u316_25:
  5369     0F83  1003               	clrc
  5370     0F84  0CA5               	rrf	i1___xxtofl@arg+3,f
  5371     0F85  0CA4               	rrf	i1___xxtofl@arg+2,f
  5372     0F86  0CA3               	rrf	i1___xxtofl@arg+1,f
  5373     0F87  0CA2               	rrf	i1___xxtofl@arg,f
  5374     0F88  3EFF               	addlw	-1
  5375     0F89  1D03               	skipz
  5376     0F8A  2F83               	goto	u316_25
  5377     0F8B                     i1l2338:
  5378     0F8B  30FE               	movlw	254
  5379     0F8C  0525               	andwf	i1___xxtofl@arg+3,w
  5380     0F8D  1D03               	btfss	3,2
  5381     0F8E  2F90               	goto	u317_21
  5382     0F8F  2F91               	goto	u317_20
  5383     0F90                     u317_21:
  5384     0F90  2F7E               	goto	i1l2334
  5385     0F91                     u317_20:
  5386     0F91  2FAD               	goto	i1l2346
  5387     0F92                     i1l2340:
  5388     0F92  3001               	movlw	1
  5389     0F93  00FF               	movwf	btemp+1
  5390     0F94  087F               	movf	btemp+1,w
  5391     0F95  07A1               	addwf	i1___xxtofl@exp,f
  5392     0F96                     i1l2342:
  5393     0F96  3001               	movlw	1
  5394     0F97  07A2               	addwf	i1___xxtofl@arg,f
  5395     0F98  3000               	movlw	0
  5396     0F99  1803               	skipnc
  5397     0F9A  3001               	movlw	1
  5398     0F9B  07A3               	addwf	i1___xxtofl@arg+1,f
  5399     0F9C  3000               	movlw	0
  5400     0F9D  1803               	skipnc
  5401     0F9E  3001               	movlw	1
  5402     0F9F  07A4               	addwf	i1___xxtofl@arg+2,f
  5403     0FA0  3000               	movlw	0
  5404     0FA1  1803               	skipnc
  5405     0FA2  3001               	movlw	1
  5406     0FA3  07A5               	addwf	i1___xxtofl@arg+3,f
  5407     0FA4                     i1l2344:
  5408     0FA4  3001               	movlw	1
  5409     0FA5                     u318_25:
  5410     0FA5  1003               	clrc
  5411     0FA6  0CA5               	rrf	i1___xxtofl@arg+3,f
  5412     0FA7  0CA4               	rrf	i1___xxtofl@arg+2,f
  5413     0FA8  0CA3               	rrf	i1___xxtofl@arg+1,f
  5414     0FA9  0CA2               	rrf	i1___xxtofl@arg,f
  5415     0FAA  3EFF               	addlw	-1
  5416     0FAB  1D03               	skipz
  5417     0FAC  2FA5               	goto	u318_25
  5418     0FAD                     i1l2346:
  5419     0FAD  30FF               	movlw	255
  5420     0FAE  0525               	andwf	i1___xxtofl@arg+3,w
  5421     0FAF  1D03               	btfss	3,2
  5422     0FB0  2FB2               	goto	u319_21
  5423     0FB1  2FB3               	goto	u319_20
  5424     0FB2                     u319_21:
  5425     0FB2  2F92               	goto	i1l2340
  5426     0FB3                     u319_20:
  5427     0FB3  2FBF               	goto	i1l2350
  5428     0FB4                     i1l2348:
  5429     0FB4  3001               	movlw	1
  5430     0FB5  02A1               	subwf	i1___xxtofl@exp,f
  5431     0FB6  3001               	movlw	1
  5432     0FB7  00FA               	movwf	??i1___xxtofl
  5433     0FB8                     u320_25:
  5434     0FB8  1003               	clrc
  5435     0FB9  0DA2               	rlf	i1___xxtofl@arg,f
  5436     0FBA  0DA3               	rlf	i1___xxtofl@arg+1,f
  5437     0FBB  0DA4               	rlf	i1___xxtofl@arg+2,f
  5438     0FBC  0DA5               	rlf	i1___xxtofl@arg+3,f
  5439     0FBD  0BFA               	decfsz	??i1___xxtofl,f
  5440     0FBE  2FB8               	goto	u320_25
  5441     0FBF                     i1l2350:
  5442     0FBF  1BA4               	btfsc	i1___xxtofl@arg+2,7
  5443     0FC0  2FC2               	goto	u321_21
  5444     0FC1  2FC3               	goto	u321_20
  5445     0FC2                     u321_21:
  5446     0FC2  2FC9               	goto	i1l796
  5447     0FC3                     u321_20:
  5448     0FC3                     i1l2352:
  5449     0FC3  3002               	movlw	2
  5450     0FC4  0221               	subwf	i1___xxtofl@exp,w
  5451     0FC5  1803               	skipnc
  5452     0FC6  2FC8               	goto	u322_21
  5453     0FC7  2FC9               	goto	u322_20
  5454     0FC8                     u322_21:
  5455     0FC8  2FB4               	goto	i1l2348
  5456     0FC9                     u322_20:
  5457     0FC9                     i1l796:
  5458     0FC9  1821               	btfsc	i1___xxtofl@exp,0
  5459     0FCA  2FCC               	goto	u323_21
  5460     0FCB  2FCD               	goto	u323_20
  5461     0FCC                     u323_21:
  5462     0FCC  2FD5               	goto	i1l797
  5463     0FCD                     u323_20:
  5464     0FCD                     i1l2354:
  5465     0FCD  30FF               	movlw	255
  5466     0FCE  05A2               	andwf	i1___xxtofl@arg,f
  5467     0FCF  30FF               	movlw	255
  5468     0FD0  05A3               	andwf	i1___xxtofl@arg+1,f
  5469     0FD1  307F               	movlw	127
  5470     0FD2  05A4               	andwf	i1___xxtofl@arg+2,f
  5471     0FD3  30FF               	movlw	255
  5472     0FD4  05A5               	andwf	i1___xxtofl@arg+3,f
  5473     0FD5                     i1l797:
  5474     0FD5  1003               	clrc
  5475     0FD6  0CA1               	rrf	i1___xxtofl@exp,f
  5476     0FD7                     i1l2356:
  5477     0FD7  0821               	movf	i1___xxtofl@exp,w
  5478     0FD8  00FA               	movwf	??i1___xxtofl
  5479     0FD9  01FB               	clrf	??i1___xxtofl+1
  5480     0FDA  01FC               	clrf	??i1___xxtofl+2
  5481     0FDB  01FD               	clrf	??i1___xxtofl+3
  5482     0FDC  3018               	movlw	24
  5483     0FDD                     u324_25:
  5484     0FDD  1003               	clrc
  5485     0FDE  0DFA               	rlf	??i1___xxtofl,f
  5486     0FDF  0DFB               	rlf	??i1___xxtofl+1,f
  5487     0FE0  0DFC               	rlf	??i1___xxtofl+2,f
  5488     0FE1  0DFD               	rlf	??i1___xxtofl+3,f
  5489     0FE2                     u324_20:
  5490     0FE2  3EFF               	addlw	-1
  5491     0FE3  1D03               	skipz
  5492     0FE4  2FDD               	goto	u324_25
  5493     0FE5  087A               	movf	??i1___xxtofl,w
  5494     0FE6  04A2               	iorwf	i1___xxtofl@arg,f
  5495     0FE7  087B               	movf	??i1___xxtofl+1,w
  5496     0FE8  04A3               	iorwf	i1___xxtofl@arg+1,f
  5497     0FE9  087C               	movf	??i1___xxtofl+2,w
  5498     0FEA  04A4               	iorwf	i1___xxtofl@arg+2,f
  5499     0FEB  087D               	movf	??i1___xxtofl+3,w
  5500     0FEC  04A5               	iorwf	i1___xxtofl@arg+3,f
  5501     0FED                     i1l2358:
  5502     0FED  0820               	movf	i1___xxtofl@sign,w
  5503     0FEE  1903               	btfsc	3,2
  5504     0FEF  2FF1               	goto	u325_21
  5505     0FF0  2FF2               	goto	u325_20
  5506     0FF1                     u325_21:
  5507     0FF1  2FF7               	goto	i1l2364
  5508     0FF2                     u325_20:
  5509     0FF2                     i1l2360:
  5510     0FF2  1FF9               	btfss	i1___xxtofl@val+3,7
  5511     0FF3  2FF5               	goto	u326_21
  5512     0FF4  2FF6               	goto	u326_20
  5513     0FF5                     u326_21:
  5514     0FF5  2FF7               	goto	i1l2364
  5515     0FF6                     u326_20:
  5516     0FF6                     i1l2362:
  5517     0FF6  17A5               	bsf	i1___xxtofl@arg+3,7
  5518     0FF7                     i1l2364:
  5519     0FF7  0825               	movf	i1___xxtofl@arg+3,w
  5520     0FF8  00F9               	movwf	?i1___xxtofl+3
  5521     0FF9  0824               	movf	i1___xxtofl@arg+2,w
  5522     0FFA  00F8               	movwf	?i1___xxtofl+2
  5523     0FFB  0823               	movf	i1___xxtofl@arg+1,w
  5524     0FFC  00F7               	movwf	?i1___xxtofl+1
  5525     0FFD  0822               	movf	i1___xxtofl@arg,w
  5526     0FFE  00F6               	movwf	?i1___xxtofl
  5527     0FFF                     i1l785:
  5528     0FFF  0008               	return
  5529     1000                     __end_ofi1___xxtofl:
  5530                           
  5531                           	psect	text22
  5532     0A7C                     __ptext22:	
  5533 ;; *************** function i1___wmul *****************
  5534 ;; Defined at:
  5535 ;;		line 15 in file "C:\Program Files\Microchip\xc8\v2.41\pic\sources\c90\common\Umul16.c"
  5536 ;; Parameters:    Size  Location     Type
  5537 ;;  multiplier      2    0[COMMON] unsigned int 
  5538 ;;  multiplicand    2    2[COMMON] unsigned int 
  5539 ;; Auto vars:     Size  Location     Type
  5540 ;;  product         2    4[COMMON] unsigned int 
  5541 ;; Return value:  Size  Location     Type
  5542 ;;                  2    0[COMMON] unsigned int 
  5543 ;; Registers used:
  5544 ;;		wreg, status,2, status,0
  5545 ;; Tracked objects:
  5546 ;;		On entry : 0/0
  5547 ;;		On exit  : 0/0
  5548 ;;		Unchanged: 0/0
  5549 ;; Data sizes:     COMMON   BANK0   BANK1   BANK3   BANK2
  5550 ;;      Params:         4       0       0       0       0
  5551 ;;      Locals:         2       0       0       0       0
  5552 ;;      Temps:          0       0       0       0       0
  5553 ;;      Totals:         6       0       0       0       0
  5554 ;;Total ram usage:        6 bytes
  5555 ;; Hardware stack levels used: 1
  5556 ;; This function calls:
  5557 ;;		Nothing
  5558 ;; This function is called by:
  5559 ;;		i1_servoAngle
  5560 ;; This function uses a non-reentrant model
  5561 ;;
  5562                           
  5563     0A7C                     i1___wmul:	
  5564                           ;psect for function i1___wmul
  5565                           
  5566     0A7C                     i1l2096:	
  5567                           ;incstack = 0
  5568                           ; Regs used in i1___wmul: [wreg+status,2+status,0]
  5569                           
  5570     0A7C  01F4               	clrf	i1___wmul@product
  5571     0A7D  01F5               	clrf	i1___wmul@product+1
  5572     0A7E                     i1l2098:
  5573     0A7E  1C70               	btfss	i1___wmul@multiplier,0
  5574     0A7F  2A81               	goto	u263_21
  5575     0A80  2A82               	goto	u263_20
  5576     0A81                     u263_21:
  5577     0A81  2A88               	goto	i1l350
  5578     0A82                     u263_20:
  5579     0A82                     i1l2100:
  5580     0A82  0872               	movf	i1___wmul@multiplicand,w
  5581     0A83  07F4               	addwf	i1___wmul@product,f
  5582     0A84  1803               	skipnc
  5583     0A85  0AF5               	incf	i1___wmul@product+1,f
  5584     0A86  0873               	movf	i1___wmul@multiplicand+1,w
  5585     0A87  07F5               	addwf	i1___wmul@product+1,f
  5586     0A88                     i1l350:
  5587     0A88  3001               	movlw	1
  5588     0A89                     u264_25:
  5589     0A89  1003               	clrc
  5590     0A8A  0DF2               	rlf	i1___wmul@multiplicand,f
  5591     0A8B  0DF3               	rlf	i1___wmul@multiplicand+1,f
  5592     0A8C  3EFF               	addlw	-1
  5593     0A8D  1D03               	skipz
  5594     0A8E  2A89               	goto	u264_25
  5595     0A8F                     i1l2102:
  5596     0A8F  3001               	movlw	1
  5597     0A90                     u265_25:
  5598     0A90  1003               	clrc
  5599     0A91  0CF1               	rrf	i1___wmul@multiplier+1,f
  5600     0A92  0CF0               	rrf	i1___wmul@multiplier,f
  5601     0A93  3EFF               	addlw	-1
  5602     0A94  1D03               	skipz
  5603     0A95  2A90               	goto	u265_25
  5604     0A96                     i1l2104:
  5605     0A96  0870               	movf	i1___wmul@multiplier,w
  5606     0A97  0471               	iorwf	i1___wmul@multiplier+1,w
  5607     0A98  1D03               	btfss	3,2
  5608     0A99  2A9B               	goto	u266_21
  5609     0A9A  2A9C               	goto	u266_20
  5610     0A9B                     u266_21:
  5611     0A9B  2A7E               	goto	i1l2098
  5612     0A9C                     u266_20:
  5613     0A9C                     i1l2106:
  5614     0A9C  0875               	movf	i1___wmul@product+1,w
  5615     0A9D  00F1               	movwf	?i1___wmul+1
  5616     0A9E  0874               	movf	i1___wmul@product,w
  5617     0A9F  00F0               	movwf	?i1___wmul
  5618     0AA0                     i1l352:
  5619     0AA0  0008               	return
  5620     0AA1                     __end_ofi1___wmul:
  5621                           
  5622                           	psect	text23
  5623     0BA0                     __ptext23:	
  5624 ;; *************** function i1___lwdiv *****************
  5625 ;; Defined at:
  5626 ;;		line 5 in file "C:\Program Files\Microchip\xc8\v2.41\pic\sources\c90\common\lwdiv.c"
  5627 ;; Parameters:    Size  Location     Type
  5628 ;;  divisor         2    0[COMMON] unsigned int 
  5629 ;;  dividend        2    2[COMMON] unsigned int 
  5630 ;; Auto vars:     Size  Location     Type
  5631 ;;  quotient        2    4[COMMON] unsigned int 
  5632 ;;  counter         1    6[COMMON] unsigned char 
  5633 ;; Return value:  Size  Location     Type
  5634 ;;                  2    0[COMMON] unsigned int 
  5635 ;; Registers used:
  5636 ;;		wreg, status,2, status,0, btemp+1
  5637 ;; Tracked objects:
  5638 ;;		On entry : 0/0
  5639 ;;		On exit  : 0/0
  5640 ;;		Unchanged: 0/0
  5641 ;; Data sizes:     COMMON   BANK0   BANK1   BANK3   BANK2
  5642 ;;      Params:         4       0       0       0       0
  5643 ;;      Locals:         3       0       0       0       0
  5644 ;;      Temps:          0       0       0       0       0
  5645 ;;      Totals:         7       0       0       0       0
  5646 ;;Total ram usage:        7 bytes
  5647 ;; Hardware stack levels used: 1
  5648 ;; This function calls:
  5649 ;;		Nothing
  5650 ;; This function is called by:
  5651 ;;		i1_servoAngle
  5652 ;; This function uses a non-reentrant model
  5653 ;;
  5654                           
  5655     0BA0                     i1___lwdiv:	
  5656                           ;psect for function i1___lwdiv
  5657                           
  5658     0BA0                     i1l2148:	
  5659                           ;incstack = 0
  5660                           ; Regs used in i1___lwdiv: [wreg+status,2+status,0+btemp+1]
  5661                           
  5662     0BA0  01F4               	clrf	i1___lwdiv@quotient
  5663     0BA1  01F5               	clrf	i1___lwdiv@quotient+1
  5664     0BA2                     i1l2150:
  5665     0BA2  0870               	movf	i1___lwdiv@divisor,w
  5666     0BA3  0471               	iorwf	i1___lwdiv@divisor+1,w
  5667     0BA4  1903               	btfsc	3,2
  5668     0BA5  2BA7               	goto	u277_21
  5669     0BA6  2BA8               	goto	u277_20
  5670     0BA7                     u277_21:
  5671     0BA7  2BDF               	goto	i1l2170
  5672     0BA8                     u277_20:
  5673     0BA8                     i1l2152:
  5674     0BA8  01F6               	clrf	i1___lwdiv@counter
  5675     0BA9  0AF6               	incf	i1___lwdiv@counter,f
  5676     0BAA  2BB6               	goto	i1l2158
  5677     0BAB                     i1l2154:
  5678     0BAB  3001               	movlw	1
  5679     0BAC                     u278_25:
  5680     0BAC  1003               	clrc
  5681     0BAD  0DF0               	rlf	i1___lwdiv@divisor,f
  5682     0BAE  0DF1               	rlf	i1___lwdiv@divisor+1,f
  5683     0BAF  3EFF               	addlw	-1
  5684     0BB0  1D03               	skipz
  5685     0BB1  2BAC               	goto	u278_25
  5686     0BB2                     i1l2156:
  5687     0BB2  3001               	movlw	1
  5688     0BB3  00FF               	movwf	btemp+1
  5689     0BB4  087F               	movf	btemp+1,w
  5690     0BB5  07F6               	addwf	i1___lwdiv@counter,f
  5691     0BB6                     i1l2158:
  5692     0BB6  1FF1               	btfss	i1___lwdiv@divisor+1,7
  5693     0BB7  2BB9               	goto	u279_21
  5694     0BB8  2BBA               	goto	u279_20
  5695     0BB9                     u279_21:
  5696     0BB9  2BAB               	goto	i1l2154
  5697     0BBA                     u279_20:
  5698     0BBA                     i1l2160:
  5699     0BBA  3001               	movlw	1
  5700     0BBB                     u280_25:
  5701     0BBB  1003               	clrc
  5702     0BBC  0DF4               	rlf	i1___lwdiv@quotient,f
  5703     0BBD  0DF5               	rlf	i1___lwdiv@quotient+1,f
  5704     0BBE  3EFF               	addlw	-1
  5705     0BBF  1D03               	skipz
  5706     0BC0  2BBB               	goto	u280_25
  5707     0BC1  0871               	movf	i1___lwdiv@divisor+1,w
  5708     0BC2  0273               	subwf	i1___lwdiv@dividend+1,w
  5709     0BC3  1D03               	skipz
  5710     0BC4  2BC7               	goto	u281_25
  5711     0BC5  0870               	movf	i1___lwdiv@divisor,w
  5712     0BC6  0272               	subwf	i1___lwdiv@dividend,w
  5713     0BC7                     u281_25:
  5714     0BC7  1C03               	skipc
  5715     0BC8  2BCA               	goto	u281_21
  5716     0BC9  2BCB               	goto	u281_20
  5717     0BCA                     u281_21:
  5718     0BCA  2BD2               	goto	i1l2166
  5719     0BCB                     u281_20:
  5720     0BCB                     i1l2162:
  5721     0BCB  0870               	movf	i1___lwdiv@divisor,w
  5722     0BCC  02F2               	subwf	i1___lwdiv@dividend,f
  5723     0BCD  0871               	movf	i1___lwdiv@divisor+1,w
  5724     0BCE  1C03               	skipc
  5725     0BCF  03F3               	decf	i1___lwdiv@dividend+1,f
  5726     0BD0  02F3               	subwf	i1___lwdiv@dividend+1,f
  5727     0BD1                     i1l2164:
  5728     0BD1  1474               	bsf	i1___lwdiv@quotient,0
  5729     0BD2                     i1l2166:
  5730     0BD2  3001               	movlw	1
  5731     0BD3                     u282_25:
  5732     0BD3  1003               	clrc
  5733     0BD4  0CF1               	rrf	i1___lwdiv@divisor+1,f
  5734     0BD5  0CF0               	rrf	i1___lwdiv@divisor,f
  5735     0BD6  3EFF               	addlw	-1
  5736     0BD7  1D03               	skipz
  5737     0BD8  2BD3               	goto	u282_25
  5738     0BD9                     i1l2168:
  5739     0BD9  3001               	movlw	1
  5740     0BDA  02F6               	subwf	i1___lwdiv@counter,f
  5741     0BDB  1D03               	btfss	3,2
  5742     0BDC  2BDE               	goto	u283_21
  5743     0BDD  2BDF               	goto	u283_20
  5744     0BDE                     u283_21:
  5745     0BDE  2BBA               	goto	i1l2160
  5746     0BDF                     u283_20:
  5747     0BDF                     i1l2170:
  5748     0BDF  0875               	movf	i1___lwdiv@quotient+1,w
  5749     0BE0  00F1               	movwf	?i1___lwdiv+1
  5750     0BE1  0874               	movf	i1___lwdiv@quotient,w
  5751     0BE2  00F0               	movwf	?i1___lwdiv
  5752     0BE3                     i1l622:
  5753     0BE3  0008               	return
  5754     0BE4                     __end_ofi1___lwdiv:
  5755                           
  5756                           	psect	text24
  5757     0D46                     __ptext24:	
  5758 ;; *************** function i1___fltol *****************
  5759 ;; Defined at:
  5760 ;;		line 43 in file "C:\Program Files\Microchip\xc8\v2.41\pic\sources\c90\common\fltol.c"
  5761 ;; Parameters:    Size  Location     Type
  5762 ;;  f1              4   32[BANK0 ] unsigned int 
  5763 ;; Auto vars:     Size  Location     Type
  5764 ;;  exp1            1   41[BANK0 ] unsigned char 
  5765 ;;  sign1           1   40[BANK0 ] unsigned char 
  5766 ;; Return value:  Size  Location     Type
  5767 ;;                  4   32[BANK0 ] long 
  5768 ;; Registers used:
  5769 ;;		wreg, status,2, status,0, btemp+1
  5770 ;; Tracked objects:
  5771 ;;		On entry : 0/0
  5772 ;;		On exit  : 0/0
  5773 ;;		Unchanged: 0/0
  5774 ;; Data sizes:     COMMON   BANK0   BANK1   BANK3   BANK2
  5775 ;;      Params:         0       4       0       0       0
  5776 ;;      Locals:         0       2       0       0       0
  5777 ;;      Temps:          0       4       0       0       0
  5778 ;;      Totals:         0      10       0       0       0
  5779 ;;Total ram usage:       10 bytes
  5780 ;; Hardware stack levels used: 1
  5781 ;; This function calls:
  5782 ;;		Nothing
  5783 ;; This function is called by:
  5784 ;;		i1_servoAngle
  5785 ;; This function uses a non-reentrant model
  5786 ;;
  5787                           
  5788     0D46                     i1___fltol:	
  5789                           ;psect for function i1___fltol
  5790                           
  5791     0D46                     i1l2110:	
  5792                           ;incstack = 0
  5793                           ; Regs used in i1___fltol: [wreg+status,2+status,0+btemp+1]
  5794                           
  5795     0D46  1003               	clrc
  5796     0D47  1283               	bcf	3,5	;RP0=0, select bank0
  5797     0D48  1303               	bcf	3,6	;RP1=0, select bank0
  5798     0D49  0D42               	rlf	i1___fltol@f1+2,w
  5799     0D4A  0D43               	rlf	i1___fltol@f1+3,w
  5800     0D4B  00C9               	movwf	i1___fltol@exp1
  5801     0D4C  0849               	movf	i1___fltol@exp1,w
  5802     0D4D  1D03               	btfss	3,2
  5803     0D4E  2D50               	goto	u267_21
  5804     0D4F  2D51               	goto	u267_20
  5805     0D50                     u267_21:
  5806     0D50  2D5A               	goto	i1l2116
  5807     0D51                     u267_20:
  5808     0D51                     i1l2112:
  5809     0D51  3000               	movlw	0
  5810     0D52  00C3               	movwf	?i1___fltol+3
  5811     0D53  3000               	movlw	0
  5812     0D54  00C2               	movwf	?i1___fltol+2
  5813     0D55  3000               	movlw	0
  5814     0D56  00C1               	movwf	?i1___fltol+1
  5815     0D57  3000               	movlw	0
  5816     0D58  00C0               	movwf	?i1___fltol
  5817     0D59  2DBD               	goto	i1l536
  5818     0D5A                     i1l2116:
  5819     0D5A  0840               	movf	i1___fltol@f1,w
  5820     0D5B  00C4               	movwf	??i1___fltol
  5821     0D5C  0841               	movf	i1___fltol@f1+1,w
  5822     0D5D  00C5               	movwf	??i1___fltol+1
  5823     0D5E  0842               	movf	i1___fltol@f1+2,w
  5824     0D5F  00C6               	movwf	??i1___fltol+2
  5825     0D60  0843               	movf	i1___fltol@f1+3,w
  5826     0D61  00C7               	movwf	??i1___fltol+3
  5827     0D62  301F               	movlw	31
  5828     0D63                     u268_25:
  5829     0D63  1003               	clrc
  5830     0D64  0CC7               	rrf	??i1___fltol+3,f
  5831     0D65  0CC6               	rrf	??i1___fltol+2,f
  5832     0D66  0CC5               	rrf	??i1___fltol+1,f
  5833     0D67  0CC4               	rrf	??i1___fltol,f
  5834     0D68                     u268_20:
  5835     0D68  3EFF               	addlw	-1
  5836     0D69  1D03               	skipz
  5837     0D6A  2D63               	goto	u268_25
  5838     0D6B  0844               	movf	??i1___fltol,w
  5839     0D6C  00C8               	movwf	i1___fltol@sign1
  5840     0D6D                     i1l2118:
  5841     0D6D  17C2               	bsf	i1___fltol@f1+2,7
  5842     0D6E                     i1l2120:
  5843     0D6E  30FF               	movlw	255
  5844     0D6F  05C0               	andwf	i1___fltol@f1,f
  5845     0D70  30FF               	movlw	255
  5846     0D71  05C1               	andwf	i1___fltol@f1+1,f
  5847     0D72  30FF               	movlw	255
  5848     0D73  05C2               	andwf	i1___fltol@f1+2,f
  5849     0D74  3000               	movlw	0
  5850     0D75  05C3               	andwf	i1___fltol@f1+3,f
  5851     0D76                     i1l2122:
  5852     0D76  3096               	movlw	150
  5853     0D77  02C9               	subwf	i1___fltol@exp1,f
  5854     0D78                     i1l2124:
  5855     0D78  1FC9               	btfss	i1___fltol@exp1,7
  5856     0D79  2D7B               	goto	u269_21
  5857     0D7A  2D7C               	goto	u269_20
  5858     0D7B                     u269_21:
  5859     0D7B  2D96               	goto	i1l2136
  5860     0D7C                     u269_20:
  5861     0D7C                     i1l2126:
  5862     0D7C  0849               	movf	i1___fltol@exp1,w
  5863     0D7D  3A80               	xorlw	128
  5864     0D7E  3E97               	addlw	151
  5865     0D7F  1803               	skipnc
  5866     0D80  2D82               	goto	u270_21
  5867     0D81  2D83               	goto	u270_20
  5868     0D82                     u270_21:
  5869     0D82  2D84               	goto	i1l2132
  5870     0D83                     u270_20:
  5871     0D83  2D51               	goto	i1l2112
  5872     0D84                     i1l2132:
  5873     0D84  3001               	movlw	1
  5874     0D85                     u271_25:
  5875     0D85  1003               	clrc
  5876     0D86  0CC3               	rrf	i1___fltol@f1+3,f
  5877     0D87  0CC2               	rrf	i1___fltol@f1+2,f
  5878     0D88  0CC1               	rrf	i1___fltol@f1+1,f
  5879     0D89  0CC0               	rrf	i1___fltol@f1,f
  5880     0D8A  3EFF               	addlw	-1
  5881     0D8B  1D03               	skipz
  5882     0D8C  2D85               	goto	u271_25
  5883     0D8D                     i1l2134:
  5884     0D8D  3001               	movlw	1
  5885     0D8E  00FF               	movwf	btemp+1
  5886     0D8F  087F               	movf	btemp+1,w
  5887     0D90  07C9               	addwf	i1___fltol@exp1,f
  5888     0D91  1D03               	btfss	3,2
  5889     0D92  2D94               	goto	u272_21
  5890     0D93  2D95               	goto	u272_20
  5891     0D94                     u272_21:
  5892     0D94  2D84               	goto	i1l2132
  5893     0D95                     u272_20:
  5894     0D95  2DAD               	goto	i1l2144
  5895     0D96                     i1l2136:
  5896     0D96  3020               	movlw	32
  5897     0D97  0249               	subwf	i1___fltol@exp1,w
  5898     0D98  1C03               	skipc
  5899     0D99  2D9B               	goto	u273_21
  5900     0D9A  2D9C               	goto	u273_20
  5901     0D9B                     u273_21:
  5902     0D9B  2DA8               	goto	i1l543
  5903     0D9C                     u273_20:
  5904     0D9C  2D51               	goto	i1l2112
  5905     0D9D                     i1l2142:
  5906     0D9D  3001               	movlw	1
  5907     0D9E  00C4               	movwf	??i1___fltol
  5908     0D9F                     u274_25:
  5909     0D9F  1003               	clrc
  5910     0DA0  0DC0               	rlf	i1___fltol@f1,f
  5911     0DA1  0DC1               	rlf	i1___fltol@f1+1,f
  5912     0DA2  0DC2               	rlf	i1___fltol@f1+2,f
  5913     0DA3  0DC3               	rlf	i1___fltol@f1+3,f
  5914     0DA4  0BC4               	decfsz	??i1___fltol,f
  5915     0DA5  2D9F               	goto	u274_25
  5916     0DA6  3001               	movlw	1
  5917     0DA7  02C9               	subwf	i1___fltol@exp1,f
  5918     0DA8                     i1l543:
  5919     0DA8  0849               	movf	i1___fltol@exp1,w
  5920     0DA9  1D03               	btfss	3,2
  5921     0DAA  2DAC               	goto	u275_21
  5922     0DAB  2DAD               	goto	u275_20
  5923     0DAC                     u275_21:
  5924     0DAC  2D9D               	goto	i1l2142
  5925     0DAD                     u275_20:
  5926     0DAD                     i1l2144:
  5927     0DAD  0848               	movf	i1___fltol@sign1,w
  5928     0DAE  1903               	btfsc	3,2
  5929     0DAF  2DB1               	goto	u276_21
  5930     0DB0  2DB2               	goto	u276_20
  5931     0DB1                     u276_21:
  5932     0DB1  2DBD               	goto	i1l546
  5933     0DB2                     u276_20:
  5934     0DB2                     i1l2146:
  5935     0DB2  09C0               	comf	i1___fltol@f1,f
  5936     0DB3  09C1               	comf	i1___fltol@f1+1,f
  5937     0DB4  09C2               	comf	i1___fltol@f1+2,f
  5938     0DB5  09C3               	comf	i1___fltol@f1+3,f
  5939     0DB6  0AC0               	incf	i1___fltol@f1,f
  5940     0DB7  1903               	skipnz
  5941     0DB8  0AC1               	incf	i1___fltol@f1+1,f
  5942     0DB9  1903               	skipnz
  5943     0DBA  0AC2               	incf	i1___fltol@f1+2,f
  5944     0DBB  1903               	skipnz
  5945     0DBC  0AC3               	incf	i1___fltol@f1+3,f
  5946     0DBD                     i1l546:
  5947     0DBD                     i1l536:
  5948     0DBD  0008               	return
  5949     0DBE                     __end_ofi1___fltol:
  5950                           
  5951                           	psect	text25
  5952     054F                     __ptext25:	
  5953 ;; *************** function i1___fldiv *****************
  5954 ;; Defined at:
  5955 ;;		line 8 in file "C:\Program Files\Microchip\xc8\v2.41\pic\sources\c90\common\sprcdiv.c"
  5956 ;; Parameters:    Size  Location     Type
  5957 ;;  a               4    6[BANK0 ] long 
  5958 ;;  b               4   10[BANK0 ] long 
  5959 ;; Auto vars:     Size  Location     Type
  5960 ;;  grs             4   26[BANK0 ] unsigned long 
  5961 ;;  rem             4   19[BANK0 ] unsigned long 
  5962 ;;  new_exp         2   24[BANK0 ] int 
  5963 ;;  aexp            1   31[BANK0 ] unsigned char 
  5964 ;;  bexp            1   30[BANK0 ] unsigned char 
  5965 ;;  sign            1   23[BANK0 ] unsigned char 
  5966 ;; Return value:  Size  Location     Type
  5967 ;;                  4    6[BANK0 ] unsigned char 
  5968 ;; Registers used:
  5969 ;;		wreg, status,2, status,0, btemp+1
  5970 ;; Tracked objects:
  5971 ;;		On entry : 0/0
  5972 ;;		On exit  : 0/0
  5973 ;;		Unchanged: 0/0
  5974 ;; Data sizes:     COMMON   BANK0   BANK1   BANK3   BANK2
  5975 ;;      Params:         0       8       0       0       0
  5976 ;;      Locals:         0      13       0       0       0
  5977 ;;      Temps:          0       5       0       0       0
  5978 ;;      Totals:         0      26       0       0       0
  5979 ;;Total ram usage:       26 bytes
  5980 ;; Hardware stack levels used: 1
  5981 ;; This function calls:
  5982 ;;		Nothing
  5983 ;; This function is called by:
  5984 ;;		i1_servoAngle
  5985 ;; This function uses a non-reentrant model
  5986 ;;
  5987                           
  5988     054F                     i1___fldiv:	
  5989                           ;psect for function i1___fldiv
  5990                           
  5991     054F                     i1l2174:	
  5992                           ;incstack = 0
  5993                           ; Regs used in i1___fldiv: [wreg+status,2+status,0+btemp+1]
  5994                           
  5995     054F  1283               	bcf	3,5	;RP0=0, select bank0
  5996     0550  1303               	bcf	3,6	;RP1=0, select bank0
  5997     0551  082D               	movf	i1___fldiv@b+3,w
  5998     0552  3980               	andlw	128
  5999     0553  00B7               	movwf	i1___fldiv@sign
  6000     0554                     i1l2176:
  6001     0554  082D               	movf	i1___fldiv@b+3,w
  6002     0555  00AE               	movwf	??i1___fldiv
  6003     0556  072E               	addwf	??i1___fldiv,w
  6004     0557  00BE               	movwf	i1___fldiv@bexp
  6005     0558                     i1l2178:
  6006     0558  1FAC               	btfss	i1___fldiv@b+2,7
  6007     0559  2D5B               	goto	u284_21
  6008     055A  2D5C               	goto	u284_20
  6009     055B                     u284_21:
  6010     055B  2D5D               	goto	i1l2182
  6011     055C                     u284_20:
  6012     055C                     i1l2180:
  6013     055C  143E               	bsf	i1___fldiv@bexp,0
  6014     055D                     i1l2182:
  6015     055D  083E               	movf	i1___fldiv@bexp,w
  6016     055E  1903               	btfsc	3,2
  6017     055F  2D61               	goto	u285_21
  6018     0560  2D62               	goto	u285_20
  6019     0561                     u285_21:
  6020     0561  2D72               	goto	i1l2192
  6021     0562                     u285_20:
  6022     0562                     i1l2184:
  6023     0562  0A3E               	incf	i1___fldiv@bexp,w
  6024     0563  1D03               	btfss	3,2
  6025     0564  2D66               	goto	u286_21
  6026     0565  2D67               	goto	u286_20
  6027     0566                     u286_21:
  6028     0566  2D6F               	goto	i1l2188
  6029     0567                     u286_20:
  6030     0567                     i1l2186:
  6031     0567  3000               	movlw	0
  6032     0568  00AD               	movwf	i1___fldiv@b+3
  6033     0569  3000               	movlw	0
  6034     056A  00AC               	movwf	i1___fldiv@b+2
  6035     056B  3000               	movlw	0
  6036     056C  00AB               	movwf	i1___fldiv@b+1
  6037     056D  3000               	movlw	0
  6038     056E  00AA               	movwf	i1___fldiv@b
  6039     056F                     i1l2188:
  6040     056F  17AC               	bsf	i1___fldiv@b+2,7
  6041     0570                     i1l2190:
  6042     0570  01AD               	clrf	i1___fldiv@b+3
  6043     0571  2D7A               	goto	i1l2194
  6044     0572                     i1l2192:
  6045     0572  3000               	movlw	0
  6046     0573  00AD               	movwf	i1___fldiv@b+3
  6047     0574  3000               	movlw	0
  6048     0575  00AC               	movwf	i1___fldiv@b+2
  6049     0576  3000               	movlw	0
  6050     0577  00AB               	movwf	i1___fldiv@b+1
  6051     0578  3000               	movlw	0
  6052     0579  00AA               	movwf	i1___fldiv@b
  6053     057A                     i1l2194:
  6054     057A  0829               	movf	i1___fldiv@a+3,w
  6055     057B  3980               	andlw	128
  6056     057C  00FF               	movwf	btemp+1
  6057     057D  087F               	movf	btemp+1,w
  6058     057E  06B7               	xorwf	i1___fldiv@sign,f
  6059     057F                     i1l2196:
  6060     057F  0829               	movf	i1___fldiv@a+3,w
  6061     0580  00AE               	movwf	??i1___fldiv
  6062     0581  072E               	addwf	??i1___fldiv,w
  6063     0582  00BF               	movwf	i1___fldiv@aexp
  6064     0583                     i1l2198:
  6065     0583  1FA8               	btfss	i1___fldiv@a+2,7
  6066     0584  2D86               	goto	u287_21
  6067     0585  2D87               	goto	u287_20
  6068     0586                     u287_21:
  6069     0586  2D88               	goto	i1l2202
  6070     0587                     u287_20:
  6071     0587                     i1l2200:
  6072     0587  143F               	bsf	i1___fldiv@aexp,0
  6073     0588                     i1l2202:
  6074     0588  083F               	movf	i1___fldiv@aexp,w
  6075     0589  1903               	btfsc	3,2
  6076     058A  2D8C               	goto	u288_21
  6077     058B  2D8D               	goto	u288_20
  6078     058C                     u288_21:
  6079     058C  2D9D               	goto	i1l2212
  6080     058D                     u288_20:
  6081     058D                     i1l2204:
  6082     058D  0A3F               	incf	i1___fldiv@aexp,w
  6083     058E  1D03               	btfss	3,2
  6084     058F  2D91               	goto	u289_21
  6085     0590  2D92               	goto	u289_20
  6086     0591                     u289_21:
  6087     0591  2D9A               	goto	i1l2208
  6088     0592                     u289_20:
  6089     0592                     i1l2206:
  6090     0592  3000               	movlw	0
  6091     0593  00A9               	movwf	i1___fldiv@a+3
  6092     0594  3000               	movlw	0
  6093     0595  00A8               	movwf	i1___fldiv@a+2
  6094     0596  3000               	movlw	0
  6095     0597  00A7               	movwf	i1___fldiv@a+1
  6096     0598  3000               	movlw	0
  6097     0599  00A6               	movwf	i1___fldiv@a
  6098     059A                     i1l2208:
  6099     059A  17A8               	bsf	i1___fldiv@a+2,7
  6100     059B                     i1l2210:
  6101     059B  01A9               	clrf	i1___fldiv@a+3
  6102     059C  2DA5               	goto	i1l699
  6103     059D                     i1l2212:
  6104     059D  3000               	movlw	0
  6105     059E  00A9               	movwf	i1___fldiv@a+3
  6106     059F  3000               	movlw	0
  6107     05A0  00A8               	movwf	i1___fldiv@a+2
  6108     05A1  3000               	movlw	0
  6109     05A2  00A7               	movwf	i1___fldiv@a+1
  6110     05A3  3000               	movlw	0
  6111     05A4  00A6               	movwf	i1___fldiv@a
  6112     05A5                     i1l699:
  6113     05A5  0829               	movf	i1___fldiv@a+3,w
  6114     05A6  0428               	iorwf	i1___fldiv@a+2,w
  6115     05A7  0427               	iorwf	i1___fldiv@a+1,w
  6116     05A8  0426               	iorwf	i1___fldiv@a,w
  6117     05A9  1D03               	skipz
  6118     05AA  2DAC               	goto	u290_21
  6119     05AB  2DAD               	goto	u290_20
  6120     05AC                     u290_21:
  6121     05AC  2DC6               	goto	i1l2222
  6122     05AD                     u290_20:
  6123     05AD                     i1l2214:
  6124     05AD  3000               	movlw	0
  6125     05AE  00AD               	movwf	i1___fldiv@b+3
  6126     05AF  3000               	movlw	0
  6127     05B0  00AC               	movwf	i1___fldiv@b+2
  6128     05B1  3000               	movlw	0
  6129     05B2  00AB               	movwf	i1___fldiv@b+1
  6130     05B3  3000               	movlw	0
  6131     05B4  00AA               	movwf	i1___fldiv@b
  6132     05B5  3080               	movlw	128
  6133     05B6  04AC               	iorwf	i1___fldiv@b+2,f
  6134     05B7  307F               	movlw	127
  6135     05B8  04AD               	iorwf	i1___fldiv@b+3,f
  6136     05B9                     i1l2216:
  6137     05B9  0837               	movf	i1___fldiv@sign,w
  6138     05BA  00FF               	movwf	btemp+1
  6139     05BB  087F               	movf	btemp+1,w
  6140     05BC  04AD               	iorwf	i1___fldiv@b+3,f
  6141     05BD                     i1l2218:
  6142     05BD  082D               	movf	i1___fldiv@b+3,w
  6143     05BE  00A9               	movwf	?i1___fldiv+3
  6144     05BF  082C               	movf	i1___fldiv@b+2,w
  6145     05C0  00A8               	movwf	?i1___fldiv+2
  6146     05C1  082B               	movf	i1___fldiv@b+1,w
  6147     05C2  00A7               	movwf	?i1___fldiv+1
  6148     05C3  082A               	movf	i1___fldiv@b,w
  6149     05C4  00A6               	movwf	?i1___fldiv
  6150     05C5  2F1D               	goto	i1l701
  6151     05C6                     i1l2222:
  6152     05C6  083E               	movf	i1___fldiv@bexp,w
  6153     05C7  1D03               	btfss	3,2
  6154     05C8  2DCA               	goto	u291_21
  6155     05C9  2DCB               	goto	u291_20
  6156     05CA                     u291_21:
  6157     05CA  2DD4               	goto	i1l2228
  6158     05CB                     u291_20:
  6159     05CB                     i1l2224:
  6160     05CB  3000               	movlw	0
  6161     05CC  00A9               	movwf	?i1___fldiv+3
  6162     05CD  3000               	movlw	0
  6163     05CE  00A8               	movwf	?i1___fldiv+2
  6164     05CF  3000               	movlw	0
  6165     05D0  00A7               	movwf	?i1___fldiv+1
  6166     05D1  3000               	movlw	0
  6167     05D2  00A6               	movwf	?i1___fldiv
  6168     05D3  2F1D               	goto	i1l701
  6169     05D4                     i1l2228:
  6170     05D4  083E               	movf	i1___fldiv@bexp,w
  6171     05D5  00AE               	movwf	??i1___fldiv
  6172     05D6  01AF               	clrf	??i1___fldiv+1
  6173     05D7  082F               	movf	??i1___fldiv+1,w
  6174     05D8  00B1               	movwf	??i1___fldiv+3
  6175     05D9  083F               	movf	i1___fldiv@aexp,w
  6176     05DA  022E               	subwf	??i1___fldiv,w
  6177     05DB  00B0               	movwf	??i1___fldiv+2
  6178     05DC  1C03               	skipc
  6179     05DD  03B1               	decf	??i1___fldiv+3,f
  6180     05DE  0830               	movf	??i1___fldiv+2,w
  6181     05DF  3E7F               	addlw	127
  6182     05E0  00B8               	movwf	i1___fldiv@new_exp
  6183     05E1  0831               	movf	??i1___fldiv+3,w
  6184     05E2  1803               	skipnc
  6185     05E3  3E01               	addlw	1
  6186     05E4  3E00               	addlw	0
  6187     05E5  00B9               	movwf	i1___fldiv@new_exp+1
  6188     05E6                     i1l2230:
  6189     05E6  082D               	movf	i1___fldiv@b+3,w
  6190     05E7  00B6               	movwf	i1___fldiv@rem+3
  6191     05E8  082C               	movf	i1___fldiv@b+2,w
  6192     05E9  00B5               	movwf	i1___fldiv@rem+2
  6193     05EA  082B               	movf	i1___fldiv@b+1,w
  6194     05EB  00B4               	movwf	i1___fldiv@rem+1
  6195     05EC  082A               	movf	i1___fldiv@b,w
  6196     05ED  00B3               	movwf	i1___fldiv@rem
  6197     05EE                     i1l2232:
  6198     05EE  3000               	movlw	0
  6199     05EF  00AD               	movwf	i1___fldiv@b+3
  6200     05F0  3000               	movlw	0
  6201     05F1  00AC               	movwf	i1___fldiv@b+2
  6202     05F2  3000               	movlw	0
  6203     05F3  00AB               	movwf	i1___fldiv@b+1
  6204     05F4  3000               	movlw	0
  6205     05F5  00AA               	movwf	i1___fldiv@b
  6206     05F6                     i1l2234:
  6207     05F6  3000               	movlw	0
  6208     05F7  00BD               	movwf	i1___fldiv@grs+3
  6209     05F8  3000               	movlw	0
  6210     05F9  00BC               	movwf	i1___fldiv@grs+2
  6211     05FA  3000               	movlw	0
  6212     05FB  00BB               	movwf	i1___fldiv@grs+1
  6213     05FC  3000               	movlw	0
  6214     05FD  00BA               	movwf	i1___fldiv@grs
  6215     05FE                     i1l2236:
  6216     05FE  01BF               	clrf	i1___fldiv@aexp
  6217     05FF  2E4A               	goto	i1l2256
  6218     0600                     i1l2238:
  6219     0600  083F               	movf	i1___fldiv@aexp,w
  6220     0601  1903               	btfsc	3,2
  6221     0602  2E04               	goto	u292_21
  6222     0603  2E05               	goto	u292_20
  6223     0604                     u292_21:
  6224     0604  2E25               	goto	i1l2248
  6225     0605                     u292_20:
  6226     0605                     i1l2240:
  6227     0605  3001               	movlw	1
  6228     0606  00AE               	movwf	??i1___fldiv
  6229     0607                     u293_25:
  6230     0607  1003               	clrc
  6231     0608  0DB3               	rlf	i1___fldiv@rem,f
  6232     0609  0DB4               	rlf	i1___fldiv@rem+1,f
  6233     060A  0DB5               	rlf	i1___fldiv@rem+2,f
  6234     060B  0DB6               	rlf	i1___fldiv@rem+3,f
  6235     060C  0BAE               	decfsz	??i1___fldiv,f
  6236     060D  2E07               	goto	u293_25
  6237     060E  3001               	movlw	1
  6238     060F  00AE               	movwf	??i1___fldiv
  6239     0610                     u294_25:
  6240     0610  1003               	clrc
  6241     0611  0DAA               	rlf	i1___fldiv@b,f
  6242     0612  0DAB               	rlf	i1___fldiv@b+1,f
  6243     0613  0DAC               	rlf	i1___fldiv@b+2,f
  6244     0614  0DAD               	rlf	i1___fldiv@b+3,f
  6245     0615  0BAE               	decfsz	??i1___fldiv,f
  6246     0616  2E10               	goto	u294_25
  6247     0617                     i1l2242:
  6248     0617  1FBD               	btfss	i1___fldiv@grs+3,7
  6249     0618  2E1A               	goto	u295_21
  6250     0619  2E1B               	goto	u295_20
  6251     061A                     u295_21:
  6252     061A  2E1C               	goto	i1l2246
  6253     061B                     u295_20:
  6254     061B                     i1l2244:
  6255     061B  142A               	bsf	i1___fldiv@b,0
  6256     061C                     i1l2246:
  6257     061C  3001               	movlw	1
  6258     061D  00AE               	movwf	??i1___fldiv
  6259     061E                     u296_25:
  6260     061E  1003               	clrc
  6261     061F  0DBA               	rlf	i1___fldiv@grs,f
  6262     0620  0DBB               	rlf	i1___fldiv@grs+1,f
  6263     0621  0DBC               	rlf	i1___fldiv@grs+2,f
  6264     0622  0DBD               	rlf	i1___fldiv@grs+3,f
  6265     0623  0BAE               	decfsz	??i1___fldiv,f
  6266     0624  2E1E               	goto	u296_25
  6267     0625                     i1l2248:
  6268     0625  0829               	movf	i1___fldiv@a+3,w
  6269     0626  0236               	subwf	i1___fldiv@rem+3,w
  6270     0627  1D03               	skipz
  6271     0628  2E33               	goto	u297_25
  6272     0629  0828               	movf	i1___fldiv@a+2,w
  6273     062A  0235               	subwf	i1___fldiv@rem+2,w
  6274     062B  1D03               	skipz
  6275     062C  2E33               	goto	u297_25
  6276     062D  0827               	movf	i1___fldiv@a+1,w
  6277     062E  0234               	subwf	i1___fldiv@rem+1,w
  6278     062F  1D03               	skipz
  6279     0630  2E33               	goto	u297_25
  6280     0631  0826               	movf	i1___fldiv@a,w
  6281     0632  0233               	subwf	i1___fldiv@rem,w
  6282     0633                     u297_25:
  6283     0633  1C03               	skipc
  6284     0634  2E36               	goto	u297_21
  6285     0635  2E37               	goto	u297_20
  6286     0636                     u297_21:
  6287     0636  2E46               	goto	i1l2254
  6288     0637                     u297_20:
  6289     0637                     i1l2250:
  6290     0637  173D               	bsf	i1___fldiv@grs+3,6
  6291     0638                     i1l2252:
  6292     0638  0826               	movf	i1___fldiv@a,w
  6293     0639  02B3               	subwf	i1___fldiv@rem,f
  6294     063A  0827               	movf	i1___fldiv@a+1,w
  6295     063B  1C03               	skipc
  6296     063C  0F27               	incfsz	i1___fldiv@a+1,w
  6297     063D  02B4               	subwf	i1___fldiv@rem+1,f
  6298     063E  0828               	movf	i1___fldiv@a+2,w
  6299     063F  1C03               	skipc
  6300     0640  0F28               	incfsz	i1___fldiv@a+2,w
  6301     0641  02B5               	subwf	i1___fldiv@rem+2,f
  6302     0642  0829               	movf	i1___fldiv@a+3,w
  6303     0643  1C03               	skipc
  6304     0644  0F29               	incfsz	i1___fldiv@a+3,w
  6305     0645  02B6               	subwf	i1___fldiv@rem+3,f
  6306     0646                     i1l2254:
  6307     0646  3001               	movlw	1
  6308     0647  00FF               	movwf	btemp+1
  6309     0648  087F               	movf	btemp+1,w
  6310     0649  07BF               	addwf	i1___fldiv@aexp,f
  6311     064A                     i1l2256:
  6312     064A  301A               	movlw	26
  6313     064B  023F               	subwf	i1___fldiv@aexp,w
  6314     064C  1C03               	skipc
  6315     064D  2E4F               	goto	u298_21
  6316     064E  2E50               	goto	u298_20
  6317     064F                     u298_21:
  6318     064F  2E00               	goto	i1l2238
  6319     0650                     u298_20:
  6320     0650                     i1l2258:
  6321     0650  0836               	movf	i1___fldiv@rem+3,w
  6322     0651  0435               	iorwf	i1___fldiv@rem+2,w
  6323     0652  0434               	iorwf	i1___fldiv@rem+1,w
  6324     0653  0433               	iorwf	i1___fldiv@rem,w
  6325     0654  1903               	skipnz
  6326     0655  2E57               	goto	u299_21
  6327     0656  2E58               	goto	u299_20
  6328     0657                     u299_21:
  6329     0657  2E77               	goto	i1l2272
  6330     0658                     u299_20:
  6331     0658                     i1l2260:
  6332     0658  143A               	bsf	i1___fldiv@grs,0
  6333     0659  2E77               	goto	i1l2272
  6334     065A                     i1l2262:
  6335     065A  3001               	movlw	1
  6336     065B  00AE               	movwf	??i1___fldiv
  6337     065C                     u300_25:
  6338     065C  1003               	clrc
  6339     065D  0DAA               	rlf	i1___fldiv@b,f
  6340     065E  0DAB               	rlf	i1___fldiv@b+1,f
  6341     065F  0DAC               	rlf	i1___fldiv@b+2,f
  6342     0660  0DAD               	rlf	i1___fldiv@b+3,f
  6343     0661  0BAE               	decfsz	??i1___fldiv,f
  6344     0662  2E5C               	goto	u300_25
  6345     0663                     i1l2264:
  6346     0663  1FBD               	btfss	i1___fldiv@grs+3,7
  6347     0664  2E66               	goto	u301_21
  6348     0665  2E67               	goto	u301_20
  6349     0666                     u301_21:
  6350     0666  2E68               	goto	i1l2268
  6351     0667                     u301_20:
  6352     0667                     i1l2266:
  6353     0667  142A               	bsf	i1___fldiv@b,0
  6354     0668                     i1l2268:
  6355     0668  3001               	movlw	1
  6356     0669  00AE               	movwf	??i1___fldiv
  6357     066A                     u302_25:
  6358     066A  1003               	clrc
  6359     066B  0DBA               	rlf	i1___fldiv@grs,f
  6360     066C  0DBB               	rlf	i1___fldiv@grs+1,f
  6361     066D  0DBC               	rlf	i1___fldiv@grs+2,f
  6362     066E  0DBD               	rlf	i1___fldiv@grs+3,f
  6363     066F  0BAE               	decfsz	??i1___fldiv,f
  6364     0670  2E6A               	goto	u302_25
  6365     0671                     i1l2270:
  6366     0671  30FF               	movlw	255
  6367     0672  07B8               	addwf	i1___fldiv@new_exp,f
  6368     0673  1803               	skipnc
  6369     0674  0AB9               	incf	i1___fldiv@new_exp+1,f
  6370     0675  30FF               	movlw	255
  6371     0676  07B9               	addwf	i1___fldiv@new_exp+1,f
  6372     0677                     i1l2272:
  6373     0677  1FAC               	btfss	i1___fldiv@b+2,7
  6374     0678  2E7A               	goto	u303_21
  6375     0679  2E7B               	goto	u303_20
  6376     067A                     u303_21:
  6377     067A  2E5A               	goto	i1l2262
  6378     067B                     u303_20:
  6379     067B                     i1l2274:
  6380     067B  01BF               	clrf	i1___fldiv@aexp
  6381     067C                     i1l2276:
  6382     067C  1FBD               	btfss	i1___fldiv@grs+3,7
  6383     067D  2E7F               	goto	u304_21
  6384     067E  2E80               	goto	u304_20
  6385     067F                     u304_21:
  6386     067F  2E9C               	goto	i1l2284
  6387     0680                     u304_20:
  6388     0680                     i1l2278:
  6389     0680  30FF               	movlw	255
  6390     0681  053A               	andwf	i1___fldiv@grs,w
  6391     0682  00AE               	movwf	??i1___fldiv
  6392     0683  30FF               	movlw	255
  6393     0684  053B               	andwf	i1___fldiv@grs+1,w
  6394     0685  00AF               	movwf	??i1___fldiv+1
  6395     0686  30FF               	movlw	255
  6396     0687  053C               	andwf	i1___fldiv@grs+2,w
  6397     0688  00B0               	movwf	??i1___fldiv+2
  6398     0689  307F               	movlw	127
  6399     068A  053D               	andwf	i1___fldiv@grs+3,w
  6400     068B  00B1               	movwf	??i1___fldiv+3
  6401     068C  0831               	movf	??i1___fldiv+3,w
  6402     068D  0430               	iorwf	??i1___fldiv+2,w
  6403     068E  042F               	iorwf	??i1___fldiv+1,w
  6404     068F  042E               	iorwf	??i1___fldiv,w
  6405     0690  1903               	skipnz
  6406     0691  2E93               	goto	u305_21
  6407     0692  2E94               	goto	u305_20
  6408     0693                     u305_21:
  6409     0693  2E97               	goto	i1l715
  6410     0694                     u305_20:
  6411     0694                     i1l2280:
  6412     0694  01BF               	clrf	i1___fldiv@aexp
  6413     0695  0ABF               	incf	i1___fldiv@aexp,f
  6414     0696  2E9C               	goto	i1l2284
  6415     0697                     i1l715:
  6416     0697  1C2A               	btfss	i1___fldiv@b,0
  6417     0698  2E9A               	goto	u306_21
  6418     0699  2E9B               	goto	u306_20
  6419     069A                     u306_21:
  6420     069A  2E9C               	goto	i1l2284
  6421     069B                     u306_20:
  6422     069B  2E94               	goto	i1l2280
  6423     069C                     i1l2284:
  6424     069C  083F               	movf	i1___fldiv@aexp,w
  6425     069D  1903               	btfsc	3,2
  6426     069E  2EA0               	goto	u307_21
  6427     069F  2EA1               	goto	u307_20
  6428     06A0                     u307_21:
  6429     06A0  2ED2               	goto	i1l2294
  6430     06A1                     u307_20:
  6431     06A1                     i1l2286:
  6432     06A1  3001               	movlw	1
  6433     06A2  07AA               	addwf	i1___fldiv@b,f
  6434     06A3  3000               	movlw	0
  6435     06A4  1803               	skipnc
  6436     06A5  3001               	movlw	1
  6437     06A6  07AB               	addwf	i1___fldiv@b+1,f
  6438     06A7  3000               	movlw	0
  6439     06A8  1803               	skipnc
  6440     06A9  3001               	movlw	1
  6441     06AA  07AC               	addwf	i1___fldiv@b+2,f
  6442     06AB  3000               	movlw	0
  6443     06AC  1803               	skipnc
  6444     06AD  3001               	movlw	1
  6445     06AE  07AD               	addwf	i1___fldiv@b+3,f
  6446     06AF                     i1l2288:
  6447     06AF  1C2D               	btfss	i1___fldiv@b+3,0
  6448     06B0  2EB2               	goto	u308_21
  6449     06B1  2EB3               	goto	u308_20
  6450     06B2                     u308_21:
  6451     06B2  2ED2               	goto	i1l2294
  6452     06B3                     u308_20:
  6453     06B3                     i1l2290:
  6454     06B3  082A               	movf	i1___fldiv@b,w
  6455     06B4  00AE               	movwf	??i1___fldiv
  6456     06B5  082B               	movf	i1___fldiv@b+1,w
  6457     06B6  00AF               	movwf	??i1___fldiv+1
  6458     06B7  082C               	movf	i1___fldiv@b+2,w
  6459     06B8  00B0               	movwf	??i1___fldiv+2
  6460     06B9  082D               	movf	i1___fldiv@b+3,w
  6461     06BA  00B1               	movwf	??i1___fldiv+3
  6462     06BB  3001               	movlw	1
  6463     06BC  00B2               	movwf	??i1___fldiv+4
  6464     06BD                     u309_25:
  6465     06BD  0D31               	rlf	??i1___fldiv+3,w
  6466     06BE  0CB1               	rrf	??i1___fldiv+3,f
  6467     06BF  0CB0               	rrf	??i1___fldiv+2,f
  6468     06C0  0CAF               	rrf	??i1___fldiv+1,f
  6469     06C1  0CAE               	rrf	??i1___fldiv,f
  6470     06C2                     u309_20:
  6471     06C2  0BB2               	decfsz	??i1___fldiv+4,f
  6472     06C3  2EBD               	goto	u309_25
  6473     06C4  0831               	movf	??i1___fldiv+3,w
  6474     06C5  00AD               	movwf	i1___fldiv@b+3
  6475     06C6  0830               	movf	??i1___fldiv+2,w
  6476     06C7  00AC               	movwf	i1___fldiv@b+2
  6477     06C8  082F               	movf	??i1___fldiv+1,w
  6478     06C9  00AB               	movwf	i1___fldiv@b+1
  6479     06CA  082E               	movf	??i1___fldiv,w
  6480     06CB  00AA               	movwf	i1___fldiv@b
  6481     06CC                     i1l2292:
  6482     06CC  3001               	movlw	1
  6483     06CD  07B8               	addwf	i1___fldiv@new_exp,f
  6484     06CE  1803               	skipnc
  6485     06CF  0AB9               	incf	i1___fldiv@new_exp+1,f
  6486     06D0  3000               	movlw	0
  6487     06D1  07B9               	addwf	i1___fldiv@new_exp+1,f
  6488     06D2                     i1l2294:
  6489     06D2  0839               	movf	i1___fldiv@new_exp+1,w
  6490     06D3  3A80               	xorlw	128
  6491     06D4  00FF               	movwf	btemp+1
  6492     06D5  3080               	movlw	128
  6493     06D6  027F               	subwf	btemp+1,w
  6494     06D7  1D03               	skipz
  6495     06D8  2EDB               	goto	u310_25
  6496     06D9  30FF               	movlw	255
  6497     06DA  0238               	subwf	i1___fldiv@new_exp,w
  6498     06DB                     u310_25:
  6499     06DB  1C03               	skipc
  6500     06DC  2EDE               	goto	u310_21
  6501     06DD  2EDF               	goto	u310_20
  6502     06DE                     u310_21:
  6503     06DE  2EED               	goto	i1l2298
  6504     06DF                     u310_20:
  6505     06DF                     i1l2296:
  6506     06DF  30FF               	movlw	255
  6507     06E0  1283               	bcf	3,5	;RP0=0, select bank0
  6508     06E1  1303               	bcf	3,6	;RP1=0, select bank0
  6509     06E2  00B8               	movwf	i1___fldiv@new_exp
  6510     06E3  3000               	movlw	0
  6511     06E4  00B9               	movwf	i1___fldiv@new_exp+1
  6512     06E5  3000               	movlw	0
  6513     06E6  00AD               	movwf	i1___fldiv@b+3
  6514     06E7  3000               	movlw	0
  6515     06E8  00AC               	movwf	i1___fldiv@b+2
  6516     06E9  3000               	movlw	0
  6517     06EA  00AB               	movwf	i1___fldiv@b+1
  6518     06EB  3000               	movlw	0
  6519     06EC  00AA               	movwf	i1___fldiv@b
  6520     06ED                     i1l2298:
  6521     06ED  1283               	bcf	3,5	;RP0=0, select bank0
  6522     06EE  1303               	bcf	3,6	;RP1=0, select bank0
  6523     06EF  0839               	movf	i1___fldiv@new_exp+1,w
  6524     06F0  3A80               	xorlw	128
  6525     06F1  00FF               	movwf	btemp+1
  6526     06F2  3080               	movlw	128
  6527     06F3  027F               	subwf	btemp+1,w
  6528     06F4  1D03               	skipz
  6529     06F5  2EF8               	goto	u311_25
  6530     06F6  3001               	movlw	1
  6531     06F7  0238               	subwf	i1___fldiv@new_exp,w
  6532     06F8                     u311_25:
  6533     06F8  1803               	skipnc
  6534     06F9  2EFB               	goto	u311_21
  6535     06FA  2EFC               	goto	u311_20
  6536     06FB                     u311_21:
  6537     06FB  2F09               	goto	i1l721
  6538     06FC                     u311_20:
  6539     06FC                     i1l2300:
  6540     06FC  1283               	bcf	3,5	;RP0=0, select bank0
  6541     06FD  1303               	bcf	3,6	;RP1=0, select bank0
  6542     06FE  01B8               	clrf	i1___fldiv@new_exp
  6543     06FF  01B9               	clrf	i1___fldiv@new_exp+1
  6544     0700                     i1l2302:
  6545     0700  3000               	movlw	0
  6546     0701  00AD               	movwf	i1___fldiv@b+3
  6547     0702  3000               	movlw	0
  6548     0703  00AC               	movwf	i1___fldiv@b+2
  6549     0704  3000               	movlw	0
  6550     0705  00AB               	movwf	i1___fldiv@b+1
  6551     0706  3000               	movlw	0
  6552     0707  00AA               	movwf	i1___fldiv@b
  6553     0708                     i1l2304:
  6554     0708  01B7               	clrf	i1___fldiv@sign
  6555     0709                     i1l721:
  6556     0709  1283               	bcf	3,5	;RP0=0, select bank0
  6557     070A  1303               	bcf	3,6	;RP1=0, select bank0
  6558     070B  0838               	movf	i1___fldiv@new_exp,w
  6559     070C  00BE               	movwf	i1___fldiv@bexp
  6560     070D                     i1l2306:
  6561     070D  1C3E               	btfss	i1___fldiv@bexp,0
  6562     070E  2F10               	goto	u312_21
  6563     070F  2F11               	goto	u312_20
  6564     0710                     u312_21:
  6565     0710  2F13               	goto	i1l2310
  6566     0711                     u312_20:
  6567     0711                     i1l2308:
  6568     0711  17AC               	bsf	i1___fldiv@b+2,7
  6569     0712  2F17               	goto	i1l2312
  6570     0713                     i1l2310:
  6571     0713  307F               	movlw	127
  6572     0714  00FF               	movwf	btemp+1
  6573     0715  087F               	movf	btemp+1,w
  6574     0716  05AC               	andwf	i1___fldiv@b+2,f
  6575     0717                     i1l2312:
  6576     0717  083E               	movf	i1___fldiv@bexp,w
  6577     0718  00AE               	movwf	??i1___fldiv
  6578     0719  1003               	clrc
  6579     071A  0C2E               	rrf	??i1___fldiv,w
  6580     071B  00AD               	movwf	i1___fldiv@b+3
  6581     071C  2DB9               	goto	i1l2216
  6582     071D                     i1l701:
  6583     071D  0008               	return
  6584     071E                     __end_ofi1___fldiv:
  6585                           
  6586                           	psect	text26
  6587     0A57                     __ptext26:	
  6588 ;; *************** function _UARTsendString *****************
  6589 ;; Defined at:
  6590 ;;		line 81 in file "PIC16F877A_UART.c"
  6591 ;; Parameters:    Size  Location     Type
  6592 ;;  str             1    wreg     PTR unsigned char 
  6593 ;;		 -> STR_2(13), STR_1(17), 
  6594 ;; Auto vars:     Size  Location     Type
  6595 ;;  str             1    3[COMMON] PTR unsigned char 
  6596 ;;		 -> STR_2(13), STR_1(17), 
  6597 ;;  i               2    1[COMMON] int 
  6598 ;; Return value:  Size  Location     Type
  6599 ;;                  1    wreg      void 
  6600 ;; Registers used:
  6601 ;;		wreg, fsr0l, fsr0h, status,2, status,0, pclath, cstack
  6602 ;; Tracked objects:
  6603 ;;		On entry : 0/0
  6604 ;;		On exit  : 0/0
  6605 ;;		Unchanged: 0/0
  6606 ;; Data sizes:     COMMON   BANK0   BANK1   BANK3   BANK2
  6607 ;;      Params:         0       0       0       0       0
  6608 ;;      Locals:         3       0       0       0       0
  6609 ;;      Temps:          0       0       0       0       0
  6610 ;;      Totals:         3       0       0       0       0
  6611 ;;Total ram usage:        3 bytes
  6612 ;; Hardware stack levels used: 1
  6613 ;; Hardware stack levels required when called: 1
  6614 ;; This function calls:
  6615 ;;		_UARTsendChar
  6616 ;; This function is called by:
  6617 ;;		_positionControl
  6618 ;; This function uses a non-reentrant model
  6619 ;;
  6620                           
  6621     0A57                     _UARTsendString:	
  6622                           ;psect for function _UARTsendString
  6623                           
  6624                           
  6625                           ;incstack = 0
  6626                           ; Regs used in _UARTsendString: [wreg-fsr0h+status,2+status,0+pclath+cstack]
  6627                           ;UARTsendString@str stored from wreg
  6628     0A57  00F3               	movwf	UARTsendString@str
  6629     0A58                     i1l2400:
  6630                           
  6631                           ;PIC16F877A_UART.c: 81: void UARTsendString(char *str);PIC16F877A_UART.c: 82: {;PIC16F87
      +                          7A_UART.c: 83:     for (int i = 0; str[i] != '\0'; ++i)
  6632     0A58  01F1               	clrf	UARTsendString@i
  6633     0A59  01F2               	clrf	UARTsendString@i+1
  6634     0A5A  2A6E               	goto	i1l2406
  6635     0A5B                     i1l2402:
  6636                           
  6637                           ;PIC16F877A_UART.c: 84:         UARTsendChar(str[i]);
  6638     0A5B  0871               	movf	UARTsendString@i,w
  6639     0A5C  0773               	addwf	UARTsendString@str,w
  6640     0A5D  0084               	movwf	4
  6641     0A5E  120A  158A  2000  120A  158A  	fcall	stringdir
  6642     0A63  120A  158A  21E9  120A  158A  	fcall	_UARTsendChar
  6643     0A68                     i1l2404:
  6644     0A68  3001               	movlw	1
  6645     0A69  07F1               	addwf	UARTsendString@i,f
  6646     0A6A  1803               	skipnc
  6647     0A6B  0AF2               	incf	UARTsendString@i+1,f
  6648     0A6C  3000               	movlw	0
  6649     0A6D  07F2               	addwf	UARTsendString@i+1,f
  6650     0A6E                     i1l2406:
  6651     0A6E  0871               	movf	UARTsendString@i,w
  6652     0A6F  0773               	addwf	UARTsendString@str,w
  6653     0A70  0084               	movwf	4
  6654     0A71  120A  158A  2000  120A  158A  	fcall	stringdir
  6655     0A76  3A00               	xorlw	0
  6656     0A77  1D03               	skipz
  6657     0A78  2A7A               	goto	u331_21
  6658     0A79  2A7B               	goto	u331_20
  6659     0A7A                     u331_21:
  6660     0A7A  2A5B               	goto	i1l2402
  6661     0A7B                     u331_20:
  6662     0A7B                     i1l116:
  6663     0A7B  0008               	return
  6664     0A7C                     __end_of_UARTsendString:
  6665                           
  6666                           	psect	text27
  6667     09E9                     __ptext27:	
  6668 ;; *************** function _UARTsendChar *****************
  6669 ;; Defined at:
  6670 ;;		line 73 in file "PIC16F877A_UART.c"
  6671 ;; Parameters:    Size  Location     Type
  6672 ;;  c               1    wreg     unsigned char 
  6673 ;; Auto vars:     Size  Location     Type
  6674 ;;  c               1    0[COMMON] unsigned char 
  6675 ;; Return value:  Size  Location     Type
  6676 ;;                  1    wreg      void 
  6677 ;; Registers used:
  6678 ;;		wreg
  6679 ;; Tracked objects:
  6680 ;;		On entry : 0/0
  6681 ;;		On exit  : 0/0
  6682 ;;		Unchanged: 0/0
  6683 ;; Data sizes:     COMMON   BANK0   BANK1   BANK3   BANK2
  6684 ;;      Params:         0       0       0       0       0
  6685 ;;      Locals:         1       0       0       0       0
  6686 ;;      Temps:          0       0       0       0       0
  6687 ;;      Totals:         1       0       0       0       0
  6688 ;;Total ram usage:        1 bytes
  6689 ;; Hardware stack levels used: 1
  6690 ;; This function calls:
  6691 ;;		Nothing
  6692 ;; This function is called by:
  6693 ;;		_UARTsendString
  6694 ;; This function uses a non-reentrant model
  6695 ;;
  6696                           
  6697     09E9                     _UARTsendChar:	
  6698                           ;psect for function _UARTsendChar
  6699                           
  6700                           
  6701                           ;incstack = 0
  6702                           ; Regs used in _UARTsendChar: [wreg]
  6703                           ;UARTsendChar@c stored from wreg
  6704     09E9  00F0               	movwf	UARTsendChar@c
  6705     09EA                     i1l1806:
  6706     09EA                     i1l107:	
  6707                           ;PIC16F877A_UART.c: 73: void UARTsendChar(char c);PIC16F877A_UART.c: 74: {;PIC16F877A_UA
      +                          RT.c: 76:     while (! TRMT);
  6708                           
  6709     09EA  1683               	bsf	3,5	;RP0=1, select bank1
  6710     09EB  1303               	bcf	3,6	;RP1=0, select bank1
  6711     09EC  1C98               	btfss	24,1	;volatile
  6712     09ED  29EF               	goto	u195_21
  6713     09EE  29F0               	goto	u195_20
  6714     09EF                     u195_21:
  6715     09EF  29EA               	goto	i1l107
  6716     09F0                     u195_20:
  6717     09F0                     i1l1808:
  6718                           
  6719                           ;PIC16F877A_UART.c: 77:     TXREG = c;
  6720     09F0  0870               	movf	UARTsendChar@c,w
  6721     09F1  1283               	bcf	3,5	;RP0=0, select bank0
  6722     09F2  1303               	bcf	3,6	;RP1=0, select bank0
  6723     09F3  0099               	movwf	25	;volatile
  6724     09F4                     i1l110:
  6725     09F4  0008               	return
  6726     09F5                     __end_of_UARTsendChar:
  6727                           
  6728                           	psect	text28
  6729     09DD                     __ptext28:	
  6730 ;; *************** function _UARTrcvChar *****************
  6731 ;; Defined at:
  6732 ;;		line 88 in file "PIC16F877A_UART.c"
  6733 ;; Parameters:    Size  Location     Type
  6734 ;;		None
  6735 ;; Auto vars:     Size  Location     Type
  6736 ;;  c               1    0[COMMON] unsigned char 
  6737 ;; Return value:  Size  Location     Type
  6738 ;;                  1    wreg      unsigned char 
  6739 ;; Registers used:
  6740 ;;		wreg
  6741 ;; Tracked objects:
  6742 ;;		On entry : 0/0
  6743 ;;		On exit  : 0/0
  6744 ;;		Unchanged: 0/0
  6745 ;; Data sizes:     COMMON   BANK0   BANK1   BANK3   BANK2
  6746 ;;      Params:         0       0       0       0       0
  6747 ;;      Locals:         1       0       0       0       0
  6748 ;;      Temps:          0       0       0       0       0
  6749 ;;      Totals:         1       0       0       0       0
  6750 ;;Total ram usage:        1 bytes
  6751 ;; Hardware stack levels used: 1
  6752 ;; This function calls:
  6753 ;;		Nothing
  6754 ;; This function is called by:
  6755 ;;		_ISR
  6756 ;;		_UARTrcvString
  6757 ;; This function uses a non-reentrant model
  6758 ;;
  6759                           
  6760     09DD                     _UARTrcvChar:	
  6761                           ;psect for function _UARTrcvChar
  6762                           
  6763     09DD                     i1l2596:	
  6764                           ;incstack = 0
  6765                           ; Regs used in _UARTrcvChar: [wreg]
  6766                           
  6767                           
  6768                           ;PIC16F877A_UART.c: 91:     if (OERR)
  6769     09DD  1283               	bcf	3,5	;RP0=0, select bank0
  6770     09DE  1303               	bcf	3,6	;RP1=0, select bank0
  6771     09DF  1C98               	btfss	24,1	;volatile
  6772     09E0  29E2               	goto	u372_21
  6773     09E1  29E3               	goto	u372_20
  6774     09E2                     u372_21:
  6775     09E2  29E5               	goto	i1l2600
  6776     09E3                     u372_20:
  6777     09E3                     i1l2598:
  6778                           
  6779                           ;PIC16F877A_UART.c: 92:     {;PIC16F877A_UART.c: 93:         CREN = 0;
  6780     09E3  1218               	bcf	24,4	;volatile
  6781                           
  6782                           ;PIC16F877A_UART.c: 94:         CREN = 1;
  6783     09E4  1618               	bsf	24,4	;volatile
  6784     09E5                     i1l2600:
  6785                           
  6786                           ;PIC16F877A_UART.c: 96:     char c = RCREG;
  6787     09E5  081A               	movf	26,w	;volatile
  6788     09E6  00F0               	movwf	UARTrcvChar@c
  6789                           
  6790                           ;PIC16F877A_UART.c: 97:     return c;
  6791     09E7  0870               	movf	UARTrcvChar@c,w
  6792     09E8                     i1l120:
  6793     09E8  0008               	return
  6794     09E9                     __end_of_UARTrcvChar:
  6795     007E                     btemp	set	126	;btemp
  6796     007E                     wtemp0	set	126
  6797                           
  6798                           	psect	idloc
  6799                           
  6800                           ;Config register IDLOC0 @ 0x2000
  6801                           ;	unspecified, using default values
  6802     2000                     	org	8192
  6803     2000  3FFF               	dw	16383
  6804                           
  6805                           ;Config register IDLOC1 @ 0x2001
  6806                           ;	unspecified, using default values
  6807     2001                     	org	8193
  6808     2001  3FFF               	dw	16383
  6809                           
  6810                           ;Config register IDLOC2 @ 0x2002
  6811                           ;	unspecified, using default values
  6812     2002                     	org	8194
  6813     2002  3FFF               	dw	16383
  6814                           
  6815                           ;Config register IDLOC3 @ 0x2003
  6816                           ;	unspecified, using default values
  6817     2003                     	org	8195
  6818     2003  3FFF               	dw	16383
  6819                           
  6820                           	psect	config
  6821                           
  6822                           ;Config register CONFIG @ 0x2007
  6823                           ;	Oscillator Selection bits
  6824                           ;	FOSC = HS, HS oscillator
  6825                           ;	Watchdog Timer Enable bit
  6826                           ;	WDTE = OFF, WDT disabled
  6827                           ;	Power-up Timer Enable bit
  6828                           ;	PWRTE = OFF, PWRT disabled
  6829                           ;	Brown-out Reset Enable bit
  6830                           ;	BOREN = ON, BOR enabled
  6831                           ;	Low-Voltage (Single-Supply) In-Circuit Serial Programming Enable bit
  6832                           ;	LVP = ON, RB3/PGM pin has PGM function; low-voltage programming enabled
  6833                           ;	Data EEPROM Memory Code Protection bit
  6834                           ;	CPD = OFF, Data EEPROM code protection off
  6835                           ;	Flash Program Memory Write Enable bits
  6836                           ;	WRT = OFF, Write protection off; all program memory may be written to by EECON control
  6837                           ;	In-Circuit Debugger Mode bit
  6838                           ;	DEBUG = 0x1, unprogrammed default
  6839                           ;	Flash Program Memory Code Protection bit
  6840                           ;	CP = OFF, Code protection off
  6841     2007                     	org	8199
  6842     2007  3FFA               	dw	16378

Data Sizes:
    Strings     30
    Constant    0
    Data        4
    BSS         6
    Persistent  0
    Stack       0

Auto Spaces:
    Space          Size  Autos    Used
    COMMON           14     14      14
    BANK0            80     59      68
    BANK1            80     79      80
    BANK3            96      3       3
    BANK2            96      0       0

Pointer List with Targets:

    UARTsendString@str	PTR unsigned char  size(1) Largest target is 17
		 -> STR_2(CODE[13]), STR_1(CODE[17]), 

    ADC_Init@adc_channel	PTR unsigned char  size(1) Largest target is 1
		 -> adc_channels(BANK1[1]), 

    ADC_setInput@adc_channel	PTR unsigned char  size(1) Largest target is 1
		 -> adc_channels(BANK1[1]), 


Critical Paths under _main in COMMON

    None.

Critical Paths under _ISR in COMMON

    i1_servoAngle->i1___xxtofl
    i1___xxtofl->i1___wmul
    i1___fltol->i1___xxtofl
    i1___fldiv->i1___xxtofl
    _UARTsendString->_UARTsendChar

Critical Paths under _main in BANK0

    None.

Critical Paths under _ISR in BANK0

    _ISR->_positionControl
    _positionControl->i1_servoAngle
    i1_servoAngle->i1___fltol
    i1___fltol->i1___fldiv
    i1___fldiv->i1___xxtofl

Critical Paths under _main in BANK1

    _main->_adcPosControl
    _servoInit->_compareInit
    _compareInit->___lwdiv
    _adcPosControl->___flmul
    _servoAngle->___fltol
    ___xxtofl->___wmul
    ___fltol->___fldiv
    ___fldiv->___xxtofl
    ___flmul->___fldiv
    _ADC_Init->_ADC_setInput

Critical Paths under _ISR in BANK1

    None.

Critical Paths under _main in BANK3

    None.

Critical Paths under _ISR in BANK3

    None.

Critical Paths under _main in BANK2

    None.

Critical Paths under _ISR in BANK2

    None.

Call Graph Tables:

 ---------------------------------------------------------------------------------
 (Depth) Function   	        Calls       Base Space   Used Autos Params    Refs
 ---------------------------------------------------------------------------------
 (0) _main                                                 3     3      0    9315
                                              0 BANK3      3     3      0
                           _ADC_Init
                   _UARTTransRcvInit
                      _adcPosControl
                          _servoInit
 ---------------------------------------------------------------------------------
 (1) _servoInit                                            0     0      0     488
                        _compareInit
                    _timer1TimerInit
 ---------------------------------------------------------------------------------
 (2) _timer1TimerInit                                      2     2      0      22
                                              0 BANK1      2     2      0
 ---------------------------------------------------------------------------------
 (2) _compareInit                                          2     2      0     466
                                              7 BANK1      2     2      0
                            ___lwdiv
 ---------------------------------------------------------------------------------
 (1) _adcPosControl                                        7     7      0    8475
                                             72 BANK1      7     7      0
                           _ADC_Read
                            ___fldiv
                            ___flmul
                            ___fltol
                           ___xxtofl
                         _servoAngle
 ---------------------------------------------------------------------------------
 (2) _servoAngle                                          11    11      0    3437
                                             56 BANK1     11    11      0
                            ___fldiv
                            ___fltol
                            ___lwdiv
                             ___wmul
                           ___xxtofl
 ---------------------------------------------------------------------------------
 (3) ___xxtofl                                            14    10      4     550
                                              6 BANK1     14    10      4
                             ___wmul (ARG)
 ---------------------------------------------------------------------------------
 (3) ___wmul                                               6     2      4     396
                                              0 BANK1      6     2      4
 ---------------------------------------------------------------------------------
 (3) ___lwdiv                                              7     3      4     466
                                              0 BANK1      7     3      4
 ---------------------------------------------------------------------------------
 (3) ___fltol                                             10     6      4     381
                                             46 BANK1     10     6      4
                            ___fldiv (ARG)
                             ___wmul (ARG)
                           ___xxtofl (ARG)
 ---------------------------------------------------------------------------------
 (3) ___fldiv                                             26    18      8    1577
                                             20 BANK1     26    18      8
                             ___wmul (ARG)
                           ___xxtofl (ARG)
 ---------------------------------------------------------------------------------
 (2) ___flmul                                             26    18      8    2417
                                             46 BANK1     26    18      8
                          __Umul8_16
                            ___fldiv (ARG)
                           ___xxtofl (ARG)
 ---------------------------------------------------------------------------------
 (3) __Umul8_16                                            9     7      2     799
                                              0 BANK1      9     7      2
 ---------------------------------------------------------------------------------
 (2) _ADC_Read                                             4     2      2      44
                                              0 BANK1      4     2      2
 ---------------------------------------------------------------------------------
 (1) _UARTTransRcvInit                                     0     0      0       0
 ---------------------------------------------------------------------------------
 (1) _ADC_Init                                             2     1      1     352
                                              6 BANK1      2     1      1
                       _ADC_setInput
 ---------------------------------------------------------------------------------
 (2) _ADC_setInput                                         6     5      1     199
                                              0 BANK1      6     5      1
 ---------------------------------------------------------------------------------
 Estimated maximum stack depth 3
 ---------------------------------------------------------------------------------
 (Depth) Function   	        Calls       Base Space   Used Autos Params    Refs
 ---------------------------------------------------------------------------------
 (4) _ISR                                                  5     5      0    2601
                                             54 BANK0      5     5      0
                        _UARTrcvChar
                    _positionControl
                     _servoShiftHigh
 ---------------------------------------------------------------------------------
 (5) _servoShiftHigh                                       0     0      0       0
 ---------------------------------------------------------------------------------
 (5) _positionControl                                      1     1      0    2533
                                             53 BANK0      1     1      0
                     _UARTsendString
                       i1_servoAngle
 ---------------------------------------------------------------------------------
 (6) i1_servoAngle                                        11    11      0    2201
                                             42 BANK0     11    11      0
                          i1___fldiv
                          i1___fltol
                          i1___lwdiv
                           i1___wmul
                         i1___xxtofl
 ---------------------------------------------------------------------------------
 (7) i1___xxtofl                                          14    10      4     348
                                              6 COMMON     8     4      4
                                              0 BANK0      6     6      0
                           i1___wmul (ARG)
 ---------------------------------------------------------------------------------
 (7) i1___wmul                                             6     2      4     144
                                              0 COMMON     6     2      4
 ---------------------------------------------------------------------------------
 (7) i1___lwdiv                                            7     3      4     214
                                              0 COMMON     7     3      4
 ---------------------------------------------------------------------------------
 (7) i1___fltol                                           10     6      4     255
                                             32 BANK0     10     6      4
                          i1___fldiv (ARG)
                           i1___wmul (ARG)
                         i1___xxtofl (ARG)
 ---------------------------------------------------------------------------------
 (7) i1___fldiv                                           26    18      8    1173
                                              6 BANK0     26    18      8
                           i1___wmul (ARG)
                         i1___xxtofl (ARG)
 ---------------------------------------------------------------------------------
 (6) _UARTsendString                                       3     3      0     178
                                              1 COMMON     3     3      0
                       _UARTsendChar
 ---------------------------------------------------------------------------------
 (7) _UARTsendChar                                         1     1      0      22
                                              0 COMMON     1     1      0
 ---------------------------------------------------------------------------------
 (5) _UARTrcvChar                                          1     1      0      23
                                              0 COMMON     1     1      0
 ---------------------------------------------------------------------------------
 Estimated maximum stack depth 7
 ---------------------------------------------------------------------------------

 Call Graph Graphs:

 _main (ROOT)
   _ADC_Init
     _ADC_setInput
   _UARTTransRcvInit
   _adcPosControl
     _ADC_Read
     ___fldiv
       ___wmul (ARG)
       ___xxtofl (ARG)
         ___wmul (ARG)
     ___flmul
       __Umul8_16
       ___fldiv (ARG)
       ___xxtofl (ARG)
     ___fltol
       ___fldiv (ARG)
       ___wmul (ARG)
       ___xxtofl (ARG)
     ___xxtofl
     _servoAngle
       ___fldiv
       ___fltol
       ___lwdiv
       ___wmul
       ___xxtofl
   _servoInit
     _compareInit
       ___lwdiv
     _timer1TimerInit

 _ISR (ROOT)
   _UARTrcvChar
   _positionControl
     _UARTsendString
       _UARTsendChar
     i1_servoAngle
       i1___fldiv
         i1___wmul (ARG)
         i1___xxtofl (ARG)
           i1___wmul (ARG)
       i1___fltol
         i1___fldiv (ARG)
         i1___wmul (ARG)
         i1___xxtofl (ARG)
       i1___lwdiv
       i1___wmul
       i1___xxtofl
   _servoShiftHigh

 Address spaces:
Name               Size   Autos  Total    Cost      Usage
BANK3               60      3       3       9        3.1%
BITBANK3            60      0       0       8        0.0%
SFR3                 0      0       0       4        0.0%
BITSFR3              0      0       0       4        0.0%
BANK2               60      0       0      11        0.0%
BITBANK2            60      0       0      10        0.0%
SFR2                 0      0       0       5        0.0%
BITSFR2              0      0       0       5        0.0%
BANK1               50     4F      50       7      100.0%
BITBANK1            50      0       0       6        0.0%
SFR1                 0      0       0       2        0.0%
BITSFR1              0      0       0       2        0.0%
BANK0               50     3B      44       5       85.0%
BITBANK0            50      0       0       4        0.0%
SFR0                 0      0       0       1        0.0%
BITSFR0              0      0       0       1        0.0%
COMMON               E      E       E       1      100.0%
BITCOMMON            E      0       0       0        0.0%
CODE                 0      0       0       0        0.0%
DATA                 0      0      A5      12        0.0%
ABS                  0      0      A5       3        0.0%
NULL                 0      0       0       0        0.0%
STACK                0      0       0       2        0.0%
EEDATA             100      0       0       0        0.0%


Microchip Technology PIC Macro Assembler V2.41 build 20230208172133 
Symbol Table                                                                                   Sat Aug 26 18:20:00 2023

                     ___fldiv@aexp 00CD                       ___fldiv@bexp 00CC  
                                pc 0002                       ___fldiv@sign 00C5  
                     ?_compareInit 0070                        i1___fldiv@a 0026  
                      i1___fldiv@b 002A                                 l40 0C35  
                               l41 0C37                                 l42 0C39  
                               l43 0C3B                                 l44 0C3D  
                               l36 0C2F                                 l53 0B67  
                               l46 0C71                                 l38 0C31  
                               l54 0B5D                                 l39 0C33  
                               l49 0A08               __end_ofi1_servoAngle 0EB2  
              ADC_Init@adc_channel 00A7                                 fsr 0004  
              ___wmul@multiplicand 00A2                   i1___wmul@product 0074  
              __Umul8_16@word_mpld 00A6                         i1___xxtofl 0F46  
                              l104 0A56                                l227 0CD9  
                              l147 0A39                                l261 0F45  
                              l350 07E6                                l254 0B9F  
                              l352 07FE                                l257 0A1E  
                              l701 054E                                l622 0C29  
                              l543 0E20                                l536 0E35  
                              l721 053A                                l546 0E35  
                              l715 04C8                                l760 0AC9  
                              l745 02EF                                l739 037F  
                              l758 0AB7                                l783 0742  
                              l785 07D7                                l699 03D6  
                              l796 07A1                                l797 07AD  
                              _GIE 005F                                _RC2 003A  
                              _ISR 0AFC                                _RX9 00C6  
                              _TX9 04C6                                fsr0 0004  
          __end_of_positionControl 0D46                                indf 0000  
                     i1___fltol@f1 0040                       ___flmul@aexp 00E0  
                     ___flmul@bexp 00E1                       ___flmul@sign 00DB  
                     ___flmul@temp 00E6                       ___flmul@prod 00E2  
                             ?_ISR 0070                      i1___fldiv@grs 003A  
                    i1___fldiv@rem 0033                    _timer1TimerInit 0A1F  
                     ___fltol@exp1 00D7                               l2000 04D2  
                             l2010 0510                               l2002 04E0  
                             l2020 053E                               l2012 051E  
                             l2004 04E4                               l2022 0542  
                             l2014 052D                               l2006 04FD  
                             l2040 0AB1                               l2024 0544  
                             l2016 0531                               l2008 0503  
                             l2042 0AC0                               l2034 0AA4  
                             l2026 0548                               l2018 0539  
                             l2050 0726                               l2044 0AC5  
                             l2036 0AA6                               l2060 0753  
                             l2052 072A                               l2038 0AAD  
                             l2070 076E                               l2062 0756  
                             l2054 073A                               l2080 079B  
                             l2072 077C                               l2064 075A  
                             l2056 074A                               l2048 0721  
                             l2090 07CE                               l2082 07A5  
                             l2074 0785                               l2066 0763  
                             l2410 0A31                               l2500 01B5  
                             l2092 07CF                               l2084 07AF  
                             l2076 078C                               l2068 076A  
                             l2420 0A38                               l2412 0A32  
                             l2510 024D                               l2502 01CC  
                             l2086 07C5                               l2078 0797  
                             l2422 0EB5                               l2430 0B6E  
                             l2414 0A33                               l2520 02BB  
                             l2512 0273                               l2504 01E9  
                             l2440 0049                               l2432 003B  
                             l2088 07CA                               l2424 0EBB  
                             l2416 0A34                               l2408 0A22  
                             l2530 02D3                               l2522 02BF  
                             l2514 029B                               l2506 0214  
                             l2450 0065                               l2442 004E  
                             l2434 0040                               l1810 07D8  
                             l2426 0F3B                               l2418 0A37  
                             l2372 0C3F                               l2540 02F4  
                             l2532 02D4                               l2524 02C0  
                             l2516 02A4                               l2508 0222  
                             l2460 0078                               l2452 006A  
                             l2444 0053                               l2436 0044  
                             l1900 0398                               l1820 07FA  
                             l1812 07DC                               l2428 0B68  
                             l2700 0ACA                               l2374 0C67  
                             l2390 0B3D                               l2542 02F9  
                             l2550 032A                               l2534 02D8  
                             l2526 02C9                               l2518 02B2  
                             l2470 0094                               l2462 007D  
                             l2454 006E                               l2446 005B  
                             l2438 0048                               l1910 03B0  
                             l1902 03A0                               l1830 0DD2  
                             l1814 07E0                               l2710 0AEA  
                             l2702 0ACF                               l2376 0C6B  
                             l2368 0C2D                               l2392 0B54  
                             l2384 0B34                               l2560 035D  
                             l2552 0337                               l2544 0307  
                             l2536 02EC                               l2528 02CF  
                             l2480 00BD                               l2472 0099  
                             l2464 0085                               l2456 0072  
                             l2448 005D                               l1920 03C3  
                             l1912 03B4                               l1904 03A1  
                             l1840 0DF4                               l1832 0DE5  
                             l1824 0DBE                               l1816 07ED  
                             l2704 0AD9                               l2394 0B5A  
                             l2386 0B3A                               l2570 0377  
                             l2562 0369                               l2554 0342  
                             l2546 030B                               l2490 0156  
                             l2482 00D8                               l2466 0087  
                             l2458 0073                               l1930 03EA  
                             l1922 03CB                               l1914 03B8  
                             l1906 03A3                               l1850 0E0E  
                             l1834 0DE6                               l1826 0DC9  
                             l1818 07F4                               l2650 0A13  
                             l2706 0ADE                               l2580 09F8  
                             l2396 0B61                               l2564 036D  
                             l2556 0351                               l2548 0324  
                             l2492 015F                               l2484 00F4  
                             l2476 00A2                               l2468 008F  
                             l1932 03EE                               l1924 03CC  
                             l1916 03B9                               l1908 03AB  
                             l1860 0E2A                               l1836 0DEE  
                             l2652 0A19                               l2708 0AE5  
                             l2742 0C4D                               l2582 0A00  
                             l2590 0A53                               l2566 036E  
                             l2558 035B                               l2494 016D  
                             l2486 011E                               l2478 00B0  
                             l1950 042F                               l1942 0405  
                             l1918 03BE                               l1926 03CE  
                             l1846 0DFC                               l1838 0DF0  
                             l1870 0BF8                               l1862 0BE4  
                             l2654 0C72                               l2646 0A09  
                             l2584 0A04                               l2592 0A54  
                             l2568 0373                               l2496 018A  
                             l2488 013A                               l1960 044D  
                             l1952 0431                               l1944 0417  
                             l1928 03DE                               l1936 03F7  
                             l1856 0E15                               l1848 0E05  
                             l1880 0C18                               l1872 0BFC  
                             l1864 0BE8                               l2648 0A0F  
                             l2594 0A55                               l2586 0A3A  
                             l2498 0198                               l1954 0436  
                             l1962 0456                               l1970 047B  
                             l1946 041F                               l1938 03FC  
                             l1890 0385                               l1858 0E25  
                             l1882 0C1F                               l1874 0C00  
                             l1866 0BEE                               l2588 0A51  
                             l1980 0498                               l1972 0481  
                             l1964 0468                               l1956 0448  
                             l1948 0427                               l1892 0389  
                             l1876 0C11                               l1868 0BF1  
                             l1884 0C25                               l1990 04AD  
                             l1982 0499                               l1974 0489  
                             l1966 0469                               l1958 044C  
                             l1894 038D                               l1878 0C17  
                             l1992 04B1                               l1984 04A2  
                             l1976 048B                               l1968 0477  
                             l1896 038E                               l1888 0380  
                             l1994 04C5                               l1978 0494  
                             l1986 04A8                               l1898 0393  
                             l1988 04AC                               l1998 04CD  
                             STR_1 0806                               STR_2 0817  
                             _BRGH 04C2                               _CREN 00C4  
                             u2000 0DC9                               u2001 0DC8  
                             u2010 0DE0                               u2020 0DF4  
                             u2100 0BEE                               u2021 0DF3  
                             u2101 0BED                               u2030 0DFB  
                             u2031 0DFA                               u2015 0DDB  
                             u2200 03B8                               u2120 0C00  
                             u2201 03B7                               u2121 0BFF  
                             u2210 03BE                               u2050 0E0D  
                             u2211 03BD                               u2051 0E0C  
                             u2115 0BF2                               u2300 0468  
                             u2220 03C3                               u2060 0E14  
                             u2140 0C11                               u2301 0467  
                             u2221 03C2                               u2061 0E13  
                             u2045 0DFD                               u2141 0C10  
                             u2310 0481                               u2230 03DE  
                             u2311 0480                               u2231 03DD  
                             u2135 0C01                               u2400 04D2  
                             u2320 0489                               u2240 03FC  
                             u2080 0E25                               u2160 0C25  
                             u2401 04D1                               u2321 0488  
                             u2305 0464                               u2241 03FB  
                             u2081 0E24                               u2161 0C24  
                             u2145 0C0D                               u2410 04E4  
                             u2250 0436                               u2170 038D  
                             u2090 0E2A                               u2411 04E3  
                             u2251 0435                               u2171 038C  
                             u2091 0E29                               u2075 0E17  
                             u2155 0C19                               u3300 0B61  
                             u2420 04F3                               u2340 0498  
                             u2180 0393                               u2500 072A  
                             u3301 0B60                               u2341 0497  
                             u2181 0392                               u2501 0729  
                             u2430 0510                               u2190 0398  
                             u2510 074A                               u2431 050F  
                             u2335 048D                               u2191 0397  
                             u2511 0749                               u3400 0094  
                             u2440 052D                               u2360 04AC  
                             u2280 044C                               u2600 07BA  
                             u3401 0093                               u2441 052C  
                             u2425 04EE                               u2361 04AB  
                             u2281 044B                               u2265 0438  
                             u3410 0099                               u2450 0542  
                             u2370 04B1                               u2610 07CA  
                             u2530 0769                               u3330 0EBB  
                             u3411 0098                               u2451 0541  
                             u2435 050C                               u2371 04B0  
                             u2355 049B                               u2275 0441  
                             u2611 07C9                               u2531 0768  
                             u3331 0EBA                               u2460 0AB1  
                             u3340 0048                               u2380 04C5  
                             u2620 07CE                               u2461 0AB0  
                             u3501 01DB                               u3421 00E6  
                             u3341 0047                               u2445 0529  
                             u2381 04C4                               u2621 07CD  
                             u2605 07B5                               u2525 075B  
                             u3325 0A25                               u3270 0C71  
                             u3502 01E2                               u3422 00ED  
                             u3350 004E                               u2390 04CC  
                             u2550 078B                               u3271 0C70  
                             u3511 0206                               u3503 01E9  
                             u3431 0102                               u3423 00F4  
                             u3351 004D                               u2391 04CB  
                             u2295 044F                               u2551 078A  
                             u3280 0B3A                               u2480 0AC5  
                             u3512 020D                               u3432 0109  
                             u3360 0053                               u3281 0B39  
                             u2481 0AC4                               u3521 0231  
                             u3513 0214                               u3441 012C  
                             u3433 0110                               u3361 0052  
                             u2545 077D                               u3610 02D3  
                             u3530 0259                               u3522 0238  
                             u3442 0133                               u3370 0072  
                             u2570 079B                               u2490 0726  
                             u2475 0AB8                               u3611 02D2  
                             u3523 023F                               u3451 0148  
                             u3443 013A                               u3371 0071  
                             u2571 079A                               u2491 0725  
                             u3700 036D                               u3620 02D8  
                             u3452 014F                               u3380 0078  
                             u2580 07A1                               u3701 036C  
                             u3621 02D7                               u3605 02C2  
                             u3541 0265                               u3453 0156  
                             u3381 0077                               u2581 07A0  
                             u2565 0790                               u3630 02EC  
                             u3550 0281                               u3542 026C  
                             u3390 007D                               u2590 07A5  
                             u3295 0B48                               u3631 02EB  
                             u3543 0273                               u3535 0254  
                             u3471 017C                               u3391 007C  
                             u2591 07A4                               u3640 02F3  
                             u3472 0183                               u1960 07E0  
                             u3641 02F2                               u3561 028D  
                             u3481 01A7                               u3473 018A  
                             u3465 0158                               u1961 07DF  
                             u3650 02F9                               u3562 0294  
                             u3482 01AE                               u3651 02F8  
                             u3563 029B                               u3555 027C  
                             u3483 01B5                               _PEIE 005E  
                             u3660 030B                               u3661 030A  
                             u3670 031A                               u3590 02BF  
                             u1990 07FA                               u3591 02BE  
                             u3575 029D                               u3495 01B7  
                             u1991 07F9                               u1975 07E7  
                             u3680 0337                               u3681 0336  
                             u3585 02B4                               u1985 07EE  
                             u3690 0351                               u3850 0AE5  
                             u3691 0350                               u3675 0315  
                             u3851 0AE4                               _RCIE 0465  
                             _RCIF 0065                               u3685 0333  
                             u3695 034D                               u3867 0AF2  
                             u3877 0B58                               _OERR 00C1  
                             _TMR1 000E                               _SPEN 00C7  
                             _TRMT 04C1                               _TXEN 04C5  
                             _SYNC 04C4                               _main 0ACA  
                             _mode 005F                               btemp 007E  
                 __end_of_ADC_Init 0A09                   __end_of_ADC_Read 0B68  
                             start 0012                   ??_UARTsendString 0071  
                  ___fldiv@new_exp 00C6                      _adcPosControl 0C72  
                            ??_ISR 0056                       _adc_channels 00EF  
                   i1___fldiv@aexp 003F                     i1___fldiv@bexp 003E  
                   i1___fldiv@sign 0037                      ___fltol@sign1 00D6  
                            ?_main 0070                    __end_of___fldiv 054F  
                            _CCPR1 0015                    __end_of___flmul 0380  
                  __end_of___fltol 0E36                              _T1CON 0010  
                  __end_of___lwdiv 0C2A                              i1l110 09F4  
                            i1l120 09E8                              i1l107 09EA  
                            i1l116 0A7B                              i1l224 0D45  
                            i1l261 0EB1                              i1l350 0A88  
                            i1l352 0AA0                              i1l264 09DC  
                            i1l196 0B1C                              i1l701 071D  
                            i1l622 0BE3                              i1l198 0B24  
                            i1l543 0DA8                              i1l536 0DBD  
                            i1l721 0709                              i1l546 0DBD  
                            i1l715 0697                              i1l783 0F6A  
                            i1l785 0FFF                              i1l699 05A5  
                            i1l796 0FC9                              i1l797 0FD5  
                            _RCREG 001A           __end_of_UARTTransRcvInit 0A57  
                            _TIME1 0062                              _SPBRG 0099  
                            _TXREG 0019                   ??_servoShiftHigh 0070  
                            pclath 000A                   __end_ofi1___wmul 0AA1  
                   i1___fltol@exp1 0049                              status 0003  
              i1___wmul@multiplier 0070                              wtemp0 007E  
                    ADC_setInput@i 00A5                    __initialization 0015  
                   ?_adcPosControl 0070                       __end_of_main 0AFC  
                           ??_main 0190                        ?i1___xxtofl 0076  
          __end_of_timer1TimerInit 0A3A                   ?_positionControl 0070  
                           _ADCON0 001F                             _ADCON1 009F  
                           _CCP1M0 00B8                             _CCP1M1 00B9  
                           _CCP1M2 00BA                             _CCP1M3 00BB  
                           _ADRESH 001E                             _ADRESL 009E  
                           i1l2100 0A82                             i1l2110 0D46  
                           i1l2102 0A8F                             i1l2200 0587  
                           i1l2120 0D6E                             i1l2112 0D51  
                           i1l2104 0A96                             i1l2210 059B  
                           i1l2202 0588                             i1l2122 0D76  
                           i1l2106 0A9C                             i1l2300 06FC  
                           i1l2204 058D                             i1l2212 059D  
                           i1l2132 0D84                             i1l2124 0D78  
                           i1l2116 0D5A                             i1l2310 0713  
                           i1l2302 0700                             i1l2230 05E6  
                           i1l2214 05AD                             i1l2222 05C6  
                           i1l2206 0592                             i1l2142 0D9D  
                           i1l2134 0D8D                             i1l2126 0D7C  
                           i1l2118 0D6D                             i1l2150 0BA2  
                           i1l2400 0A58                             i1l2312 0717  
                           i1l2304 0708                             i1l2240 0605  
                           i1l2232 05EE                             i1l2224 05CB  
                           i1l2216 05B9                             i1l2208 059A  
                           i1l2144 0DAD                             i1l2136 0D96  
                           i1l2160 0BBA                             i1l2152 0BA8  
                           i1l2320 0F49                             i1l2402 0A5B  
                           i1l2306 070D                             i1l2250 0637  
                           i1l2242 0617                             i1l2234 05F6  
                           i1l2218 05BD                             i1l2146 0DB2  
                           i1l2162 0BCB                             i1l2154 0BAB  
                           i1l2170 0BDF                             i1l2322 0F4E  
                           i1l2404 0A68                             i1l2308 0711  
                           i1l2260 0658                             i1l2252 0638  
                           i1l2244 061B                             i1l2236 05FE  
                           i1l2228 05D4                             i1l2180 055C  
                           i1l2164 0BD1                             i1l2156 0BB2  
                           i1l2148 0BA0                             i1l2340 0F92  
                           i1l2332 0F7B                             i1l2324 0F52  
                           i1l2406 0A6E                             i1l2270 0671  
                           i1l2262 065A                             i1l2254 0646  
                           i1l2246 061C                             i1l2238 0600  
                           i1l2190 0570                             i1l2182 055D  
                           i1l2174 054F                             i1l2166 0BD2  
                           i1l2158 0BB6                             i1l2350 0FBF  
                           i1l2342 0F96                             i1l2334 0F7E  
                           i1l2326 0F62                             i1l2600 09E5  
                           i1l2280 0694                             i1l2264 0663  
                           i1l2272 0677                             i1l2248 0625  
                           i1l2256 064A                             i1l2184 0562  
                           i1l2192 0572                             i1l2176 0554  
                           i1l2168 0BD9                             i1l2096 0A7C  
                           i1l2360 0FF2                             i1l2352 0FC3  
                           i1l2344 0FA4                             i1l2336 0F82  
                           i1l2328 0F72                             i1l2290 06B3  
                           i1l2274 067B                             i1l2266 0667  
                           i1l2258 0650                             i1l2194 057A  
                           i1l2186 0567                             i1l2178 0558  
                           i1l2098 0A7E                             i1l2362 0FF6  
                           i1l2354 0FCD                             i1l2346 0FAD  
                           i1l2338 0F8B                             i1l2610 09DA  
                           i1l2292 06CC                             i1l2284 069C  
                           i1l2276 067C                             i1l2268 0668  
                           i1l2196 057F                             i1l2188 056F  
                           i1l2364 0FF7                             i1l2356 0FD7  
                           i1l2348 0FB4                             i1l2620 0CF7  
                           i1l2612 0CDD                             i1l2604 09D2  
                           i1l1806 09EA                             i1l2286 06A1  
                           i1l2294 06D2                             i1l2278 0680  
                           i1l2198 0583                             i1l2358 0FED  
                           i1l2630 0D17                             i1l2622 0CFD  
                           i1l2614 0CE3                             i1l2606 09D8  
                           i1l1808 09F0                             i1l2296 06DF  
                           i1l2288 06AF                             i1l2640 0D38  
                           i1l2632 0D1E                             i1l2624 0D04  
                           i1l2616 0CEA                             i1l2608 09D9  
                           i1l2298 06ED                             i1l2634 0D24  
                           i1l2626 0D0A                             i1l2618 0CF0  
                           i1l2636 0D2B                             i1l2628 0D11  
                           i1l2644 0D3F                             i1l2574 0E39  
                           i1l2638 0D31                             i1l2576 0E3F  
                           i1l2578 0EAD                             i1l2690 0B08  
                           i1l2596 09DD                             i1l2692 0B0C  
                           i1l2684 0AFC                             i1l2598 09E3  
                           i1l2694 0B14                             i1l2686 0B00  
                           i1l2696 0B1A                             i1l2688 0B05  
                           i1l2698 0B1E                             u300_25 065C  
                           u301_20 0667                             u301_21 0666  
                           u310_20 06DF                             u310_21 06DE  
                           u310_25 06DB                             u302_25 066A  
                           u311_20 06FC                             u303_20 067B  
                           u311_21 06FB                             u303_21 067A  
                           u311_25 06F8                             u312_20 0711  
                           u304_20 0680                             u312_21 0710  
                           u304_21 067F                             u320_25 0FB8  
                           u305_20 0694                             u321_20 0FC3  
                           u313_20 0F4E                             u305_21 0693  
                           u321_21 0FC2                             u313_21 0F4D  
                           u306_20 069B                             u322_20 0FC9  
                           u314_20 0F52                             u306_21 069A  
                           u322_21 0FC8                             u314_21 0F51  
                           u331_20 0A7B                             u307_20 06A1  
                           u323_20 0FCD                             u315_20 0F72  
                           u331_21 0A7A                             u307_21 06A0  
                           u323_21 0FCC                             u315_21 0F71  
                           u308_20 06B3                             u324_20 0FE2  
                           u308_21 06B2                             u324_25 0FDD  
                           u316_25 0F83                             u309_20 06C2  
                           u325_20 0FF2                             u317_20 0F91  
                           u325_21 0FF1                             u317_21 0F90  
                           u309_25 06BD                             u270_20 0D83  
                           u326_20 0FF6                             u270_21 0D82  
                           u326_21 0FF5                             u318_25 0FA5  
                           u263_20 0A82                             u319_20 0FB3  
                           u263_21 0A81                             u319_21 0FB2  
                           u271_25 0D85                             u272_20 0D95  
                           u272_21 0D94                             u280_25 0BBB  
                           u264_25 0A89                             u273_20 0D9C  
                           u281_20 0BCB                             u273_21 0D9B  
                           u281_21 0BCA                             u281_25 0BC7  
                           u265_25 0A90                             u290_20 05AD  
                           u266_20 0A9C                             u290_21 05AC  
                           u266_21 0A9B                             u274_25 0D9F  
                           u282_25 0BD3                             u195_20 09F0  
                           u291_20 05CB                             u275_20 0DAD  
                           u267_20 0D51                             u283_20 0BDF  
                           u371_20 0E3F                             u195_21 09EF  
                           u291_21 05CA                             u275_21 0DAC  
                           u267_21 0D50                             u283_21 0BDE  
                           u371_21 0E3E                             u372_20 09E3  
                           u292_20 0605                             u284_20 055C  
                           u276_20 0DB2                             u268_20 0D68  
                           u372_21 09E2                             u292_21 0604  
                           u284_21 055B                             u276_21 0DB1  
                           u268_25 0D63                             u285_20 0562  
                           u269_20 0D7C                             u277_20 0BA8  
                           u373_20 0CE3                             u285_21 0561  
                           u269_21 0D7B                             u277_21 0BA7  
                           u373_21 0CE2                             u293_25 0607  
                           u286_20 0567                             u374_20 0CF0  
                           u382_20 0B00                             u286_21 0566  
                           u374_21 0CEF                             u382_21 0AFF  
                           u294_25 0610                             u278_25 0BAC  
                           u295_20 061B                             u287_20 0587  
                           u279_20 0BBA                             u375_20 0CFD  
                           u383_20 0B0C                             u295_21 061A  
                           u287_21 0586                             u279_21 0BB9  
                           u375_21 0CFC                             u383_21 0B0B  
                           u288_20 058D                             u376_20 0D0A  
                           u384_20 0B1A                             u288_21 058C  
                           u376_21 0D09                             u384_21 0B19  
                           u296_25 061E                             u297_20 0637  
                           u289_20 0592                             u377_20 0D17  
                           u297_21 0636                             u289_21 0591  
                           u377_21 0D16                             u297_25 0633  
                           u298_20 0650                             u378_20 0D24  
                           u298_21 064F                             u378_21 0D23  
                           u299_20 0658                             u379_20 0D31  
                           u299_21 0657                             u379_21 0D30  
                           _TMR1IE 0460                             _TMR1IF 0060  
                           _TMR1CS 0081                             _TMR1ON 0080  
                           _TRISA0 0428                             _TRISA1 0429  
                           _TRISA2 042A                             _TRISA3 042B  
                           _TRISA5 042D                             _TRISC2 043A  
                           _TRISE0 0448                             _TRISE1 0449  
                           _TRISE2 044A                             _TRISC6 043E  
                           _TRISC7 043F                   __end_of___xxtofl 07D8  
             adcPosControl@adc_val 00E8                             ___wmul 07D8  
                        ??___fldiv 00BC                          ??___flmul 00D6  
                        ??___fltol 00D2             i1servoAngle@duty_cycle 0052  
               positionControl@com 0055                          ??___lwdiv 00A4  
                     _ADC_setInput 0C2A                       ?_UARTrcvChar 0070  
                __end_ofi1___fldiv 071E                  __end_ofi1___fltol 0DBE  
                __end_ofi1___lwdiv 0BE4                          ?_ADC_Init 00A6  
                        ?_ADC_Read 00A0                             saved_w 007E  
                  i1___fltol@sign1 0048                  UARTsendString@str 0073  
                     i1_servoAngle 0E36                       ___xxtofl@arg 00B0  
                     ___xxtofl@exp 00AF                       ___xxtofl@val 00A6  
          __end_of__initialization 0037                         ___fltol@f1 00CE  
                  ??_adcPosControl 00E8                     __pcstackCOMMON 0070  
                     __pidataBANK0 09CE               servoAngle@duty_cycle 00E0  
         timer1TimerInit@prescaler 00A1                ADC_Read@adc_channel 00A3  
                        ?i1___wmul 0070                   ?_timer1TimerInit 0070  
                       ??_ADC_Init 00A7                         ??_ADC_Read 00A2  
                       __pbssBANK0 005B                         __pbssBANK1 00EF  
                i1servoAngle@angle 0054                     i1___xxtofl@arg 0022  
                   i1___xxtofl@exp 0021                     i1___xxtofl@val 0076  
                __end_of__Umul8_16 0ACA                         __pmaintext 0ACA  
                          ?___wmul 00A0                         __pintentry 0004  
                          _CCP1CON 0017                         ??i1___wmul 0074  
                          _T1OSCEN 0083                  ?_UARTTransRcvInit 0070  
                        ?___xxtofl 00A6                            _GO_DONE 00FA  
               ??_UARTTransRcvInit 00A0                         __stringtab 0800  
                          ___fldiv 0380                            ___flmul 003B  
                          ___fltol 0DBE                            ___lwdiv 0BE4  
                     ??i1___xxtofl 007A                            __ptext1 0A09  
                          __ptext2 0A1F                            __ptext3 0B68  
                          __ptext4 0C72                            __ptext5 0EB2  
                          __ptext6 071E                            __ptext7 07D8  
                          __ptext8 0BE4                            __ptext9 0DBE  
                i1___lwdiv@divisor 0070                  i1___lwdiv@counter 0076  
                       ??___xxtofl 00AA               end_of_initialization 0037  
                    ?_UARTsendChar 0070                  __end_of_servoInit 0A1F  
               __end_ofi1___xxtofl 1000              i1___wmul@multiplicand 0072  
                       _servoAngle 0EB2                    ADC_setInput@len 00A0  
                    ___xxtofl@sign 00AE                          i1___fldiv 054F  
                      ___fldiv@grs 00C8                          i1___fltol 0D46  
                      ___fldiv@rem 00C1                          i1___lwdiv 0BA0  
                   ??_UARTsendChar 0070                        ___flmul@grs 00DC  
                    ??_compareInit 00A7                     __end_of___wmul 07FF  
_uart_str_idx@PIC16F877A_UART$F183 005B                start_initialization 0015  
                      __end_of_ISR 0B31                         ?i1___fldiv 0026  
                       ?i1___fltol 0040                         ?i1___lwdiv 0070  
            __end_of_adcPosControl 0CDA                           ??___wmul 00A4  
                        __Umul8_16 0AA1                        __pdataBANK0 0060  
                      ?_servoAngle 0070                          ___fldiv@a 00B4  
                        ___fldiv@b 00B8                __end_of_compareInit 0BA0  
                        ___flmul@a 00D2                          ___flmul@b 00CE  
                        ___latbits 0002                      __pcstackBANK0 0020  
                    __pcstackBANK1 00A0                      __pcstackBANK3 0190  
                       ISR@command 005A                    i1___xxtofl@sign 0020  
                i1___fldiv@new_exp 0038                   ___lwdiv@dividend 00A2  
                ??_positionControl 007E                           ?___fldiv 00B4  
                         ?___flmul 00CE                           ?___fltol 00CE  
                       ?__Umul8_16 00A0                           ?___lwdiv 00A0  
             __end_of_UARTsendChar 09F5                     _UARTsendString 0A57  
                        __pstrings 0800                           _ADC_Init 09F5  
                         _ADC_Read 0B31                        ADC_Init@len 00A6  
                      ??i1___fldiv 002E                        ??i1___fltol 0044  
                 ___lwdiv@quotient 00A4                        ??i1___lwdiv 0074  
                         _DC_RANGE 0060                  interrupt_function 0004  
                   ___wmul@product 00A4                    servoAngle@angle 00E2  
                   _servoShiftHigh 09D2                          _servoInit 0A09  
           __end_of_UARTsendString 0A7C                        _compareInit 0B68  
                    ?_ADC_setInput 00A0                         _ADCON0bits 001F  
                      __stringbase 0805                  ___wmul@multiplier 00A0  
                    ??_UARTrcvChar 0070                           i1___wmul 0A7C  
          ADC_setInput@adc_channel 00A4                      ?i1_servoAngle 0070  
           adcPosControl@adc_angle 00EE             __end_of_servoShiftHigh 09DD  
                ??_timer1TimerInit 00A0                         ?_servoInit 0070  
                   ??_ADC_setInput 00A1                    ?_UARTsendString 0070  
                      ??__Umul8_16 00A2                    UARTsendString@i 0071  
               __end_of__stringtab 0806                           ___xxtofl 071E  
                  ___lwdiv@divisor 00A0                    ___lwdiv@counter 00A6  
                         __ptext10 0380                           __ptext11 003B  
                         __ptext20 0E36                           __ptext12 0AA1  
                         __ptext21 0F46                           __ptext13 0B31  
                         __ptext22 0A7C                           __ptext14 0A3A  
                         __ptext23 0BA0                           __ptext15 09F5  
                         __ptext24 0D46                           __ptext16 0C2A  
                         __ptext25 054F                           __ptext17 0AFC  
                         __ptext26 0A57                           __ptext18 09D2  
                         __ptext27 09E9                           __ptext19 0CDA  
                         __ptext28 09DD                __end_of_UARTrcvChar 09E9  
                   ??i1_servoAngle 004A                 i1___lwdiv@dividend 0072  
                  ?_servoShiftHigh 0070                   _UARTTransRcvInit 0A3A  
                     ??_servoAngle 00D8                 i1___lwdiv@quotient 0074  
           adcPosControl@pot_value 00EC                    _positionControl 0CDA  
                         intlevel1 0000                       _UARTsendChar 09E9  
               __end_of_servoAngle 0F46                          stringcode 0800  
                     _uart_str_idx 005D                      UARTsendChar@c 0070  
                      ??_servoInit 00A9             __Umul8_16@multiplicand 00A0  
                      _UARTrcvChar 09DD                       UARTrcvChar@c 0070  
                         stringdir 0800                           stringtab 0800  
             __end_of_ADC_setInput 0C72               __Umul8_16@multiplier 00A8  
                __Umul8_16@product 00A4  
